EXPORTS
    BIN2CHAR @1 DATA
    BIN2DPD @2 DATA
    COMBEXP @3 DATA
    COMBMSD @4 DATA
    DECPOWERS @5 DATA
    DECSTICKYTAB @6 DATA
    DPD2BIN @7 DATA
    Elists_Ptr @8 DATA
    Elmts_Ptr @9 DATA
    LNnn @10 DATA
    List_Headers_Ptr @11 DATA
    Next_Node_Ptr @12 DATA
    Node_Offsets_Ptr @13 DATA
    Prev_Node_Ptr @14 DATA
    ProcListCS @15 DATA
    ProcListEvt @16 DATA
    SA @17 DATA
    Slots_Ptr @18 DATA
    String_Chars_Ptr @19 DATA
    Strings_Ptr @20 DATA
    UI_From_gnu @21
    UI_To_gnu @22
    VN_TOP @23 DATA
    _Z10HONOR_NANS12machine_mode @24
    _Z10HONOR_NANSPK7rtx_def @25
    _Z10HONOR_NANSPK9tree_node @26
    _Z10alloc_loopv @27
    _Z10app_enablev @28
    _Z10auto_inc_pPK7rtx_def @29
    _Z10auto_var_pPK9tree_node @30
    _Z10av_set_addPP10_list_nodeP5_expr @31
    _Z10bitmap_andP11bitmap_headPKS_S2_ @32
    _Z10bitmap_andP17simple_bitmap_defPKS_S2_ @33
    _Z10bitmap_iorP11bitmap_headPKS_S2_ @34
    _Z10bitmap_iorP17simple_bitmap_defPKS_S2_ @35
    _Z10bitmap_notP17simple_bitmap_defPKS_ @36
    _Z10bitmap_xorP11bitmap_headPKS_S2_ @37
    _Z10bitmap_xorP17simple_bitmap_defPKS_S2_ @38
    _Z10btf_outputPKc @39
    _Z10build_addrP9tree_node @40
    _Z10build_declj9tree_codeP9tree_nodeS1_ @41
    _Z10build_realP9tree_node10real_value @42
    _Z10can_copy_p12machine_mode @43
    _Z10clear_exprP5_expr @44
    _Z10cmp_countsPKvS0_ @45
    _Z10condjump_pPK8rtx_insn @46
    _Z10const_unop9tree_codeP9tree_nodeS1_ @47
    _Z10cpp_assertP10cpp_readerPKc @48
    _Z10cpp_defineP10cpp_readerPKc @49
    _Z10cpp_finishP10cpp_readerP6_iobuf @50
    _Z10cpp_lookupP10cpp_readerPKhj @51
    _Z10create_ddgP15basic_block_defi @52
    _Z10ctf_do_dieP10die_struct @53
    _Z10ctf_outputPKc @54
    _Z10dbxout_inti @55
    _Z10debug_bb_ni @56
    _Z10debug_bb_ni9dump_flag @57
    _Z10debug_bodyPK9tree_node @58
    _Z10debug_bodyRK9tree_node @59
    _Z10debug_ddrs3vecIP24data_dependence_relation7va_heap6vl_ptrE @60
    _Z10debug_edgePK8edge_def @61
    _Z10debug_exprP5_expr @62
    _Z10debug_headPK9tree_node @63
    _Z10debug_headRK9tree_node @64
    _Z10debug_insnP8rtx_insn @65
    _Z10debug_loopP4loopi @66
    _Z10debug_passv @67
    _Z10debug_pdrsP7poly_bb @68
    _Z10debug_scopP4scop @69
    _Z10debug_seseRK6sese_l @70
    _Z10debug_treeP9tree_node @71
    _Z10dep_cost_1P4_depj @72
    _Z10deps_writePK10cpp_readerP6_iobufj @73
    _Z10df_analyzev @74
    _Z10dfa_finishv @75
    _Z10dump_beginiP9dump_flagi @76
    _Z10dump_blistP10_list_node @77
    _Z10dump_chainP6_iobufP5chain @78
    _Z10dump_classP9table_elt @79
    _Z10dump_flistP10_list_node @80
    _Z10dump_graphP6_iobufP5graph @81
    _Z10dump_vinsnP9vinsn_def @82
    _Z10emit_labelP7rtx_def @83
    _Z10expand_PHI11internal_fnP5gcall @84
    _Z10expand_abs12machine_modeP7rtx_defS1_ii @85
    _Z10expand_and12machine_modeP7rtx_defS1_S1_ @86
    _Z10expand_decP7rtx_defS0_ @87
    _Z10expand_fixP7rtx_defS0_i @88
    _Z10expand_incP7rtx_defS0_ @89
    _Z10expr_firstP9tree_node @90
    _Z10first_stmtP15basic_block_def @91
    _Z10fixed_hashPK11fixed_value @92
    _Z10fndecl_abiPK9tree_node @93
    _Z10fntype_abiPK9tree_node @94
    _Z10fold_rangeR6irangeP6gimpleP11range_query @95
    _Z10fold_rangeR6irangeP6gimpleP8edge_defP11range_query @96
    _Z10fold_rangeR6irangeP6gimpleS0_ @97
    _Z10fold_rangeR6irangeP6gimpleS0_S0_ @98
    _Z10fold_rangeR6irangeP6gimplejPS_ @99
    _Z10free_graphP5graph @100
    _Z10gcc_sort_rPvyyPFiPKvS1_S_ES_ @101
    _Z10gcov_closev @102
    _Z10gcov_magicjj @103
    _Z10gcov_writePKvj @104
    _Z10gen_absdf2P7rtx_defS0_ @105
    _Z10gen_absdi2P7rtx_defS0_ @106
    _Z10gen_abshf2P7rtx_defS0_ @107
    _Z10gen_abshi2P7rtx_defS0_ @108
    _Z10gen_absqi2P7rtx_defS0_ @109
    _Z10gen_abssf2P7rtx_defS0_ @110
    _Z10gen_abssi2P7rtx_defS0_ @111
    _Z10gen_abstf2P7rtx_defS0_ @112
    _Z10gen_absti2P7rtx_defS0_ @113
    _Z10gen_absxf2P7rtx_defS0_ @114
    _Z10gen_adddf3P7rtx_defS0_S0_ @115
    _Z10gen_adddi3P7rtx_defS0_S0_ @116
    _Z10gen_addhf3P7rtx_defS0_S0_ @117
    _Z10gen_addhi3P7rtx_defS0_S0_ @118
    _Z10gen_addqi3P7rtx_defS0_S0_ @119
    _Z10gen_addsf3P7rtx_defS0_S0_ @120
    _Z10gen_addsi3P7rtx_defS0_S0_ @121
    _Z10gen_addti3P7rtx_defS0_S0_ @122
    _Z10gen_addxf3P7rtx_defS0_S0_ @123
    _Z10gen_aesdecP7rtx_defS0_S0_ @124
    _Z10gen_aesencP7rtx_defS0_S0_ @125
    _Z10gen_aesimcP7rtx_defS0_ @126
    _Z10gen_anddf3P7rtx_defS0_S0_ @127
    _Z10gen_anddi3P7rtx_defS0_S0_ @128
    _Z10gen_andhi3P7rtx_defS0_S0_ @129
    _Z10gen_andqi3P7rtx_defS0_S0_ @130
    _Z10gen_andsf3P7rtx_defS0_S0_ @131
    _Z10gen_andsi3P7rtx_defS0_S0_ @132
    _Z10gen_andtf3P7rtx_defS0_S0_ @133
    _Z10gen_clzdi2P7rtx_defS0_ @134
    _Z10gen_clzsi2P7rtx_defS0_ @135
    _Z10gen_cosdf2P7rtx_defS0_ @136
    _Z10gen_cossf2P7rtx_defS0_ @137
    _Z10gen_cosxf2P7rtx_defS0_ @138
    _Z10gen_ctzdi2P7rtx_defS0_ @139
    _Z10gen_ctzsi2P7rtx_defS0_ @140
    _Z10gen_divdf3P7rtx_defS0_S0_ @141
    _Z10gen_divhf3P7rtx_defS0_S0_ @142
    _Z10gen_divsf3P7rtx_defS0_S0_ @143
    _Z10gen_divxf3P7rtx_defS0_S0_ @144
    _Z10gen_expdf2P7rtx_defS0_ @145
    _Z10gen_expsf2P7rtx_defS0_ @146
    _Z10gen_expxf2P7rtx_defS0_ @147
    _Z10gen_extvhiP7rtx_defS0_S0_S0_ @148
    _Z10gen_extvsiP7rtx_defS0_S0_S0_ @149
    _Z10gen_ffsdi2P7rtx_defS0_ @150
    _Z10gen_ffssi2P7rtx_defS0_ @151
    _Z10gen_fldenvP7rtx_def @152
    _Z10gen_fmadf4P7rtx_defS0_S0_S0_ @153
    _Z10gen_fmahf4P7rtx_defS0_S0_S0_ @154
    _Z10gen_fmasf4P7rtx_defS0_S0_S0_ @155
    _Z10gen_fmsdf4P7rtx_defS0_S0_S0_ @156
    _Z10gen_fmshf4P7rtx_defS0_S0_S0_ @157
    _Z10gen_fmssf4P7rtx_defS0_S0_S0_ @158
    _Z10gen_fnclexv @159
    _Z10gen_fnstswP7rtx_def @160
    _Z10gen_fxsaveP7rtx_def @161
    _Z10gen_hresetP7rtx_def @162
    _Z10gen_insvdiP7rtx_defS0_S0_S0_ @163
    _Z10gen_insvhiP7rtx_defS0_S0_S0_ @164
    _Z10gen_insvsiP7rtx_defS0_S0_S0_ @165
    _Z10gen_iordf3P7rtx_defS0_S0_ @166
    _Z10gen_iordi3P7rtx_defS0_S0_ @167
    _Z10gen_iorhi3P7rtx_defS0_S0_ @168
    _Z10gen_iorqi3P7rtx_defS0_S0_ @169
    _Z10gen_iorsf3P7rtx_defS0_S0_ @170
    _Z10gen_iorsi3P7rtx_defS0_S0_ @171
    _Z10gen_iortf3P7rtx_defS0_S0_ @172
    _Z10gen_kadddiP7rtx_defS0_S0_ @173
    _Z10gen_kaddhiP7rtx_defS0_S0_ @174
    _Z10gen_kaddqiP7rtx_defS0_S0_ @175
    _Z10gen_kaddsiP7rtx_defS0_S0_ @176
    _Z10gen_kanddiP7rtx_defS0_S0_ @177
    _Z10gen_kandhiP7rtx_defS0_S0_ @178
    _Z10gen_kandqiP7rtx_defS0_S0_ @179
    _Z10gen_kandsiP7rtx_defS0_S0_ @180
    _Z10gen_kiordiP7rtx_defS0_S0_ @181
    _Z10gen_kiorhiP7rtx_defS0_S0_ @182
    _Z10gen_kiorqiP7rtx_defS0_S0_ @183
    _Z10gen_kiorsiP7rtx_defS0_S0_ @184
    _Z10gen_knotdiP7rtx_defS0_ @185
    _Z10gen_knothiP7rtx_defS0_ @186
    _Z10gen_knotqiP7rtx_defS0_ @187
    _Z10gen_knotsiP7rtx_defS0_ @188
    _Z10gen_kxordiP7rtx_defS0_S0_ @189
    _Z10gen_kxorhiP7rtx_defS0_S0_ @190
    _Z10gen_kxorqiP7rtx_defS0_S0_ @191
    _Z10gen_kxorsiP7rtx_defS0_S0_ @192
    _Z10gen_logdf2P7rtx_defS0_ @193
    _Z10gen_logsf2P7rtx_defS0_ @194
    _Z10gen_logxf2P7rtx_defS0_ @195
    _Z10gen_movcdiP7rtx_defS0_ @196
    _Z10gen_muldf3P7rtx_defS0_S0_ @197
    _Z10gen_muldi3P7rtx_defS0_S0_ @198
    _Z10gen_mulhf3P7rtx_defS0_S0_ @199
    _Z10gen_mulhi3P7rtx_defS0_S0_ @200
    _Z10gen_mulqi3P7rtx_defS0_S0_ @201
    _Z10gen_mulsf3P7rtx_defS0_S0_ @202
    _Z10gen_mulsi3P7rtx_defS0_S0_ @203
    _Z10gen_mulxf3P7rtx_defS0_S0_ @204
    _Z10gen_mwaitxP7rtx_defS0_S0_ @205
    _Z10gen_negdf2P7rtx_defS0_ @206
    _Z10gen_negdi2P7rtx_defS0_ @207
    _Z10gen_neghf2P7rtx_defS0_ @208
    _Z10gen_neghi2P7rtx_defS0_ @209
    _Z10gen_negqi2P7rtx_defS0_ @210
    _Z10gen_negsf2P7rtx_defS0_ @211
    _Z10gen_negsi2P7rtx_defS0_ @212
    _Z10gen_negtf2P7rtx_defS0_ @213
    _Z10gen_negti2P7rtx_defS0_ @214
    _Z10gen_negxf2P7rtx_defS0_ @215
    _Z10gen_rcphf2P7rtx_defS0_ @216
    _Z10gen_rdpkruP7rtx_def @217
    _Z10gen_rdtscpP7rtx_defS0_ @218
    _Z10gen_returnv @219
    _Z10gen_sindf2P7rtx_defS0_ @220
    _Z10gen_sinsf2P7rtx_defS0_ @221
    _Z10gen_sinxf2P7rtx_defS0_ @222
    _Z10gen_strmovP7rtx_defS0_S0_S0_ @223
    _Z10gen_strsetP7rtx_defS0_S0_ @224
    _Z10gen_subdf3P7rtx_defS0_S0_ @225
    _Z10gen_subdi3P7rtx_defS0_S0_ @226
    _Z10gen_subhf3P7rtx_defS0_S0_ @227
    _Z10gen_subhi3P7rtx_defS0_S0_ @228
    _Z10gen_subqi3P7rtx_defS0_S0_ @229
    _Z10gen_subsf3P7rtx_defS0_S0_ @230
    _Z10gen_subsi3P7rtx_defS0_S0_ @231
    _Z10gen_subti3P7rtx_defS0_S0_ @232
    _Z10gen_subxf3P7rtx_defS0_S0_ @233
    _Z10gen_tandf2P7rtx_defS0_ @234
    _Z10gen_tansf2P7rtx_defS0_ @235
    _Z10gen_tanxf2P7rtx_defS0_ @236
    _Z10gen_testuiv @237
    _Z10gen_tpauseP7rtx_defS0_ @238
    _Z10gen_umwaitP7rtx_defS0_ @239
    _Z10gen_wbinvdv @240
    _Z10gen_wrpkruP7rtx_def @241
    _Z10gen_wrssdiP7rtx_defS0_ @242
    _Z10gen_wrsssiP7rtx_defS0_ @243
    _Z10gen_xabortP7rtx_def @244
    _Z10gen_xbeginP7rtx_def @245
    _Z10gen_xgetbvP7rtx_defS0_ @246
    _Z10gen_xordf3P7rtx_defS0_S0_ @247
    _Z10gen_xordi3P7rtx_defS0_S0_ @248
    _Z10gen_xorhi3P7rtx_defS0_S0_ @249
    _Z10gen_xorqi3P7rtx_defS0_S0_ @250
    _Z10gen_xorsf3P7rtx_defS0_S0_ @251
    _Z10gen_xorsi3P7rtx_defS0_S0_ @252
    _Z10gen_xortf3P7rtx_defS0_S0_ @253
    _Z10gen_xrstorP7rtx_defS0_ @254
    _Z10gen_xsavecP7rtx_defS0_ @255
    _Z10gen_xsavesP7rtx_defS0_ @256
    _Z10gen_xsetbvP7rtx_defS0_ @257
    _Z10get_AT_refP10die_struct15dwarf_attribute @258
    _Z10get_av_setP8rtx_insn @259
    _Z10get_btf_idy @260
    _Z10get_spacesPKc @261
    _Z10getbyterepP9tree_nodePy @262
    _Z10gsi_removeP20gimple_stmt_iteratorb @263
    _Z10gt_ggc_m_SPKv @264
    _Z10gt_pch_n_SPKv @265
    _Z10gt_pch_p_SPvS_PFvS_S_S_ES_ @266
    _Z10ht_destroyP2ht @267
    _Z10ilist_copyP10_list_node @268
    _Z10init_dep_1P4_depP8rtx_insnS2_8reg_notej @269
    _Z10init_finalPKc @270
    _Z10init_recogv @271
    _Z10init_ttreev @272
    _Z10insn_scopePK8rtx_insn @273
    _Z10ip_end_posP4loop @274
    _Z10is_tm_purePK9tree_node @275
    _Z10is_tm_safePK9tree_node @276
    _Z10iv_analyzeP8rtx_insn15scalar_int_modeP7rtx_defP6rtx_iv @277
    _Z10lang_GNU_Cv @278
    _Z10last_fieldPK9tree_node @279
    _Z10link_blockP15basic_block_defS0_ @280
    _Z10lra_assignRb @281
    _Z10lto_outputv @282
    _Z10make_rangeP9tree_nodePiPS0_S2_Pb @283
    _Z10may_trap_pPK7rtx_def @284
    _Z10merge_exprP5_exprS0_P8rtx_insn @285
    _Z10merge_weakP9tree_nodeS0_ @286
    _Z10multiple_pILj1E16generic_wide_intI22fixed_wide_int_storageILi128EEES0_IN2wi13extended_treeILi128EEEEEN10if_nonpolyIT1_bXsr15poly_int_traitsIS9_E7is_polyEE4typeERK12poly_int_podIXT_ET0_ES9_ @287
    _Z10multiple_pILj1ExixEN10if_nonpolyIT1_bXsr15poly_int_traitsIS1_E7is_polyEE4typeERK12poly_int_podIXT_ET0_ES1_PS6_IXT_ET2_E @288
    _Z10multiple_pILj1ExjEN10if_nonpolyIT1_bXsr15poly_int_traitsIS1_E7is_polyEE4typeERK12poly_int_podIXT_ET0_ES1_ @289
    _Z10negate_rtx12machine_modeP7rtx_def @290
    _Z10num_digitsi @291
    _Z10omp_max_vfv @292
    _Z10onlyjump_pPK8rtx_insn @293
    _Z10output_cfiP11dw_cfi_nodeP11dw_fde_nodei @294
    _Z10post_errorPKci @295
    _Z10pp_end_urlP14pretty_printer @296
    _Z10pp_newlineP14pretty_printer @297
    _Z10print_decsRK16generic_wide_intI20wide_int_ref_storageILb0ELb1EEEP6_iobuf @298
    _Z10print_decsRK16generic_wide_intI20wide_int_ref_storageILb0ELb1EEEPc @299
    _Z10print_decuRK16generic_wide_intI20wide_int_ref_storageILb0ELb1EEEP6_iobuf @300
    _Z10print_decuRK16generic_wide_intI20wide_int_ref_storageILb0ELb1EEEPc @301
    _Z10print_edgeP6_iobufPK8edge_def @302
    _Z10print_helpP11gcc_optionsjPKc @303
    _Z10print_insnP14pretty_printerPK8rtx_insni @304
    _Z10print_nodeP6_iobufPKcP9tree_nodeib @305
    _Z10print_pdrsP6_iobufP7poly_bb @306
    _Z10print_sccsP6_iobufP12ddg_all_sccsP3ddg @307
    _Z10print_scopP6_iobufP4scop @308
    _Z10print_seseP6_iobufRK6sese_l @309
    _Z10print_timePKcl @310
    _Z10push_blockP7rtx_def8poly_intILj1ExEi @311
    _Z10range_castR6irangeP9tree_node @312
    _Z10range_zeroP9tree_node @313
    _Z10real_2expNP10real_valuei13format_helper @314
    _Z10real_equalPK10real_valueS1_ @315
    _Z10real_floorP10real_value13format_helperPKS_ @316
    _Z10real_isinfPK10real_value @317
    _Z10real_isnanPK10real_value @318
    _Z10real_isnegPK10real_value @319
    _Z10real_ldexpP10real_valuePKS_i @320
    _Z10real_roundP10real_value13format_helperPKS_ @321
    _Z10real_truncP10real_value13format_helperPKS_ @322
    _Z10real_zeropPK9tree_node @323
    _Z10recog_initv @324
    _Z10remap_declP9tree_nodeP14copy_body_data @325
    _Z10remap_typeP9tree_nodeP14copy_body_data @326
    _Z10run_rpo_vn14vn_lookup_kind @327
    _Z10scev_resetv @328
    _Z10sched_initv @329
    _Z10sd_add_depP4_depb @330
    _Z10seen_errorv @331
    _Z10sel_bb_endP15basic_block_def @332
    _Z10set_noop_pPK7rtx_def @333
    _Z10set_optionP11gcc_optionsS0_ixPKcijP18diagnostic_contextx @334
    _Z10sign_bit_pP9tree_nodePKS_ @335
    _Z10single_setPK8rtx_insn @336
    _Z10split_edgeP8edge_def @337
    _Z10state_sizev @338
    _Z10store_exprP9tree_nodeP7rtx_defibb @339
    _Z10subreg_lsbPK7rtx_def @340
    _Z10tree_blockP9tree_node @341
    _Z10try_casesiP9tree_nodeS0_S0_S0_P7rtx_defS2_S2_19profile_probability @342
    _Z10tsi_delinkP18tree_stmt_iterator @343
    _Z10union_defsP8df_ref_dP9web_entryPjS2_PFbP14web_entry_baseS5_E @344
    _Z10update_ssaj @345
    _Z10vec_memberPK9tree_nodeP3vecIPS_5va_gc8vl_embedE @346
    _Z10verify_dieP10die_struct @347
    _Z10verify_ssabb @348
    _Z10vinsn_copyP9vinsn_defb @349
    _Z10warning_atP13rich_locationiPKcz @350
    _Z10warning_atjiPKcz @351
    _Z11AT_unsignedP14dw_attr_struct @352
    _Z11HONOR_SNANS12machine_mode @353
    _Z11HONOR_SNANSPK7rtx_def @354
    _Z11HONOR_SNANSPK9tree_node @355
    _Z11_fatal_insnPKcPK7rtx_defS0_iS0_ @356
    _Z11add_phi_argP4gphiP9tree_nodeP8edge_defj @357
    _Z11alloc_blockv @358
    _Z11ao_ref_baseP6ao_ref @359
    _Z11ao_ref_initP6ao_refP9tree_node @360
    _Z11app_disablev @361
    _Z11asan_mark_pP6gimple15asan_mark_flags @362
    _Z11asm_fprintfP6_iobufPKcz @363
    _Z11assign_tempP9tree_nodeii @364
    _Z11av_set_copyP10_list_node @365
    _Z11bitmap_copyP11bitmap_headPKS_ @366
    _Z11bitmap_copyP17simple_bitmap_defPKS_ @367
    _Z11bitmap_hashPK11bitmap_head @368
    _Z11bitmap_moveP11bitmap_headS0_ @369
    _Z11bitmap_onesP17simple_bitmap_def @370
    _Z11block_labelP15basic_block_def @371
    _Z11branch_probb @372
    _Z11build_blockP9tree_nodeS0_S0_S0_ @373
    _Z11build_fixedP9tree_node11fixed_value @374
    _Z11build_scopsP3vecIP4scop7va_heap6vl_ptrE @375
    _Z11can_float_p12machine_modeS_i @376
    _Z11cfa_equal_pPK15dw_cfa_locationS1_ @377
    _Z11chain_indexiP9tree_node @378
    _Z11chrec_applyjP9tree_nodeS0_ @379
    _Z11chrec_mergeP9tree_nodeS0_ @380
    _Z11cleanup_cfgi @381
    _Z11compute_idfP11bitmap_headS0_ @382
    _Z11concat_nameP9tree_nodePKc @383
    _Z11const_binop9tree_codeP9tree_nodeS1_S1_ @384
    _Z11copy_insn_1P7rtx_def @385
    _Z11copy_to_regP7rtx_def @386
    _Z11copy_tree_rPP9tree_nodePiPv @387
    _Z11cpp_definedP10cpp_readerPKhi @388
    _Z11cpp_destroyP10cpp_reader @389
    _Z11cpp_get_dirP9_cpp_file @390
    _Z11cpp_warningP10cpp_reader18cpp_warning_reasonPKcz @391
    _Z11cpp_wcwidthj @392
    _Z11cselib_initi @393
    _Z11ctf_add_souP13ctf_containerjPKcjyP10die_struct @394
    _Z11ctor_to_vecP9tree_node @395
    _Z11dbxout_symsP9tree_node @396
    _Z11debug_blistP10_list_node @397
    _Z11debug_dwarfv @398
    _Z11debug_ilistP10_list_node @399
    _Z11debug_loopsi @400
    _Z11debug_vinsnP9vinsn_def @401
    _Z11delete_insnP8rtx_insn @402
    _Z11delete_loopP4loop @403
    _Z11df_dump_topP15basic_block_defP6_iobuf @404
    _Z11df_find_defP8rtx_insnP7rtx_def @405
    _Z11df_find_useP8rtx_insnP7rtx_def @406
    _Z11df_reg_usedP8rtx_insnP7rtx_def @407
    _Z11do_mpc_arg2P9tree_nodeS0_S0_iPFiP12__mpc_structPKS1_S4_iE @408
    _Z11do_valueizePFP9tree_nodeS0_ES0_ @409
    _Z11dump_av_setP10_list_node @410
    _Z11dump_bitmapP6_iobufPK17simple_bitmap_def @411
    _Z11dump_chainsP6_iobufRK3vecIP5chain7va_heap6vl_ptrE @412
    _Z11dump_expr_1P5_expri @413
    _Z11dump_groupsP6_iobufP11ivopts_data @414
    _Z11dump_insn_1P8rtx_insni @415
    _Z11dump_lv_setP11bitmap_head @416
    _Z11dump_passesv @417
    _Z11dump_printfRK15dump_metadata_tPKcz @418
    _Z11dump_rangerP6_iobuf @419
    _Z11dump_rangerP6_iobufRK3vecIP15basic_block_def7va_heap6vl_ptrE @420
    _Z11dump_regsetP11bitmap_headP6_iobuf @421
    _Z11dump_stringP9dump_infoPKc @422
    _Z11emit_cstoreP7rtx_def9insn_code8rtx_code12machine_modeS3_iS0_S0_iS3_ @423
    _Z11enable_passPKc @424
    _Z11exp_equiv_pPK7rtx_defS1_ib @425
    _Z11expand_callP9tree_nodeP7rtx_defi @426
    _Z11expand_caseP7gswitch @427
    _Z11expand_insn9insn_codejP14expand_operand @428
    _Z11expand_mult12machine_modeP7rtx_defS1_S1_ib @429
    _Z11expand_unop12machine_mode9optab_tagP7rtx_defS2_i @430
    _Z11expr_singleP9tree_node @431
    _Z11extend_rgnsPiS_P17simple_bitmap_defS_ @432
    _Z11fancy_abortPKciS0_ @433
    _Z11fatal_errorjPKcz @434
    _Z11first_fieldPK9tree_node @435
    _Z11fixed_isnegPK11fixed_value @436
    _Z11fixed_zeropPK9tree_node @437
    _Z11flist_clearPP10_list_node @438
    _Z11fndecl_nameP9tree_node @439
    _Z11fprint_whexP6_iobufy @440
    _Z11free_rpo_vnv @441
    _Z11gate_hwasanv @442
    _Z11gen_acosdf2P7rtx_defS0_ @443
    _Z11gen_acossf2P7rtx_defS0_ @444
    _Z11gen_acosxf2P7rtx_defS0_ @445
    _Z11gen_adddiccP7rtx_defS0_S0_S0_ @446
    _Z11gen_addhiccP7rtx_defS0_S0_S0_ @447
    _Z11gen_addqiccP7rtx_defS0_S0_S0_ @448
    _Z11gen_addsiccP7rtx_defS0_S0_S0_ @449
    _Z11gen_addvdi4P7rtx_defS0_S0_S0_ @450
    _Z11gen_addvhi4P7rtx_defS0_S0_S0_ @451
    _Z11gen_addvqi4P7rtx_defS0_S0_S0_ @452
    _Z11gen_addvsi4P7rtx_defS0_S0_S0_ @453
    _Z11gen_addvti4P7rtx_defS0_S0_S0_ @454
    _Z11gen_ashldi3P7rtx_defS0_S0_ @455
    _Z11gen_ashlhi3P7rtx_defS0_S0_ @456
    _Z11gen_ashlqi3P7rtx_defS0_S0_ @457
    _Z11gen_ashlsi3P7rtx_defS0_S0_ @458
    _Z11gen_ashlti3P7rtx_defS0_S0_ @459
    _Z11gen_ashrdi3P7rtx_defS0_S0_ @460
    _Z11gen_ashrhi3P7rtx_defS0_S0_ @461
    _Z11gen_ashrqi3P7rtx_defS0_S0_ @462
    _Z11gen_ashrsi3P7rtx_defS0_S0_ @463
    _Z11gen_ashrti3P7rtx_defS0_S0_ @464
    _Z11gen_asindf2P7rtx_defS0_ @465
    _Z11gen_asinsf2P7rtx_defS0_ @466
    _Z11gen_asinxf2P7rtx_defS0_ @467
    _Z11gen_atandf2P7rtx_defS0_ @468
    _Z11gen_atansf2P7rtx_defS0_ @469
    _Z11gen_atanxf2P7rtx_defS0_ @470
    _Z11gen_ceildf2P7rtx_defS0_ @471
    _Z11gen_ceilhf2P7rtx_defS0_ @472
    _Z11gen_ceilsf2P7rtx_defS0_ @473
    _Z11gen_ceilxf2P7rtx_defS0_ @474
    _Z11gen_clobberP7rtx_def @475
    _Z11gen_cmpdi_1P7rtx_defS0_ @476
    _Z11gen_cmpsi_1P7rtx_defS0_ @477
    _Z11gen_coshdf2P7rtx_defS0_ @478
    _Z11gen_coshsf2P7rtx_defS0_ @479
    _Z11gen_coshxf2P7rtx_defS0_ @480
    _Z11gen_exp2df2P7rtx_defS0_ @481
    _Z11gen_exp2sf2P7rtx_defS0_ @482
    _Z11gen_exp2xf2P7rtx_defS0_ @483
    _Z11gen_extzvdiP7rtx_defS0_S0_S0_ @484
    _Z11gen_extzvhiP7rtx_defS0_S0_S0_ @485
    _Z11gen_extzvsiP7rtx_defS0_S0_S0_ @486
    _Z11gen_fmoddf3P7rtx_defS0_S0_ @487
    _Z11gen_fmodsf3P7rtx_defS0_S0_ @488
    _Z11gen_fmodxf3P7rtx_defS0_S0_ @489
    _Z11gen_fnmadf4P7rtx_defS0_S0_S0_ @490
    _Z11gen_fnmahf4P7rtx_defS0_S0_S0_ @491
    _Z11gen_fnmasf4P7rtx_defS0_S0_S0_ @492
    _Z11gen_fnmsdf4P7rtx_defS0_S0_S0_ @493
    _Z11gen_fnmshf4P7rtx_defS0_S0_S0_ @494
    _Z11gen_fnmssf4P7rtx_defS0_S0_S0_ @495
    _Z11gen_fnstenvP7rtx_def @496
    _Z11gen_fxrstorP7rtx_def @497
    _Z11gen_kandndiP7rtx_defS0_S0_ @498
    _Z11gen_kandnhiP7rtx_defS0_S0_ @499
    _Z11gen_kandnqiP7rtx_defS0_S0_ @500
    _Z11gen_kandnsiP7rtx_defS0_S0_ @501
    _Z11gen_ktestdiP7rtx_defS0_ @502
    _Z11gen_ktesthiP7rtx_defS0_ @503
    _Z11gen_ktestqiP7rtx_defS0_ @504
    _Z11gen_ktestsiP7rtx_defS0_ @505
    _Z11gen_kxnordiP7rtx_defS0_S0_ @506
    _Z11gen_kxnorhiP7rtx_defS0_S0_ @507
    _Z11gen_kxnorqiP7rtx_defS0_S0_ @508
    _Z11gen_kxnorsiP7rtx_defS0_S0_ @509
    _Z11gen_log2df2P7rtx_defS0_ @510
    _Z11gen_log2sf2P7rtx_defS0_ @511
    _Z11gen_log2xf2P7rtx_defS0_ @512
    _Z11gen_logbdf2P7rtx_defS0_ @513
    _Z11gen_logbsf2P7rtx_defS0_ @514
    _Z11gen_logbxf2P7rtx_defS0_ @515
    _Z11gen_lshrdi3P7rtx_defS0_S0_ @516
    _Z11gen_lshrhi3P7rtx_defS0_S0_ @517
    _Z11gen_lshrqi3P7rtx_defS0_S0_ @518
    _Z11gen_lshrsi3P7rtx_defS0_S0_ @519
    _Z11gen_lshrti3P7rtx_defS0_S0_ @520
    _Z11gen_movdfccP7rtx_defS0_S0_S0_ @521
    _Z11gen_movdiccP7rtx_defS0_S0_S0_ @522
    _Z11gen_movhfccP7rtx_defS0_S0_S0_ @523
    _Z11gen_movhiccP7rtx_defS0_S0_S0_ @524
    _Z11gen_movp2hiP7rtx_defS0_ @525
    _Z11gen_movp2qiP7rtx_defS0_ @526
    _Z11gen_movqiccP7rtx_defS0_S0_S0_ @527
    _Z11gen_movsfccP7rtx_defS0_S0_S0_ @528
    _Z11gen_movsiccP7rtx_defS0_S0_S0_ @529
    _Z11gen_movv1diP7rtx_defS0_ @530
    _Z11gen_movv1siP7rtx_defS0_ @531
    _Z11gen_movv1tiP7rtx_defS0_ @532
    _Z11gen_movv2dfP7rtx_defS0_ @533
    _Z11gen_movv2diP7rtx_defS0_ @534
    _Z11gen_movv2hfP7rtx_defS0_ @535
    _Z11gen_movv2hiP7rtx_defS0_ @536
    _Z11gen_movv2qiP7rtx_defS0_ @537
    _Z11gen_movv2sfP7rtx_defS0_ @538
    _Z11gen_movv2siP7rtx_defS0_ @539
    _Z11gen_movv2tiP7rtx_defS0_ @540
    _Z11gen_movv4dfP7rtx_defS0_ @541
    _Z11gen_movv4diP7rtx_defS0_ @542
    _Z11gen_movv4hfP7rtx_defS0_ @543
    _Z11gen_movv4hiP7rtx_defS0_ @544
    _Z11gen_movv4qiP7rtx_defS0_ @545
    _Z11gen_movv4sfP7rtx_defS0_ @546
    _Z11gen_movv4siP7rtx_defS0_ @547
    _Z11gen_movv4tiP7rtx_defS0_ @548
    _Z11gen_movv8dfP7rtx_defS0_ @549
    _Z11gen_movv8diP7rtx_defS0_ @550
    _Z11gen_movv8hfP7rtx_defS0_ @551
    _Z11gen_movv8hiP7rtx_defS0_ @552
    _Z11gen_movv8qiP7rtx_defS0_ @553
    _Z11gen_movv8sfP7rtx_defS0_ @554
    _Z11gen_movv8siP7rtx_defS0_ @555
    _Z11gen_movxfccP7rtx_defS0_S0_S0_ @556
    _Z11gen_mulvdi4P7rtx_defS0_S0_S0_ @557
    _Z11gen_mulvhi4P7rtx_defS0_S0_S0_ @558
    _Z11gen_mulvqi4P7rtx_defS0_S0_S0_ @559
    _Z11gen_mulvsi4P7rtx_defS0_S0_S0_ @560
    _Z11gen_negvdi3P7rtx_defS0_S0_ @561
    _Z11gen_negvhi3P7rtx_defS0_S0_ @562
    _Z11gen_negvqi3P7rtx_defS0_S0_ @563
    _Z11gen_negvsi3P7rtx_defS0_S0_ @564
    _Z11gen_raw_REG12machine_modej @565
    _Z11gen_rdsspdiP7rtx_defS0_ @566
    _Z11gen_rdsspsiP7rtx_defS0_ @567
    _Z11gen_reg_rtx12machine_mode @568
    _Z11gen_rep_movP7rtx_defS0_S0_S0_S0_S0_S0_ @569
    _Z11gen_rintdf2P7rtx_defS0_ @570
    _Z11gen_rinthf2P7rtx_defS0_ @571
    _Z11gen_rintsf2P7rtx_defS0_ @572
    _Z11gen_rintxf2P7rtx_defS0_ @573
    _Z11gen_rotldi3P7rtx_defS0_S0_ @574
    _Z11gen_rotlhi3P7rtx_defS0_S0_ @575
    _Z11gen_rotlqi3P7rtx_defS0_S0_ @576
    _Z11gen_rotlsi3P7rtx_defS0_S0_ @577
    _Z11gen_rotlti3P7rtx_defS0_S0_ @578
    _Z11gen_rotrdi3P7rtx_defS0_S0_ @579
    _Z11gen_rotrhi3P7rtx_defS0_S0_ @580
    _Z11gen_rotrqi3P7rtx_defS0_S0_ @581
    _Z11gen_rotrsi3P7rtx_defS0_S0_ @582
    _Z11gen_rotrti3P7rtx_defS0_S0_ @583
    _Z11gen_rtvec_viPP7rtx_def @584
    _Z11gen_rtvec_viPP8rtx_insn @585
    _Z11gen_rtx_MEM12machine_modeP7rtx_def @586
    _Z11gen_rtx_REG12machine_modej @587
    _Z11gen_set_gotP7rtx_def @588
    _Z11gen_sibcallP7rtx_defS0_S0_ @589
    _Z11gen_sinhdf2P7rtx_defS0_ @590
    _Z11gen_sinhsf2P7rtx_defS0_ @591
    _Z11gen_sinhxf2P7rtx_defS0_ @592
    _Z11gen_smaxdf3P7rtx_defS0_S0_ @593
    _Z11gen_smaxdi3P7rtx_defS0_S0_ @594
    _Z11gen_smaxhf3P7rtx_defS0_S0_ @595
    _Z11gen_smaxhi3P7rtx_defS0_S0_ @596
    _Z11gen_smaxqi3P7rtx_defS0_S0_ @597
    _Z11gen_smaxsf3P7rtx_defS0_S0_ @598
    _Z11gen_smaxsi3P7rtx_defS0_S0_ @599
    _Z11gen_smaxti3P7rtx_defS0_S0_ @600
    _Z11gen_smindf3P7rtx_defS0_S0_ @601
    _Z11gen_smindi3P7rtx_defS0_S0_ @602
    _Z11gen_sminhf3P7rtx_defS0_S0_ @603
    _Z11gen_sminhi3P7rtx_defS0_S0_ @604
    _Z11gen_sminqi3P7rtx_defS0_S0_ @605
    _Z11gen_sminsf3P7rtx_defS0_S0_ @606
    _Z11gen_sminsi3P7rtx_defS0_S0_ @607
    _Z11gen_sminti3P7rtx_defS0_S0_ @608
    _Z11gen_split_1P8rtx_insnPP7rtx_def @609
    _Z11gen_split_2P8rtx_insnPP7rtx_def @610
    _Z11gen_split_3P8rtx_insnPP7rtx_def @611
    _Z11gen_split_4P8rtx_insnPP7rtx_def @612
    _Z11gen_split_5P8rtx_insnPP7rtx_def @613
    _Z11gen_split_6P8rtx_insnPP7rtx_def @614
    _Z11gen_split_7P8rtx_insnPP7rtx_def @615
    _Z11gen_split_8P8rtx_insnPP7rtx_def @616
    _Z11gen_split_9P8rtx_insnPP7rtx_def @617
    _Z11gen_sqrtdf2P7rtx_defS0_ @618
    _Z11gen_sqrthf2P7rtx_defS0_ @619
    _Z11gen_sqrtsf2P7rtx_defS0_ @620
    _Z11gen_sqrtxf2P7rtx_defS0_ @621
    _Z11gen_subvdi4P7rtx_defS0_S0_S0_ @622
    _Z11gen_subvhi4P7rtx_defS0_S0_S0_ @623
    _Z11gen_subvqi4P7rtx_defS0_S0_S0_ @624
    _Z11gen_subvsi4P7rtx_defS0_S0_S0_ @625
    _Z11gen_subvti4P7rtx_defS0_S0_S0_ @626
    _Z11gen_tanhdf2P7rtx_defS0_ @627
    _Z11gen_tanhsf2P7rtx_defS0_ @628
    _Z11gen_tanhxf2P7rtx_defS0_ @629
    _Z11gen_umaxdi3P7rtx_defS0_S0_ @630
    _Z11gen_umaxhi3P7rtx_defS0_S0_ @631
    _Z11gen_umaxqi3P7rtx_defS0_S0_ @632
    _Z11gen_umaxsi3P7rtx_defS0_S0_ @633
    _Z11gen_umaxti3P7rtx_defS0_S0_ @634
    _Z11gen_umindi3P7rtx_defS0_S0_ @635
    _Z11gen_uminhi3P7rtx_defS0_S0_ @636
    _Z11gen_uminqi3P7rtx_defS0_S0_ @637
    _Z11gen_uminsi3P7rtx_defS0_S0_ @638
    _Z11gen_uminti3P7rtx_defS0_S0_ @639
    _Z11gen_wrussdiP7rtx_defS0_ @640
    _Z11gen_wrusssiP7rtx_defS0_ @641
    _Z11gen_xrstorsP7rtx_defS0_ @642
    _Z11gen_xsave64P7rtx_defS0_S0_ @643
    _Z11gen_xtest_1v @644
    _Z11get_AT_fileP10die_struct15dwarf_attribute @645
    _Z11get_AT_flagP10die_struct15dwarf_attribute @646
    _Z11get_attr_sdP8rtx_insn @647
    _Z11get_bb_copyP15basic_block_def @648
    _Z11get_sectionPKcjP9tree_nodeb @649
    _Z11get_src_pwdv @650
    _Z11ggc_collect11ggc_collect @651
    _Z11ggc_reallocPvy @652
    _Z11gimple_bodyP9tree_node @653
    _Z11gimple_copyP6gimple @654
    _Z11gimple_initP6gimple11gimple_codej @655
    _Z11gimple_size11gimple_codej @656
    _Z11gnat_to_gnui @657
    _Z11graphds_dfsP5graphPiiP3vecIi7va_heap6vl_ptrEbP11bitmap_headPFbP10graph_edgeE @658
    _Z11graphds_sccP5graphP11bitmap_headPFbP10graph_edgeE @659
    _Z11gsi_for_phiP4gphi @660
    _Z11gsi_replaceP20gimple_stmt_iteratorP6gimpleb @661
    _Z11gt_pch_saveP6_iobuf @662
    _Z11has_VN_INFOP9tree_node @663
    _Z11hash_rtx_cbPK7rtx_def12machine_modePiS3_bPFiS1_S2_PPS_PS2_E @664
    _Z11ignore_bb_pPK15basic_block_def @665
    _Z11init_expmedv @666
    _Z11init_fencesP8rtx_insn @667
    _Z11init_optabsv @668
    _Z11init_reloadv @669
    _Z11inline_callP11cgraph_edgebP3vecIS0_7va_heap6vl_ptrEPibPb @670
    _Z11invert_jumpP13rtx_jump_insnP7rtx_defi @671
    _Z11ira_destroyv @672
    _Z11jumpifnot_19tree_codeP9tree_nodeS1_P14rtx_code_label19profile_probability @673
    _Z11layout_declP9tree_nodej @674
    _Z11layout_typeP9tree_node @675
    _Z11linemap_addP9line_maps9lc_reasonjPKcj @676
    _Z11list_lengthPK9tree_node @677
    _Z11lto_init_ehv @678
    _Z11make_vectorjj @679
    _Z11mangle_pathPKc @680
    _Z11max_reg_numv @681
    _Z11may_alias_pPK7rtx_defS1_ @682
    _Z11new_die_raw9dwarf_tag @683
    _Z11new_poly_bbP4scopP14gimple_poly_bb @684
    _Z11new_poly_drP7poly_bbP6gimple12poly_dr_typeP7isl_mapP7isl_set @685
    _Z11noop_move_pPK8rtx_insn @686
    _Z11note_storesPK8rtx_insnPFvP7rtx_defPKS2_PvES6_ @687
    _Z11option_nameP18diagnostic_contexti12diagnostic_tS1_ @688
    _Z11opts_concatPKcz @689
    _Z11place_fieldP20record_layout_info_sP9tree_node @690
    _Z11pop_operandP7rtx_def12machine_mode @691
    _Z11pos_mul_hwixx @692
    _Z11pp_verbatimP14pretty_printerPKcz @693
    _Z11print_loopsP6_iobufi @694
    _Z11print_valueP14pretty_printerPK7rtx_defi @695
    _Z11produce_asmP12output_blockP9tree_node @696
    _Z11prototype_pPK9tree_node @697
    _Z11push_reloadP7rtx_defS0_PS0_S1_9reg_class12machine_modeS3_iii11reload_type @698
    _Z11real_maxvalP10real_valuei12machine_mode @699
    _Z11record_varsP9tree_node @700
    _Z11reinit_regsv @701
    _Z11remove_edgeP8edge_def @702
    _Z11remove_insnP8rtx_insn @703
    _Z11remove_noteP8rtx_insnPK7rtx_def @704
    _Z11remove_pathP8edge_defPbP11bitmap_head @705
    _Z11replace_expP17ssa_use_operand_tP9tree_node @706
    _Z11replace_rtxP7rtx_defS0_S0_b @707
    _Z11rtvec_allocy @708
    _Z11rtx_equal_pPK7rtx_defS1_ @709
    _Z11safe_from_pPK7rtx_defP9tree_nodei @710
    _Z11sel_bb_headP15basic_block_def @711
    _Z11set_bb_copyP15basic_block_defS0_ @712
    _Z11set_src_pwdPKc @713
    _Z11single_exitPK4loop @714
    _Z11split_blockP15basic_block_defP6gimple @715
    _Z11split_blockP15basic_block_defP7rtx_def @716
    _Z11split_constP7rtx_defPS0_S1_ @717
    _Z11split_insnsP7rtx_defP8rtx_insn @718
    _Z11state_resetPv @719
    _Z11tablejump_pPK8rtx_insnPPS_PP19rtx_jump_table_data @720
    _Z11true_regnumPK7rtx_def @721
    _Z11verify_seseP15basic_block_defS0_P3vecIS0_7va_heap6vl_ptrE @722
    _Z11verify_typePK9tree_node @723
    _Z11verify_vssaP15basic_block_defP9tree_nodeP17simple_bitmap_def @724
    _Z11walk_tree_1PP9tree_nodePFS0_S1_PiPvES3_P8hash_setIS0_Lb0E19default_hash_traitsIS0_EEPFS0_S1_S2_S5_S3_SA_E @725
    _Z11weak_finishv @726
    _Z11write_langsj @727
    _Z12add_clobbersP7rtx_defi @728
    _Z12add_reg_noteP7rtx_def8reg_noteS0_ @729
    _Z12address_costP7rtx_def12machine_modehb @730
    _Z12adjust_stackP7rtx_def @731
    _Z12alter_subregPP7rtx_defb @732
    _Z12assemble_asmP9tree_node @733
    _Z12av_set_clearPP10_list_node @734
    _Z12base_of_pathPKcPS0_ @735
    _Z12bit_from_posP9tree_nodeS0_ @736
    _Z12bit_positionPK9tree_node @737
    _Z12bitmap_allocP14bitmap_obstack @738
    _Z12bitmap_bit_pPK11bitmap_headi @739
    _Z12bitmap_clearP11bitmap_head @740
    _Z12bitmap_clearP17simple_bitmap_def @741
    _Z12bitmap_printP6_iobufPK11bitmap_headPKcS5_ @742
    _Z12blist_removePP10_list_node @743
    _Z12btf_finalizev @744
    _Z12build_assign9tree_codeP6gimpleP9tree_nodeS3_ @745
    _Z12build_assign9tree_codeP6gimpleS1_P9tree_node @746
    _Z12build_assign9tree_codeP6gimpleiP9tree_node @747
    _Z12build_assign9tree_codeP9tree_nodeP6gimpleS1_ @748
    _Z12build_assign9tree_codeP9tree_nodeS1_S1_ @749
    _Z12build_assign9tree_codeP9tree_nodeiS1_ @750
    _Z12build_stringjPKc @751
    _Z12build_vl_exp9tree_codei @752
    _Z12can_extend_p12machine_modeS_i @753
    _Z12can_fallthruP15basic_block_defS0_ @754
    _Z12carries_depsP13isl_union_mapS0_i @755
    _Z12chain_memberPK9tree_nodeS1_ @756
    _Z12check_accessP9tree_nodeS0_S0_S0_S0_11access_modePK11access_data @757
    _Z12compute_liveP8rtx_insn @758
    _Z12convert_moveP7rtx_defS0_i @759
    _Z12copy_warningIP6gimplePK9tree_nodeEvT_T0_ @760
    _Z12copy_warningIP6gimplePKS0_EvT_T0_ @761
    _Z12copy_warningIP9tree_nodePK6gimpleEvT_T0_ @762
    _Z12copy_warningIP9tree_nodePKS0_EvT_T0_ @763
    _Z12copy_warningP6gimplePK9tree_node @764
    _Z12copy_warningP6gimplePKS_ @765
    _Z12copy_warningP9tree_nodePK6gimple @766
    _Z12copy_warningP9tree_nodePKS_ @767
    _Z12copy_warningjj @768
    _Z12cpp_error_atP10cpp_reader20cpp_diagnostic_levelP13rich_locationPKcz @769
    _Z12cpp_error_atP10cpp_reader20cpp_diagnostic_leveljPKcz @770
    _Z12cpp_get_dateP10cpp_readerPx @771
    _Z12cpp_get_depsP10cpp_reader @772
    _Z12cpp_get_fileP10cpp_buffer @773
    _Z12cpp_get_pathP9_cpp_file @774
    _Z12cpp_get_prevP10cpp_buffer @775
    _Z12cpp_includedP10cpp_readerPKc @776
    _Z12cpp_main_locPK10cpp_reader @777
    _Z12cpp_set_langP10cpp_reader6c_lang @778
    _Z12cpp_unassertP10cpp_readerPKc @779
    _Z12crc32_stringjPKc @780
    _Z12ctf_add_enumP13ctf_containerjPKcxP10die_struct @781
    _Z12ctf_finalizev @782
    _Z12dbxout_parmsP9tree_node @783
    _Z12dbxout_stabdii @784
    _Z12dconst_e_ptrv @785
    _Z12debug_av_setP10_list_node @786
    _Z12debug_bitmapPK11bitmap_head @787
    _Z12debug_bitmapPK17simple_bitmap_def @788
    _Z12debug_df_refP8df_ref_d @789
    _Z12debug_df_regP7rtx_def @790
    _Z12debug_helperIP15basic_block_defEvR3vecIT_5va_gc8vl_embedE @791
    _Z12debug_helperIP15basic_block_defEvR3vecIT_7va_heap6vl_ptrE @792
    _Z12debug_helperIP15basic_block_defEvR8hash_setIT_Lb0E19default_hash_traitsIS3_EE @793
    _Z12debug_helperIP7rtx_defEvR3vecIT_5va_gc8vl_embedE @794
    _Z12debug_helperIP7rtx_defEvR3vecIT_7va_heap6vl_ptrE @795
    _Z12debug_helperIP7rtx_defEvR8hash_setIT_Lb0E19default_hash_traitsIS3_EE @796
    _Z12debug_helperIP8edge_defEvR3vecIT_5va_gc8vl_embedE @797
    _Z12debug_helperIP8edge_defEvR3vecIT_7va_heap6vl_ptrE @798
    _Z12debug_helperIP8edge_defEvR8hash_setIT_Lb0E19default_hash_traitsIS3_EE @799
    _Z12debug_helperIP8rtx_insnEvR3vecIT_5va_gc8vl_embedE @800
    _Z12debug_helperIP8rtx_insnEvR3vecIT_7va_heap6vl_ptrE @801
    _Z12debug_helperIP8rtx_insnEvR8hash_setIT_Lb0E19default_hash_traitsIS3_EE @802
    _Z12debug_helperIP9tree_nodeEvR3vecIT_5va_gc8vl_embedE @803
    _Z12debug_helperIP9tree_nodeEvR3vecIT_7va_heap6vl_ptrE @804
    _Z12debug_helperIP9tree_nodeEvR8hash_setIT_Lb0E19default_hash_traitsIS3_EE @805
    _Z12debug_lv_setP11bitmap_head @806
    _Z12debug_rangerRK3vecIP15basic_block_def7va_heap6vl_ptrE @807
    _Z12debug_rangerv @808
    _Z12debug_regioni @809
    _Z12debug_regsetP11bitmap_head @810
    _Z12debug_reloadv @811
    _Z12debug_varmapv @812
    _Z12declare_varsP9tree_nodeP6gimpleb @813
    _Z12declare_weakP9tree_node @814
    _Z12def_list_addPP10_list_nodeP8rtx_insnj @815
    _Z12del_node_mapv @816
    _Z12deps_add_depP6mkdepsPKc @817
    _Z12deps_restoreP6mkdepsP6_iobufPKc @818
    _Z12df_bb_deletei @819
    _Z12df_ref_debugP8df_ref_dP6_iobuf @820
    _Z12df_set_flagsi @821
    _Z12disable_passPKc @822
    _Z12div_operatorP7rtx_def12machine_mode @823
    _Z12dot_all_seseP6_iobufR3vecI6sese_l7va_heap6vl_ptrE @824
    _Z12dot_slp_treePKcP9_slp_tree @825
    _Z12dr_alignmentP23innermost_loop_behavior @826
    _Z12ds_max_mergejj @827
    _Z12dump_bb_infoP6_iobufP15basic_block_defi9dump_flagbb @828
    _Z12dump_eh_treeP6_iobufP8function @829
    _Z12dump_iv_infoP6_iobufP6rtx_iv @830
    _Z12dump_pointerP9dump_infoPKcPv @831
    _Z12dump_var_mapP6_iobufP8_var_map @832
    _Z12dump_vinsn_1P9vinsn_defi @833
    _Z12element_modePK9tree_node @834
    _Z12emit_barrierv @835
    _Z12emit_clobberP7rtx_def @836
    _Z12empty_body_pP6gimple @837
    _Z12end_sequencev @838
    _Z12expand_binop12machine_mode9optab_tagP7rtx_defS2_S2_i13optab_methods @839
    _Z12expand_floatP7rtx_defS0_i @840
    _Z12expand_labelP9tree_node @841
    _Z12expand_shift9tree_code12machine_modeP7rtx_def8poly_intILj1ExES2_i @842
    _Z12expand_thunkP11cgraph_nodebb @843
    _Z12extract_insnP8rtx_insn @844
    _Z12find_reloadsP8rtx_insniiiPs @845
    _Z12fix_registerPKcii @846
    _Z12flist_lookupP10_list_nodeP8rtx_insn @847
    _Z12free_lv_setsv @848
    _Z12gate_lto_outv @849
    _Z12gen_absv2df2P7rtx_defS0_ @850
    _Z12gen_absv2di2P7rtx_defS0_ @851
    _Z12gen_absv2hi2P7rtx_defS0_ @852
    _Z12gen_absv2qi2P7rtx_defS0_ @853
    _Z12gen_absv2sf2P7rtx_defS0_ @854
    _Z12gen_absv2si2P7rtx_defS0_ @855
    _Z12gen_absv4df2P7rtx_defS0_ @856
    _Z12gen_absv4di2P7rtx_defS0_ @857
    _Z12gen_absv4hi2P7rtx_defS0_ @858
    _Z12gen_absv4qi2P7rtx_defS0_ @859
    _Z12gen_absv4sf2P7rtx_defS0_ @860
    _Z12gen_absv4si2P7rtx_defS0_ @861
    _Z12gen_absv8df2P7rtx_defS0_ @862
    _Z12gen_absv8di2P7rtx_defS0_ @863
    _Z12gen_absv8hf2P7rtx_defS0_ @864
    _Z12gen_absv8hi2P7rtx_defS0_ @865
    _Z12gen_absv8qi2P7rtx_defS0_ @866
    _Z12gen_absv8sf2P7rtx_defS0_ @867
    _Z12gen_absv8si2P7rtx_defS0_ @868
    _Z12gen_acoshdf2P7rtx_defS0_ @869
    _Z12gen_acoshsf2P7rtx_defS0_ @870
    _Z12gen_acoshxf2P7rtx_defS0_ @871
    _Z12gen_addv2df3P7rtx_defS0_S0_ @872
    _Z12gen_addv2di3P7rtx_defS0_S0_ @873
    _Z12gen_addv2hf3P7rtx_defS0_S0_ @874
    _Z12gen_addv2hi3P7rtx_defS0_S0_ @875
    _Z12gen_addv2qi3P7rtx_defS0_S0_ @876
    _Z12gen_addv2sf3P7rtx_defS0_S0_ @877
    _Z12gen_addv2si3P7rtx_defS0_S0_ @878
    _Z12gen_addv4df3P7rtx_defS0_S0_ @879
    _Z12gen_addv4di3P7rtx_defS0_S0_ @880
    _Z12gen_addv4hf3P7rtx_defS0_S0_ @881
    _Z12gen_addv4hi3P7rtx_defS0_S0_ @882
    _Z12gen_addv4qi3P7rtx_defS0_S0_ @883
    _Z12gen_addv4sf3P7rtx_defS0_S0_ @884
    _Z12gen_addv4si3P7rtx_defS0_S0_ @885
    _Z12gen_addv8df3P7rtx_defS0_S0_ @886
    _Z12gen_addv8di3P7rtx_defS0_S0_ @887
    _Z12gen_addv8hf3P7rtx_defS0_S0_ @888
    _Z12gen_addv8hi3P7rtx_defS0_S0_ @889
    _Z12gen_addv8qi3P7rtx_defS0_S0_ @890
    _Z12gen_addv8sf3P7rtx_defS0_S0_ @891
    _Z12gen_addv8si3P7rtx_defS0_S0_ @892
    _Z12gen_andv1ti3P7rtx_defS0_S0_ @893
    _Z12gen_andv2df3P7rtx_defS0_S0_ @894
    _Z12gen_andv2di3P7rtx_defS0_S0_ @895
    _Z12gen_andv2hi3P7rtx_defS0_S0_ @896
    _Z12gen_andv2qi3P7rtx_defS0_S0_ @897
    _Z12gen_andv2sf3P7rtx_defS0_S0_ @898
    _Z12gen_andv2si3P7rtx_defS0_S0_ @899
    _Z12gen_andv4df3P7rtx_defS0_S0_ @900
    _Z12gen_andv4di3P7rtx_defS0_S0_ @901
    _Z12gen_andv4hi3P7rtx_defS0_S0_ @902
    _Z12gen_andv4qi3P7rtx_defS0_S0_ @903
    _Z12gen_andv4sf3P7rtx_defS0_S0_ @904
    _Z12gen_andv4si3P7rtx_defS0_S0_ @905
    _Z12gen_andv8df3P7rtx_defS0_S0_ @906
    _Z12gen_andv8di3P7rtx_defS0_S0_ @907
    _Z12gen_andv8hf3P7rtx_defS0_S0_ @908
    _Z12gen_andv8hi3P7rtx_defS0_S0_ @909
    _Z12gen_andv8qi3P7rtx_defS0_S0_ @910
    _Z12gen_andv8sf3P7rtx_defS0_S0_ @911
    _Z12gen_andv8si3P7rtx_defS0_S0_ @912
    _Z12gen_asinhdf2P7rtx_defS0_ @913
    _Z12gen_asinhsf2P7rtx_defS0_ @914
    _Z12gen_asinhxf2P7rtx_defS0_ @915
    _Z12gen_atan2df3P7rtx_defS0_S0_ @916
    _Z12gen_atan2sf3P7rtx_defS0_S0_ @917
    _Z12gen_atan2xf3P7rtx_defS0_S0_ @918
    _Z12gen_atanhdf2P7rtx_defS0_ @919
    _Z12gen_atanhsf2P7rtx_defS0_ @920
    _Z12gen_atanhxf2P7rtx_defS0_ @921
    _Z12gen_blockagev @922
    _Z12gen_bswapdi2P7rtx_defS0_ @923
    _Z12gen_bswaphi2P7rtx_defS0_ @924
    _Z12gen_bswapsi2P7rtx_defS0_ @925
    _Z12gen_call_popP7rtx_defS0_S0_S0_ @926
    _Z12gen_cldemoteP7rtx_def @927
    _Z12gen_clrssbsyP7rtx_def @928
    _Z12gen_clzv2di2P7rtx_defS0_ @929
    _Z12gen_clzv4di2P7rtx_defS0_ @930
    _Z12gen_clzv4si2P7rtx_defS0_ @931
    _Z12gen_clzv8di2P7rtx_defS0_ @932
    _Z12gen_clzv8si2P7rtx_defS0_ @933
    _Z12gen_cmpintqiP7rtx_def @934
    _Z12gen_cmpmemsiP7rtx_defS0_S0_S0_S0_ @935
    _Z12gen_cpymemdiP7rtx_defS0_S0_S0_S0_S0_S0_S0_S0_ @936
    _Z12gen_cpymemsiP7rtx_defS0_S0_S0_S0_S0_S0_S0_S0_ @937
    _Z12gen_divv2df3P7rtx_defS0_S0_ @938
    _Z12gen_divv2hf3P7rtx_defS0_S0_ @939
    _Z12gen_divv2sf3P7rtx_defS0_S0_ @940
    _Z12gen_divv4df3P7rtx_defS0_S0_ @941
    _Z12gen_divv4hf3P7rtx_defS0_S0_ @942
    _Z12gen_divv4sf3P7rtx_defS0_S0_ @943
    _Z12gen_divv8df3P7rtx_defS0_S0_ @944
    _Z12gen_divv8hf3P7rtx_defS0_S0_ @945
    _Z12gen_divv8sf3P7rtx_defS0_S0_ @946
    _Z12gen_epiloguev @947
    _Z12gen_exp10df2P7rtx_defS0_ @948
    _Z12gen_exp10sf2P7rtx_defS0_ @949
    _Z12gen_exp10xf2P7rtx_defS0_ @950
    _Z12gen_expm1df2P7rtx_defS0_ @951
    _Z12gen_expm1sf2P7rtx_defS0_ @952
    _Z12gen_expm1xf2P7rtx_defS0_ @953
    _Z12gen_floordf2P7rtx_defS0_ @954
    _Z12gen_floorhf2P7rtx_defS0_ @955
    _Z12gen_floorsf2P7rtx_defS0_ @956
    _Z12gen_floorxf2P7rtx_defS0_ @957
    _Z12gen_fmav2df4P7rtx_defS0_S0_S0_ @958
    _Z12gen_fmav2sf4P7rtx_defS0_S0_S0_ @959
    _Z12gen_fmav4df4P7rtx_defS0_S0_S0_ @960
    _Z12gen_fmav4sf4P7rtx_defS0_S0_S0_ @961
    _Z12gen_fmav8df4P7rtx_defS0_S0_S0_ @962
    _Z12gen_fmav8hf4P7rtx_defS0_S0_S0_ @963
    _Z12gen_fmav8sf4P7rtx_defS0_S0_S0_ @964
    _Z12gen_fmsv2df4P7rtx_defS0_S0_S0_ @965
    _Z12gen_fmsv2sf4P7rtx_defS0_S0_S0_ @966
    _Z12gen_fmsv4df4P7rtx_defS0_S0_S0_ @967
    _Z12gen_fmsv4sf4P7rtx_defS0_S0_S0_ @968
    _Z12gen_fmsv8df4P7rtx_defS0_S0_S0_ @969
    _Z12gen_fmsv8hf4P7rtx_defS0_S0_S0_ @970
    _Z12gen_fmsv8sf4P7rtx_defS0_S0_S0_ @971
    _Z12gen_fxsave64P7rtx_def @972
    _Z12gen_highpart12machine_modeP7rtx_def @973
    _Z12gen_hypotdf3P7rtx_defS0_S0_ @974
    _Z12gen_hypotsf3P7rtx_defS0_S0_ @975
    _Z12gen_ilogbdf2P7rtx_defS0_ @976
    _Z12gen_ilogbsf2P7rtx_defS0_ @977
    _Z12gen_ilogbxf2P7rtx_defS0_ @978
    _Z12gen_incsspdiP7rtx_def @979
    _Z12gen_incsspsiP7rtx_def @980
    _Z12gen_insvdi_1P7rtx_defS0_ @981
    _Z12gen_insvhi_1P7rtx_defS0_ @982
    _Z12gen_insvsi_1P7rtx_defS0_ @983
    _Z12gen_int_mode8poly_intILj1ExE12machine_mode @984
    _Z12gen_iorv1ti3P7rtx_defS0_S0_ @985
    _Z12gen_iorv2df3P7rtx_defS0_S0_ @986
    _Z12gen_iorv2di3P7rtx_defS0_S0_ @987
    _Z12gen_iorv2hi3P7rtx_defS0_S0_ @988
    _Z12gen_iorv2qi3P7rtx_defS0_S0_ @989
    _Z12gen_iorv2sf3P7rtx_defS0_S0_ @990
    _Z12gen_iorv2si3P7rtx_defS0_S0_ @991
    _Z12gen_iorv4df3P7rtx_defS0_S0_ @992
    _Z12gen_iorv4di3P7rtx_defS0_S0_ @993
    _Z12gen_iorv4hi3P7rtx_defS0_S0_ @994
    _Z12gen_iorv4qi3P7rtx_defS0_S0_ @995
    _Z12gen_iorv4sf3P7rtx_defS0_S0_ @996
    _Z12gen_iorv4si3P7rtx_defS0_S0_ @997
    _Z12gen_iorv8df3P7rtx_defS0_S0_ @998
    _Z12gen_iorv8di3P7rtx_defS0_S0_ @999
    _Z12gen_iorv8hf3P7rtx_defS0_S0_ @1000
    _Z12gen_iorv8hi3P7rtx_defS0_S0_ @1001
    _Z12gen_iorv8qi3P7rtx_defS0_S0_ @1002
    _Z12gen_iorv8sf3P7rtx_defS0_S0_ @1003
    _Z12gen_iorv8si3P7rtx_defS0_S0_ @1004
    _Z12gen_kunpckdiP7rtx_defS0_S0_ @1005
    _Z12gen_kunpckhiP7rtx_defS0_S0_ @1006
    _Z12gen_kunpcksiP7rtx_defS0_S0_ @1007
    _Z12gen_ldexpdf3P7rtx_defS0_S0_ @1008
    _Z12gen_ldexpsf3P7rtx_defS0_S0_ @1009
    _Z12gen_ldexpxf3P7rtx_defS0_S0_ @1010
    _Z12gen_leave_div @1011
    _Z12gen_leave_siv @1012
    _Z12gen_log10df2P7rtx_defS0_ @1013
    _Z12gen_log10sf2P7rtx_defS0_ @1014
    _Z12gen_log10xf2P7rtx_defS0_ @1015
    _Z12gen_log1pdf2P7rtx_defS0_ @1016
    _Z12gen_log1psf2P7rtx_defS0_ @1017
    _Z12gen_log1pxf2P7rtx_defS0_ @1018
    _Z12gen_lzcnt_diP7rtx_defS0_ @1019
    _Z12gen_lzcnt_hiP7rtx_defS0_ @1020
    _Z12gen_lzcnt_siP7rtx_defS0_ @1021
    _Z12gen_mmx_emmsv @1022
    _Z12gen_movv16hfP7rtx_defS0_ @1023
    _Z12gen_movv16hiP7rtx_defS0_ @1024
    _Z12gen_movv16qiP7rtx_defS0_ @1025
    _Z12gen_movv16sfP7rtx_defS0_ @1026
    _Z12gen_movv16siP7rtx_defS0_ @1027
    _Z12gen_movv32hfP7rtx_defS0_ @1028
    _Z12gen_movv32hiP7rtx_defS0_ @1029
    _Z12gen_movv32qiP7rtx_defS0_ @1030
    _Z12gen_movv64qiP7rtx_defS0_ @1031
    _Z12gen_movv64sfP7rtx_defS0_ @1032
    _Z12gen_movv64siP7rtx_defS0_ @1033
    _Z12gen_mulditi3P7rtx_defS0_S0_ @1034
    _Z12gen_mulqihi3P7rtx_defS0_S0_ @1035
    _Z12gen_mulsidi3P7rtx_defS0_S0_ @1036
    _Z12gen_mulv2df3P7rtx_defS0_S0_ @1037
    _Z12gen_mulv2di3P7rtx_defS0_S0_ @1038
    _Z12gen_mulv2hf3P7rtx_defS0_S0_ @1039
    _Z12gen_mulv2hi3P7rtx_defS0_S0_ @1040
    _Z12gen_mulv2sf3P7rtx_defS0_S0_ @1041
    _Z12gen_mulv4df3P7rtx_defS0_S0_ @1042
    _Z12gen_mulv4di3P7rtx_defS0_S0_ @1043
    _Z12gen_mulv4hf3P7rtx_defS0_S0_ @1044
    _Z12gen_mulv4hi3P7rtx_defS0_S0_ @1045
    _Z12gen_mulv4sf3P7rtx_defS0_S0_ @1046
    _Z12gen_mulv4si3P7rtx_defS0_S0_ @1047
    _Z12gen_mulv8df3P7rtx_defS0_S0_ @1048
    _Z12gen_mulv8di3P7rtx_defS0_S0_ @1049
    _Z12gen_mulv8hf3P7rtx_defS0_S0_ @1050
    _Z12gen_mulv8hi3P7rtx_defS0_S0_ @1051
    _Z12gen_mulv8qi3P7rtx_defS0_S0_ @1052
    _Z12gen_mulv8sf3P7rtx_defS0_S0_ @1053
    _Z12gen_mulv8si3P7rtx_defS0_S0_ @1054
    _Z12gen_negv2df2P7rtx_defS0_ @1055
    _Z12gen_negv2di2P7rtx_defS0_ @1056
    _Z12gen_negv2hi2P7rtx_defS0_ @1057
    _Z12gen_negv2qi2P7rtx_defS0_ @1058
    _Z12gen_negv2sf2P7rtx_defS0_ @1059
    _Z12gen_negv2si2P7rtx_defS0_ @1060
    _Z12gen_negv4df2P7rtx_defS0_ @1061
    _Z12gen_negv4di2P7rtx_defS0_ @1062
    _Z12gen_negv4hi2P7rtx_defS0_ @1063
    _Z12gen_negv4qi2P7rtx_defS0_ @1064
    _Z12gen_negv4sf2P7rtx_defS0_ @1065
    _Z12gen_negv4si2P7rtx_defS0_ @1066
    _Z12gen_negv8df2P7rtx_defS0_ @1067
    _Z12gen_negv8di2P7rtx_defS0_ @1068
    _Z12gen_negv8hf2P7rtx_defS0_ @1069
    _Z12gen_negv8hi2P7rtx_defS0_ @1070
    _Z12gen_negv8qi2P7rtx_defS0_ @1071
    _Z12gen_negv8sf2P7rtx_defS0_ @1072
    _Z12gen_negv8si2P7rtx_defS0_ @1073
    _Z12gen_prefetchP7rtx_defS0_S0_ @1074
    _Z12gen_prologuev @1075
    _Z12gen_ptesttf2P7rtx_defS0_ @1076
    _Z12gen_rdranddiP7rtx_def @1077
    _Z12gen_rdrandhiP7rtx_def @1078
    _Z12gen_rdrandsiP7rtx_def @1079
    _Z12gen_rdseeddiP7rtx_def @1080
    _Z12gen_rdseedhiP7rtx_def @1081
    _Z12gen_rdseedsiP7rtx_def @1082
    _Z12gen_rep_stosP7rtx_defS0_S0_S0_S0_ @1083
    _Z12gen_rounddf2P7rtx_defS0_ @1084
    _Z12gen_roundsf2P7rtx_defS0_ @1085
    _Z12gen_roundxf2P7rtx_defS0_ @1086
    _Z12gen_rsqrthf2P7rtx_defS0_ @1087
    _Z12gen_rsqrtsf2P7rtx_defS0_ @1088
    _Z12gen_rstorsspP7rtx_def @1089
    _Z12gen_rtx_INSN12machine_modeP8rtx_insnS1_P15basic_block_defP7rtx_defiiS5_ @1090
    _Z12gen_scalbdf3P7rtx_defS0_S0_ @1091
    _Z12gen_scalbsf3P7rtx_defS0_S0_ @1092
    _Z12gen_scalbxf3P7rtx_defS0_S0_ @1093
    _Z12gen_senduipiP7rtx_def @1094
    _Z12gen_setmemdiP7rtx_defS0_S0_S0_S0_S0_S0_S0_S0_ @1095
    _Z12gen_setmemsiP7rtx_defS0_S0_S0_S0_S0_S0_S0_S0_ @1096
    _Z12gen_setssbsyv @1097
    _Z12gen_sha1msg1P7rtx_defS0_S0_ @1098
    _Z12gen_sha1msg2P7rtx_defS0_S0_ @1099
    _Z12gen_split_10P8rtx_insnPP7rtx_def @1100
    _Z12gen_split_11P8rtx_insnPP7rtx_def @1101
    _Z12gen_split_12P8rtx_insnPP7rtx_def @1102
    _Z12gen_split_13P8rtx_insnPP7rtx_def @1103
    _Z12gen_split_14P8rtx_insnPP7rtx_def @1104
    _Z12gen_split_15P8rtx_insnPP7rtx_def @1105
    _Z12gen_split_16P8rtx_insnPP7rtx_def @1106
    _Z12gen_split_17P8rtx_insnPP7rtx_def @1107
    _Z12gen_split_18P8rtx_insnPP7rtx_def @1108
    _Z12gen_split_19P8rtx_insnPP7rtx_def @1109
    _Z12gen_split_20P8rtx_insnPP7rtx_def @1110
    _Z12gen_split_21P8rtx_insnPP7rtx_def @1111
    _Z12gen_split_22P8rtx_insnPP7rtx_def @1112
    _Z12gen_split_23P8rtx_insnPP7rtx_def @1113
    _Z12gen_split_24P8rtx_insnPP7rtx_def @1114
    _Z12gen_split_25P8rtx_insnPP7rtx_def @1115
    _Z12gen_split_26P8rtx_insnPP7rtx_def @1116
    _Z12gen_split_27P8rtx_insnPP7rtx_def @1117
    _Z12gen_split_28P8rtx_insnPP7rtx_def @1118
    _Z12gen_split_29P8rtx_insnPP7rtx_def @1119
    _Z12gen_split_30P8rtx_insnPP7rtx_def @1120
    _Z12gen_split_31P8rtx_insnPP7rtx_def @1121
    _Z12gen_split_32P8rtx_insnPP7rtx_def @1122
    _Z12gen_split_33P8rtx_insnPP7rtx_def @1123
    _Z12gen_split_34P8rtx_insnPP7rtx_def @1124
    _Z12gen_split_35P8rtx_insnPP7rtx_def @1125
    _Z12gen_split_36P8rtx_insnPP7rtx_def @1126
    _Z12gen_split_37P8rtx_insnPP7rtx_def @1127
    _Z12gen_split_38P8rtx_insnPP7rtx_def @1128
    _Z12gen_split_39P8rtx_insnPP7rtx_def @1129
    _Z12gen_split_40P8rtx_insnPP7rtx_def @1130
    _Z12gen_split_41P8rtx_insnPP7rtx_def @1131
    _Z12gen_split_42P8rtx_insnPP7rtx_def @1132
    _Z12gen_split_43P8rtx_insnPP7rtx_def @1133
    _Z12gen_split_44P8rtx_insnPP7rtx_def @1134
    _Z12gen_split_45P8rtx_insnPP7rtx_def @1135
    _Z12gen_split_46P8rtx_insnPP7rtx_def @1136
    _Z12gen_split_47P8rtx_insnPP7rtx_def @1137
    _Z12gen_split_48P8rtx_insnPP7rtx_def @1138
    _Z12gen_split_49P8rtx_insnPP7rtx_def @1139
    _Z12gen_split_50P8rtx_insnPP7rtx_def @1140
    _Z12gen_split_51P8rtx_insnPP7rtx_def @1141
    _Z12gen_split_52P8rtx_insnPP7rtx_def @1142
    _Z12gen_split_53P8rtx_insnPP7rtx_def @1143
    _Z12gen_split_54P8rtx_insnPP7rtx_def @1144
    _Z12gen_split_55P8rtx_insnPP7rtx_def @1145
    _Z12gen_split_56P8rtx_insnPP7rtx_def @1146
    _Z12gen_split_57P8rtx_insnPP7rtx_def @1147
    _Z12gen_split_58P8rtx_insnPP7rtx_def @1148
    _Z12gen_split_59P8rtx_insnPP7rtx_def @1149
    _Z12gen_split_60P8rtx_insnPP7rtx_def @1150
    _Z12gen_split_61P8rtx_insnPP7rtx_def @1151
    _Z12gen_split_62P8rtx_insnPP7rtx_def @1152
    _Z12gen_split_63P8rtx_insnPP7rtx_def @1153
    _Z12gen_split_64P8rtx_insnPP7rtx_def @1154
    _Z12gen_split_65P8rtx_insnPP7rtx_def @1155
    _Z12gen_split_66P8rtx_insnPP7rtx_def @1156
    _Z12gen_split_67P8rtx_insnPP7rtx_def @1157
    _Z12gen_split_68P8rtx_insnPP7rtx_def @1158
    _Z12gen_split_69P8rtx_insnPP7rtx_def @1159
    _Z12gen_split_70P8rtx_insnPP7rtx_def @1160
    _Z12gen_split_71P8rtx_insnPP7rtx_def @1161
    _Z12gen_split_72P8rtx_insnPP7rtx_def @1162
    _Z12gen_split_73P8rtx_insnPP7rtx_def @1163
    _Z12gen_split_74P8rtx_insnPP7rtx_def @1164
    _Z12gen_split_75P8rtx_insnPP7rtx_def @1165
    _Z12gen_split_76P8rtx_insnPP7rtx_def @1166
    _Z12gen_split_77P8rtx_insnPP7rtx_def @1167
    _Z12gen_split_78P8rtx_insnPP7rtx_def @1168
    _Z12gen_split_79P8rtx_insnPP7rtx_def @1169
    _Z12gen_split_80P8rtx_insnPP7rtx_def @1170
    _Z12gen_split_81P8rtx_insnPP7rtx_def @1171
    _Z12gen_split_82P8rtx_insnPP7rtx_def @1172
    _Z12gen_split_83P8rtx_insnPP7rtx_def @1173
    _Z12gen_split_84P8rtx_insnPP7rtx_def @1174
    _Z12gen_split_85P8rtx_insnPP7rtx_def @1175
    _Z12gen_split_86P8rtx_insnPP7rtx_def @1176
    _Z12gen_split_87P8rtx_insnPP7rtx_def @1177
    _Z12gen_split_88P8rtx_insnPP7rtx_def @1178
    _Z12gen_split_89P8rtx_insnPP7rtx_def @1179
    _Z12gen_split_90P8rtx_insnPP7rtx_def @1180
    _Z12gen_split_91P8rtx_insnPP7rtx_def @1181
    _Z12gen_split_92P8rtx_insnPP7rtx_def @1182
    _Z12gen_split_93P8rtx_insnPP7rtx_def @1183
    _Z12gen_split_94P8rtx_insnPP7rtx_def @1184
    _Z12gen_split_95P8rtx_insnPP7rtx_def @1185
    _Z12gen_split_96P8rtx_insnPP7rtx_def @1186
    _Z12gen_split_97P8rtx_insnPP7rtx_def @1187
    _Z12gen_split_98P8rtx_insnPP7rtx_def @1188
    _Z12gen_split_99P8rtx_insnPP7rtx_def @1189
    _Z12gen_sse_comiP7rtx_defS0_ @1190
    _Z12gen_strlendiP7rtx_defS0_S0_S0_ @1191
    _Z12gen_strlensiP7rtx_defS0_S0_S0_ @1192
    _Z12gen_subv2df3P7rtx_defS0_S0_ @1193
    _Z12gen_subv2di3P7rtx_defS0_S0_ @1194
    _Z12gen_subv2hf3P7rtx_defS0_S0_ @1195
    _Z12gen_subv2hi3P7rtx_defS0_S0_ @1196
    _Z12gen_subv2qi3P7rtx_defS0_S0_ @1197
    _Z12gen_subv2sf3P7rtx_defS0_S0_ @1198
    _Z12gen_subv2si3P7rtx_defS0_S0_ @1199
    _Z12gen_subv4df3P7rtx_defS0_S0_ @1200
    _Z12gen_subv4di3P7rtx_defS0_S0_ @1201
    _Z12gen_subv4hf3P7rtx_defS0_S0_ @1202
    _Z12gen_subv4hi3P7rtx_defS0_S0_ @1203
    _Z12gen_subv4qi3P7rtx_defS0_S0_ @1204
    _Z12gen_subv4sf3P7rtx_defS0_S0_ @1205
    _Z12gen_subv4si3P7rtx_defS0_S0_ @1206
    _Z12gen_subv8df3P7rtx_defS0_S0_ @1207
    _Z12gen_subv8di3P7rtx_defS0_S0_ @1208
    _Z12gen_subv8hf3P7rtx_defS0_S0_ @1209
    _Z12gen_subv8hi3P7rtx_defS0_S0_ @1210
    _Z12gen_subv8qi3P7rtx_defS0_S0_ @1211
    _Z12gen_subv8sf3P7rtx_defS0_S0_ @1212
    _Z12gen_subv8si3P7rtx_defS0_S0_ @1213
    _Z12gen_tzcnt_diP7rtx_defS0_ @1214
    _Z12gen_tzcnt_hiP7rtx_defS0_ @1215
    _Z12gen_tzcnt_siP7rtx_defS0_ @1216
    _Z12gen_uaddvdi4P7rtx_defS0_S0_S0_ @1217
    _Z12gen_uaddvhi4P7rtx_defS0_S0_S0_ @1218
    _Z12gen_uaddvqi4P7rtx_defS0_S0_S0_ @1219
    _Z12gen_uaddvsi4P7rtx_defS0_S0_S0_ @1220
    _Z12gen_uaddvti4P7rtx_defS0_S0_S0_ @1221
    _Z12gen_umulvdi4P7rtx_defS0_S0_S0_ @1222
    _Z12gen_umulvhi4P7rtx_defS0_S0_S0_ @1223
    _Z12gen_umulvqi4P7rtx_defS0_S0_S0_ @1224
    _Z12gen_umulvsi4P7rtx_defS0_S0_S0_ @1225
    _Z12gen_usadv8qiP7rtx_defS0_S0_S0_ @1226
    _Z12gen_usubvdi4P7rtx_defS0_S0_S0_ @1227
    _Z12gen_usubvhi4P7rtx_defS0_S0_S0_ @1228
    _Z12gen_usubvqi4P7rtx_defS0_S0_S0_ @1229
    _Z12gen_usubvsi4P7rtx_defS0_S0_S0_ @1230
    _Z12gen_wbnoinvdv @1231
    _Z12gen_x86_shldP7rtx_defS0_S0_ @1232
    _Z12gen_x86_shrdP7rtx_defS0_S0_ @1233
    _Z12gen_xbegin_1P7rtx_defS0_ @1234
    _Z12gen_xorv1ti3P7rtx_defS0_S0_ @1235
    _Z12gen_xorv2df3P7rtx_defS0_S0_ @1236
    _Z12gen_xorv2di3P7rtx_defS0_S0_ @1237
    _Z12gen_xorv2hi3P7rtx_defS0_S0_ @1238
    _Z12gen_xorv2qi3P7rtx_defS0_S0_ @1239
    _Z12gen_xorv2sf3P7rtx_defS0_S0_ @1240
    _Z12gen_xorv2si3P7rtx_defS0_S0_ @1241
    _Z12gen_xorv4df3P7rtx_defS0_S0_ @1242
    _Z12gen_xorv4di3P7rtx_defS0_S0_ @1243
    _Z12gen_xorv4hi3P7rtx_defS0_S0_ @1244
    _Z12gen_xorv4qi3P7rtx_defS0_S0_ @1245
    _Z12gen_xorv4sf3P7rtx_defS0_S0_ @1246
    _Z12gen_xorv4si3P7rtx_defS0_S0_ @1247
    _Z12gen_xorv8df3P7rtx_defS0_S0_ @1248
    _Z12gen_xorv8di3P7rtx_defS0_S0_ @1249
    _Z12gen_xorv8hf3P7rtx_defS0_S0_ @1250
    _Z12gen_xorv8hi3P7rtx_defS0_S0_ @1251
    _Z12gen_xorv8qi3P7rtx_defS0_S0_ @1252
    _Z12gen_xorv8sf3P7rtx_defS0_S0_ @1253
    _Z12gen_xorv8si3P7rtx_defS0_S0_ @1254
    _Z12gen_xrstor64P7rtx_defS0_S0_ @1255
    _Z12gen_xsavec64P7rtx_defS0_S0_ @1256
    _Z12gen_xsaveoptP7rtx_defS0_ @1257
    _Z12gen_xsaves64P7rtx_defS0_S0_ @1258
    _Z12get_attr_isaP8rtx_insn @1259
    _Z12get_attr_sdcP8rtx_insn @1260
    _Z12get_av_levelP8rtx_insn @1261
    _Z12get_base_varP9tree_node @1262
    _Z12get_dep_weakjj @1263
    _Z12get_gnu_treei @1264
    _Z12get_iv_valueP6rtx_ivP7rtx_def @1265
    _Z12get_narrowerP9tree_nodePi @1266
    _Z12get_odr_typeP9tree_nodeb @1267
    _Z12get_ptr_infoP9tree_node @1268
    _Z12get_rtx_code9tree_codeb @1269
    _Z12ggc_get_sizePKv @1270
    _Z12ggc_marked_pPKv @1271
    _Z12ggc_pch_readP6_iobufPv @1272
    _Z12ggc_set_markPKv @1273
    _Z12gimple_alloc11gimple_codej @1274
    _Z12gimple_buildPP6gimplej11code_helperP9tree_nodeS4_ @1275
    _Z12gimple_buildPP6gimplej11code_helperP9tree_nodeS4_S4_ @1276
    _Z12gimple_buildPP6gimplej11code_helperP9tree_nodeS4_S4_S4_ @1277
    _Z12gimple_buildPP6gimplej11combined_fnP9tree_node @1278
    _Z12gimple_buildPP6gimplej11combined_fnP9tree_nodeS4_ @1279
    _Z12gimple_buildPP6gimplej11combined_fnP9tree_nodeS4_S4_ @1280
    _Z12gimple_buildPP6gimplej11combined_fnP9tree_nodeS4_S4_S4_ @1281
    _Z12gimple_buildPP6gimplej9tree_codeP9tree_nodeS4_ @1282
    _Z12gimple_buildPP6gimplej9tree_codeP9tree_nodeS4_S4_ @1283
    _Z12gimple_buildPP6gimplej9tree_codeP9tree_nodeS4_S4_S4_ @1284
    _Z12gimplify_argPP9tree_nodePP6gimplejb @1285
    _Z12gsi_for_stmtP6gimple @1286
    _Z12gsi_for_stmtP6gimplePS0_ @1287
    _Z12gsi_set_stmtP20gimple_stmt_iteratorP6gimple @1288
    _Z12ilist_invertP10_list_node @1289
    _Z12index_stringPP20indirect_string_nodePj @1290
    _Z12init_ggc_pchv @1291
    _Z12init_lv_setsv @1292
    _Z12init_raw_REGP7rtx_def12machine_modej @1293
    _Z12init_rtlanalv @1294
    _Z12init_var_mapiP4loop @1295
    _Z12input_symtabv @1296
    _Z12insn_extractP8rtx_insn @1297
    _Z12insn_latencyP8rtx_insnS0_ @1298
    _Z12integer_onepPK9tree_node @1299
    _Z12ira_allocatey @1300
    _Z12is_ctrl_stmtP6gimple @1301
    _Z12is_tm_endingP6gimple @1302
    _Z12isolate_pathP15basic_block_defS0_P8edge_defP6gimpleP9tree_nodeb @1303
    _Z12ix86_cc_mode8rtx_codeP7rtx_defS1_ @1304
    _Z12lang_GNU_CXXv @1305
    _Z12linemap_dumpP6_iobufP9line_mapsjb @1306
    _Z12linemap_initP9line_mapsj @1307
    _Z12lookup_cfa_1P11dw_cfi_nodeP15dw_cfa_locationS2_ @1308
    _Z12loop_versionP4loopPvPP15basic_block_def19profile_probabilityS5_S5_S5_b @1309
    _Z12lra_coalescev @1310
    _Z12lra_emit_addP7rtx_defS0_S0_ @1311
    _Z12lra_get_copyi @1312
    _Z12lra_pop_insnv @1313
    _Z12lra_rtx_hashP7rtx_def @1314
    _Z12lto_tag_name8LTO_tags @1315
    _Z12make_int_cstii @1316
    _Z12make_pass_chPN3gcc7contextE @1317
    _Z12mark_visitedP9tree_node @1318
    _Z12may_trap_p_1PK7rtx_defj @1319
    _Z12merge_blocksP15basic_block_defS0_ @1320
    _Z12merge_rangesPiPP9tree_nodeS2_iS1_S1_iS1_S1_ @1321
    _Z12next_dom_son13cdi_directionP15basic_block_def @1322
    _Z12nonzero_bitsPK7rtx_def12machine_mode @1323
    _Z12op_code_prio9tree_code @1324
    _Z12pattern_costP7rtx_defb @1325
    _Z12pos_from_bitPP9tree_nodeS1_jS0_ @1326
    _Z12pp_begin_urlP14pretty_printerPKc @1327
    _Z12pp_characterP14pretty_printeri @1328
    _Z12pp_end_quoteP14pretty_printerb @1329
    _Z12pre_edge_lcmiPP17simple_bitmap_defS1_S1_S1_PS1_S2_ @1330
    _Z12predict_edgeP8edge_def12br_predictori @1331
    _Z12process_typei @1332
    _Z12promote_modePK9tree_node12machine_modePi @1333
    _Z12push_operandP7rtx_def12machine_mode @1334
    _Z12real_compareiPK10real_valueS1_ @1335
    _Z12real_convertP10real_value13format_helperPKS_ @1336
    _Z12redo_changesi @1337
    _Z12reemit_notesP8rtx_insn @1338
    _Z12regno_use_injP7rtx_def @1339
    _Z12release_defsP6gimple @1340
    _Z12remove_deathjP8rtx_insn @1341
    _Z12remove_notesP8rtx_insnS0_ @1342
    _Z12reset_accessRKP12varpool_nodeP12tls_var_dataPv @1343
    _Z12returnjump_pPK8rtx_insn @1344
    _Z12round_up_locjP9tree_nodej @1345
    _Z12rtx_varies_pPK7rtx_defb @1346
    _Z12run_fast_dcev @1347
    _Z12run_word_dcev @1348
    _Z12sched_finishv @1349
    _Z12schedule_ebbP8rtx_insnS0_b @1350
    _Z12sd_debug_depP4_dep @1351
    _Z12sd_init_insnP8rtx_insn @1352
    _Z12sd_next_listPK7rtx_defPiPP10_deps_listPb @1353
    _Z12sel_bb_end_pP8rtx_insn @1354
    _Z12sel_init_bbs3vecIP15basic_block_def7va_heap6vl_ptrE @1355
    _Z12set_decl_rtlP9tree_nodeP7rtx_def @1356
    _Z12set_dep_weakjjj @1357
    _Z12set_mem_exprP7rtx_defP9tree_node @1358
    _Z12set_mem_sizeP7rtx_def8poly_intILj1ExE @1359
    _Z12set_parm_rtlP9tree_nodeP7rtx_def @1360
    _Z12sext_operandP7rtx_def12machine_mode @1361
    _Z12simplejump_pPK8rtx_insn @1362
    _Z12simplify_rtxPK7rtx_def @1363
    _Z12single_set_2PK8rtx_insnPK7rtx_def @1364
    _Z12size_of_locsP17dw_loc_descr_node @1365
    _Z12split_doubleP7rtx_defPS0_S1_ @1366
    _Z12stmt_vectypeP14_stmt_vec_info @1367
    _Z12strip_offsetP7rtx_defP12poly_int_podILj1ExE @1368
    _Z12strip_offsetP9tree_nodeP12poly_int_podILj1EyE @1369
    _Z12subreg_lsb_112machine_modeS_8poly_intILj1EyE @1370
    _Z12subreg_nregsPK7rtx_def @1371
    _Z12subreg_regnoPK7rtx_def @1372
    _Z12thunk_adjustP20gimple_stmt_iteratorP9tree_nodebxS2_x @1373
    _Z12tick_check_pP5_exprP9deps_descP6_fence @1374
    _Z12timevar_initv @1375
    _Z12timevar_stop12timevar_id_t @1376
    _Z12tree_to_shwiPK9tree_node @1377
    _Z12tree_to_uhwiPK9tree_node @1378
    _Z12unlink_blockP15basic_block_def @1379
    _Z12unroll_loopsi @1380
    _Z12unshare_exprP9tree_node @1381
    _Z12use_reg_modePP7rtx_defS0_12machine_mode @1382
    _Z12valid_insn_pP8rtx_insn @1383
    _Z12validize_memP7rtx_def @1384
    _Z12value_memberP9tree_nodeS0_ @1385
    _Z12vect_gen_lenP9tree_nodeS0_S0_S0_ @1386
    _Z12vinsn_attachP9vinsn_def @1387
    _Z12vinsn_detachP9vinsn_def @1388
    _Z12warning_metaP13rich_locationRK19diagnostic_metadataiPKcz @1389
    _Z13QIreg_operandP7rtx_def12machine_mode @1390
    _Z13Sloc_to_locusiPjbPK9tree_node @1391
    _Z13active_insn_pPK8rtx_insn @1392
    _Z13add_conditionP14ipa_fn_summaryP15ipa_node_paramsiP9tree_nodeP17agg_position_info9tree_codeS4_P3vecI12expr_eval_op5va_gc8vl_embedE @1393
    _Z13add_decl_exprP9tree_nodei @1394
    _Z13advance_statePv @1395
    _Z13alloca_call_pPK9tree_node @1396
    _Z13apply_tm_attrP9tree_nodeS0_ @1397
    _Z13asm_noperandsPK7rtx_def @1398
    _Z13asm_str_countPKc @1399
    _Z13assemble_nameP6_iobufPKc @1400
    _Z13assemble_real10real_value17scalar_float_modejb @1401
    _Z13av_set_lookupP10_list_nodeP9vinsn_def @1402
    _Z13base_type_dieP9tree_nodeb @1403
    _Z13bb_dom_dfs_in13cdi_directionP15basic_block_def @1404
    _Z13bb_ends_ebb_pP15basic_block_def @1405
    _Z13bb_loop_depthPK15basic_block_def @1406
    _Z13bitmap_and_orP17simple_bitmap_defPKS_S2_S2_ @1407
    _Z13bitmap_or_andP17simple_bitmap_defPKS_S2_S2_ @1408
    _Z13block_chainonP9tree_nodeS0_ @1409
    _Z13build_cfa_locP15dw_cfa_location8poly_intILj1ExE @1410
    _Z13build_clobberP9tree_node12clobber_kind @1411
    _Z13build_complexP9tree_nodeS0_S0_ @1412
    _Z13build_fn_declPKcP9tree_node @1413
    _Z13build_int_cstP9tree_node8poly_intILj1ExE @1414
    _Z13build_one_cstP9tree_node @1415
    _Z13byte_from_posP9tree_nodeS0_ @1416
    _Z13byte_positionPK9tree_node @1417
    _Z13can_compare_p8rtx_code12machine_mode19can_compare_purpose @1418
    _Z13chrec_convertP9tree_nodeS0_P6gimplebS0_ @1419
    _Z13classify_insnP7rtx_def @1420
    _Z13clear_storageP7rtx_defS0_16block_op_methods @1421
    _Z13colorize_init23diagnostic_color_rule_t @1422
    _Z13colorize_stopb @1423
    _Z13convert_modes12machine_modeS_P7rtx_defi @1424
    _Z13copy_ref_infoP9tree_nodeS0_ @1425
    _Z13copy_var_declP9tree_nodeS0_S0_ @1426
    _Z13coverage_initPKc @1427
    _Z13cpp_get_tokenP10cpp_reader @1428
    _Z13cpp_token_lenPK9cpp_token @1429
    _Z13cpp_type2name9cpp_ttypeh @1430
    _Z13cpp_undef_allP10cpp_reader @1431
    _Z13cselib_finishv @1432
    _Z13cselib_lookupP7rtx_def12machine_modeiS1_ @1433
    _Z13ctf_add_arrayP13ctf_containerjPK10ctf_arinfoP10die_struct @1434
    _Z13ctf_add_floatP13ctf_containerjPKcPK12ctf_encodingP10die_struct @1435
    _Z13ctf_add_sliceP13ctf_containerjyjjP10die_struct @1436
    _Z13dbxout_symbolP9tree_nodei @1437
    _Z13dead_or_set_pPK8rtx_insnPK7rtx_def @1438
    _Z13debug_bb_slimP15basic_block_def @1439
    _Z13debug_cfi_rowP10dw_cfi_row @1440
    _Z13debug_clusterP10bb_cluster @1441
    _Z13debug_df_insnP8rtx_insn @1442
    _Z13debug_eh_treeP8function @1443
    _Z13debug_isl_affP7isl_aff @1444
    _Z13debug_isl_astP12isl_ast_node @1445
    _Z13debug_isl_mapP7isl_map @1446
    _Z13debug_isl_setP7isl_set @1447
    _Z13debug_regionsv @1448
    _Z13debug_varinfoP13variable_info @1449
    _Z13debug_verboseP4loop @1450
    _Z13debug_verboseP5_expr @1451
    _Z13debug_verboseP9vinsn_def @1452
    _Z13debug_verboseR4loop @1453
    _Z13debug_verboseR5_expr @1454
    _Z13debug_verboseR9vinsn_def @1455
    _Z13default_lra_pv @1456
    _Z13deps_start_bbP9deps_descP8rtx_insn @1457
    _Z13df_bb_replaceiP15basic_block_def @1458
    _Z13df_chain_copyP8df_ref_dP7df_link @1459
    _Z13df_chain_dumpP7df_linkP6_iobuf @1460
    _Z13df_dump_startP6_iobuf @1461
    _Z13df_insn_debugP8rtx_insnbP6_iobuf @1462
    _Z13df_scan_allocP11bitmap_head @1463
    _Z13df_set_blocksP11bitmap_head @1464
    _Z13ds_full_mergejjP7rtx_defS0_ @1465
    _Z13dump_currdefsP6_iobuf @1466
    _Z13dump_decl_setP6_iobufP11bitmap_head @1467
    _Z13dump_functioniP9tree_node @1468
    _Z13dump_insn_rtxP7rtx_def @1469
    _Z13dump_locationP14pretty_printerj @1470
    _Z13dump_reg_infoP6_iobuf @1471
    _Z13dump_rtl_slimP6_iobufPK8rtx_insnS3_ii @1472
    _Z13dump_tree_ssaP6_iobuf @1473
    _Z13dump_variableP6_iobufP9tree_node @1474
    _Z13early_inlinerP8function @1475
    _Z13empty_block_pP15basic_block_def @1476
    _Z13enable_rangerP8function @1477
    _Z13error_for_asmPK8rtx_insnPKcz @1478
    _Z13exact_inverseP9tree_nodeS0_ @1479
    _Z13expand_divmodi9tree_code12machine_modeP7rtx_defS2_S2_i13optab_methods @1480
    _Z13expr_dest_regP5_expr @1481
    _Z13expunge_blockP15basic_block_def @1482
    _Z13fake_ngettextPKcS0_m @1483
    _Z13find_reg_notePK7rtx_def8reg_noteS1_ @1484
    _Z13fini_ssanamesP8function @1485
    _Z13finite_loop_pP4loop @1486
    _Z13first_dom_son13cdi_directionP15basic_block_def @1487
    _Z13fixed_compareiPK11fixed_valueS1_ @1488
    _Z13fixed_convertP11fixed_value11scalar_modePKS_b @1489
    _Z13fold_mem_refsRKPP9tree_nodePv @1490
    _Z13fold_vec_permP9tree_nodeS0_S0_RK16vec_perm_indices @1491
    _Z13for_each_edgeP5graphPFvS0_P10graph_edgePvES3_ @1492
    _Z13force_not_memP7rtx_def @1493
    _Z13force_operandP7rtx_defS0_ @1494
    _Z13free_data_refP14data_reference @1495
    _Z13free_nop_poolv @1496
    _Z13free_reg_infov @1497
    _Z13free_rgn_depsv @1498
    _Z13function_nameP8function @1499
    _Z13gen_absv16hf2P7rtx_defS0_ @1500
    _Z13gen_absv16hi2P7rtx_defS0_ @1501
    _Z13gen_absv16qi2P7rtx_defS0_ @1502
    _Z13gen_absv16sf2P7rtx_defS0_ @1503
    _Z13gen_absv16si2P7rtx_defS0_ @1504
    _Z13gen_absv32hf2P7rtx_defS0_ @1505
    _Z13gen_absv32hi2P7rtx_defS0_ @1506
    _Z13gen_absv32qi2P7rtx_defS0_ @1507
    _Z13gen_absv64qi2P7rtx_defS0_ @1508
    _Z13gen_add2_insnP7rtx_defS0_ @1509
    _Z13gen_add3_insnP7rtx_defS0_S0_ @1510
    _Z13gen_addv16hf3P7rtx_defS0_S0_ @1511
    _Z13gen_addv16hi3P7rtx_defS0_S0_ @1512
    _Z13gen_addv16qi3P7rtx_defS0_S0_ @1513
    _Z13gen_addv16sf3P7rtx_defS0_S0_ @1514
    _Z13gen_addv16si3P7rtx_defS0_S0_ @1515
    _Z13gen_addv32hf3P7rtx_defS0_S0_ @1516
    _Z13gen_addv32hi3P7rtx_defS0_S0_ @1517
    _Z13gen_addv32qi3P7rtx_defS0_S0_ @1518
    _Z13gen_addv64qi3P7rtx_defS0_S0_ @1519
    _Z13gen_addvdi4_1P7rtx_defS0_S0_S0_ @1520
    _Z13gen_addvhi4_1P7rtx_defS0_S0_S0_ @1521
    _Z13gen_addvqi4_1P7rtx_defS0_S0_S0_ @1522
    _Z13gen_addvsi4_1P7rtx_defS0_S0_S0_ @1523
    _Z13gen_andv16hf3P7rtx_defS0_S0_ @1524
    _Z13gen_andv16hi3P7rtx_defS0_S0_ @1525
    _Z13gen_andv16qi3P7rtx_defS0_S0_ @1526
    _Z13gen_andv16sf3P7rtx_defS0_S0_ @1527
    _Z13gen_andv16si3P7rtx_defS0_S0_ @1528
    _Z13gen_andv32hf3P7rtx_defS0_S0_ @1529
    _Z13gen_andv32hi3P7rtx_defS0_S0_ @1530
    _Z13gen_andv32qi3P7rtx_defS0_S0_ @1531
    _Z13gen_andv64qi3P7rtx_defS0_S0_ @1532
    _Z13gen_ashlv1ti3P7rtx_defS0_S0_ @1533
    _Z13gen_ashlv2di3P7rtx_defS0_S0_ @1534
    _Z13gen_ashlv2hi3P7rtx_defS0_S0_ @1535
    _Z13gen_ashlv2qi3P7rtx_defS0_S0_ @1536
    _Z13gen_ashlv2si3P7rtx_defS0_S0_ @1537
    _Z13gen_ashlv4di3P7rtx_defS0_S0_ @1538
    _Z13gen_ashlv4hi3P7rtx_defS0_S0_ @1539
    _Z13gen_ashlv4si3P7rtx_defS0_S0_ @1540
    _Z13gen_ashlv8di3P7rtx_defS0_S0_ @1541
    _Z13gen_ashlv8hi3P7rtx_defS0_S0_ @1542
    _Z13gen_ashlv8si3P7rtx_defS0_S0_ @1543
    _Z13gen_ashrv1ti3P7rtx_defS0_S0_ @1544
    _Z13gen_ashrv2di3P7rtx_defS0_S0_ @1545
    _Z13gen_ashrv2hi3P7rtx_defS0_S0_ @1546
    _Z13gen_ashrv2qi3P7rtx_defS0_S0_ @1547
    _Z13gen_ashrv2si3P7rtx_defS0_S0_ @1548
    _Z13gen_ashrv4di3P7rtx_defS0_S0_ @1549
    _Z13gen_ashrv4hi3P7rtx_defS0_S0_ @1550
    _Z13gen_ashrv4si3P7rtx_defS0_S0_ @1551
    _Z13gen_ashrv8di3P7rtx_defS0_S0_ @1552
    _Z13gen_ashrv8hi3P7rtx_defS0_S0_ @1553
    _Z13gen_ashrv8si3P7rtx_defS0_S0_ @1554
    _Z13gen_bsr_rex64P7rtx_defS0_ @1555
    _Z13gen_btruncdf2P7rtx_defS0_ @1556
    _Z13gen_btrunchf2P7rtx_defS0_ @1557
    _Z13gen_btruncsf2P7rtx_defS0_ @1558
    _Z13gen_btruncxf2P7rtx_defS0_ @1559
    _Z13gen_clzero_diP7rtx_def @1560
    _Z13gen_clzero_siP7rtx_def @1561
    _Z13gen_clzv16si2P7rtx_defS0_ @1562
    _Z13gen_cmlav8hf4P7rtx_defS0_S0_S0_ @1563
    _Z13gen_cmpstrnsiP7rtx_defS0_S0_S0_S0_ @1564
    _Z13gen_cmulv8hf3P7rtx_defS0_S0_ @1565
    _Z13gen_cond_trap8rtx_codeP7rtx_defS1_S1_ @1566
    _Z13gen_const_mem12machine_modeP7rtx_def @1567
    _Z13gen_cstorecc4P7rtx_defS0_S0_S0_ @1568
    _Z13gen_cstoredf4P7rtx_defS0_S0_S0_ @1569
    _Z13gen_cstoredi4P7rtx_defS0_S0_S0_ @1570
    _Z13gen_cstorehf4P7rtx_defS0_S0_S0_ @1571
    _Z13gen_cstorehi4P7rtx_defS0_S0_S0_ @1572
    _Z13gen_cstoreqi4P7rtx_defS0_S0_S0_ @1573
    _Z13gen_cstoresf4P7rtx_defS0_S0_S0_ @1574
    _Z13gen_cstoresi4P7rtx_defS0_S0_S0_ @1575
    _Z13gen_cstorexf4P7rtx_defS0_S0_S0_ @1576
    _Z13gen_divmoddi4P7rtx_defS0_S0_S0_ @1577
    _Z13gen_divmodhi4P7rtx_defS0_S0_S0_ @1578
    _Z13gen_divmodqi4P7rtx_defS0_S0_S0_ @1579
    _Z13gen_divmodsi4P7rtx_defS0_S0_S0_ @1580
    _Z13gen_divv16hf3P7rtx_defS0_S0_ @1581
    _Z13gen_divv16sf3P7rtx_defS0_S0_ @1582
    _Z13gen_divv32hf3P7rtx_defS0_S0_ @1583
    _Z13gen_eh_returnP7rtx_def @1584
    _Z13gen_enqcmd_diP7rtx_defS0_ @1585
    _Z13gen_enqcmd_siP7rtx_defS0_ @1586
    _Z13gen_fmav16hf4P7rtx_defS0_S0_S0_ @1587
    _Z13gen_fmav16sf4P7rtx_defS0_S0_S0_ @1588
    _Z13gen_fmav32hf4P7rtx_defS0_S0_S0_ @1589
    _Z13gen_fmsv16hf4P7rtx_defS0_S0_S0_ @1590
    _Z13gen_fmsv16sf4P7rtx_defS0_S0_S0_ @1591
    _Z13gen_fmsv32hf4P7rtx_defS0_S0_S0_ @1592
    _Z13gen_fnmav2df4P7rtx_defS0_S0_S0_ @1593
    _Z13gen_fnmav2sf4P7rtx_defS0_S0_S0_ @1594
    _Z13gen_fnmav4df4P7rtx_defS0_S0_S0_ @1595
    _Z13gen_fnmav4sf4P7rtx_defS0_S0_S0_ @1596
    _Z13gen_fnmav8df4P7rtx_defS0_S0_S0_ @1597
    _Z13gen_fnmav8hf4P7rtx_defS0_S0_S0_ @1598
    _Z13gen_fnmav8sf4P7rtx_defS0_S0_S0_ @1599
    _Z13gen_fnmsv2df4P7rtx_defS0_S0_S0_ @1600
    _Z13gen_fnmsv2sf4P7rtx_defS0_S0_S0_ @1601
    _Z13gen_fnmsv4df4P7rtx_defS0_S0_S0_ @1602
    _Z13gen_fnmsv4sf4P7rtx_defS0_S0_S0_ @1603
    _Z13gen_fnmsv8df4P7rtx_defS0_S0_S0_ @1604
    _Z13gen_fnmsv8hf4P7rtx_defS0_S0_S0_ @1605
    _Z13gen_fnmsv8sf4P7rtx_defS0_S0_S0_ @1606
    _Z13gen_frame_mem12machine_modeP7rtx_def @1607
    _Z13gen_fxrstor64P7rtx_def @1608
    _Z13gen_group_rtxP7rtx_def @1609
    _Z13gen_iorv16hf3P7rtx_defS0_S0_ @1610
    _Z13gen_iorv16hi3P7rtx_defS0_S0_ @1611
    _Z13gen_iorv16qi3P7rtx_defS0_S0_ @1612
    _Z13gen_iorv16sf3P7rtx_defS0_S0_ @1613
    _Z13gen_iorv16si3P7rtx_defS0_S0_ @1614
    _Z13gen_iorv32hf3P7rtx_defS0_S0_ @1615
    _Z13gen_iorv32hi3P7rtx_defS0_S0_ @1616
    _Z13gen_iorv32qi3P7rtx_defS0_S0_ @1617
    _Z13gen_iorv64qi3P7rtx_defS0_S0_ @1618
    _Z13gen_kashiftdiP7rtx_defS0_S0_ @1619
    _Z13gen_kashifthiP7rtx_defS0_S0_ @1620
    _Z13gen_kashiftqiP7rtx_defS0_S0_ @1621
    _Z13gen_kashiftsiP7rtx_defS0_S0_ @1622
    _Z13gen_kortestdiP7rtx_defS0_ @1623
    _Z13gen_kortesthiP7rtx_defS0_ @1624
    _Z13gen_kortestqiP7rtx_defS0_ @1625
    _Z13gen_kortestsiP7rtx_defS0_ @1626
    _Z13gen_label_rtxv @1627
    _Z13gen_loadiwkeyP7rtx_defS0_S0_S0_ @1628
    _Z13gen_lshrv1ti3P7rtx_defS0_S0_ @1629
    _Z13gen_lshrv2di3P7rtx_defS0_S0_ @1630
    _Z13gen_lshrv2hi3P7rtx_defS0_S0_ @1631
    _Z13gen_lshrv2qi3P7rtx_defS0_S0_ @1632
    _Z13gen_lshrv2si3P7rtx_defS0_S0_ @1633
    _Z13gen_lshrv4di3P7rtx_defS0_S0_ @1634
    _Z13gen_lshrv4hi3P7rtx_defS0_S0_ @1635
    _Z13gen_lshrv4si3P7rtx_defS0_S0_ @1636
    _Z13gen_lshrv8di3P7rtx_defS0_S0_ @1637
    _Z13gen_lshrv8hi3P7rtx_defS0_S0_ @1638
    _Z13gen_lshrv8si3P7rtx_defS0_S0_ @1639
    _Z13gen_mmx_femmsv @1640
    _Z13gen_mmx_pf2iwP7rtx_defS0_ @1641
    _Z13gen_mmx_pi2fwP7rtx_defS0_ @1642
    _Z13gen_movdiridiP7rtx_defS0_ @1643
    _Z13gen_movdirisiP7rtx_defS0_ @1644
    _Z13gen_move_insnP7rtx_defS0_ @1645
    _Z13gen_movmsk_dfP7rtx_defS0_ @1646
    _Z13gen_mulv16hf3P7rtx_defS0_S0_ @1647
    _Z13gen_mulv16hi3P7rtx_defS0_S0_ @1648
    _Z13gen_mulv16qi3P7rtx_defS0_S0_ @1649
    _Z13gen_mulv16sf3P7rtx_defS0_S0_ @1650
    _Z13gen_mulv16si3P7rtx_defS0_S0_ @1651
    _Z13gen_mulv32hf3P7rtx_defS0_S0_ @1652
    _Z13gen_mulv32hi3P7rtx_defS0_S0_ @1653
    _Z13gen_mulv32qi3P7rtx_defS0_S0_ @1654
    _Z13gen_mulv64qi3P7rtx_defS0_S0_ @1655
    _Z13gen_negv16hf2P7rtx_defS0_ @1656
    _Z13gen_negv16hi2P7rtx_defS0_ @1657
    _Z13gen_negv16qi2P7rtx_defS0_ @1658
    _Z13gen_negv16sf2P7rtx_defS0_ @1659
    _Z13gen_negv16si2P7rtx_defS0_ @1660
    _Z13gen_negv32hf2P7rtx_defS0_ @1661
    _Z13gen_negv32hi2P7rtx_defS0_ @1662
    _Z13gen_negv32qi2P7rtx_defS0_ @1663
    _Z13gen_negv64qi2P7rtx_defS0_ @1664
    _Z13gen_nop_endbrv @1665
    _Z13gen_paritydi2P7rtx_defS0_ @1666
    _Z13gen_parityhi2P7rtx_defS0_ @1667
    _Z13gen_parityqi2P7rtx_defS0_ @1668
    _Z13gen_paritysi2P7rtx_defS0_ @1669
    _Z13gen_pclmulqdqP7rtx_defS0_S0_S0_ @1670
    _Z13gen_ptwritediP7rtx_def @1671
    _Z13gen_ptwritesiP7rtx_def @1672
    _Z13gen_rintv2df2P7rtx_defS0_ @1673
    _Z13gen_rintv4df2P7rtx_defS0_ @1674
    _Z13gen_rintv4sf2P7rtx_defS0_ @1675
    _Z13gen_rintv8df2P7rtx_defS0_ @1676
    _Z13gen_rintv8hf2P7rtx_defS0_ @1677
    _Z13gen_rintv8sf2P7rtx_defS0_ @1678
    _Z13gen_rotlv1ti3P7rtx_defS0_S0_ @1679
    _Z13gen_rotlv2di3P7rtx_defS0_S0_ @1680
    _Z13gen_rotlv4si3P7rtx_defS0_S0_ @1681
    _Z13gen_rotlv8hi3P7rtx_defS0_S0_ @1682
    _Z13gen_rotrv1ti3P7rtx_defS0_S0_ @1683
    _Z13gen_rotrv2di3P7rtx_defS0_S0_ @1684
    _Z13gen_rotrv4si3P7rtx_defS0_S0_ @1685
    _Z13gen_rotrv8hi3P7rtx_defS0_S0_ @1686
    _Z13gen_serializev @1687
    _Z13gen_sha1nexteP7rtx_defS0_S0_ @1688
    _Z13gen_sha1rnds4P7rtx_defS0_S0_S0_ @1689
    _Z13gen_sincosdf3P7rtx_defS0_S0_ @1690
    _Z13gen_sincossf3P7rtx_defS0_S0_ @1691
    _Z13gen_sincosxf3P7rtx_defS0_S0_ @1692
    _Z13gen_smaxv2df3P7rtx_defS0_S0_ @1693
    _Z13gen_smaxv2di3P7rtx_defS0_S0_ @1694
    _Z13gen_smaxv2hi3P7rtx_defS0_S0_ @1695
    _Z13gen_smaxv2qi3P7rtx_defS0_S0_ @1696
    _Z13gen_smaxv2sf3P7rtx_defS0_S0_ @1697
    _Z13gen_smaxv2si3P7rtx_defS0_S0_ @1698
    _Z13gen_smaxv4df3P7rtx_defS0_S0_ @1699
    _Z13gen_smaxv4di3P7rtx_defS0_S0_ @1700
    _Z13gen_smaxv4hi3P7rtx_defS0_S0_ @1701
    _Z13gen_smaxv4qi3P7rtx_defS0_S0_ @1702
    _Z13gen_smaxv4sf3P7rtx_defS0_S0_ @1703
    _Z13gen_smaxv4si3P7rtx_defS0_S0_ @1704
    _Z13gen_smaxv8df3P7rtx_defS0_S0_ @1705
    _Z13gen_smaxv8di3P7rtx_defS0_S0_ @1706
    _Z13gen_smaxv8hf3P7rtx_defS0_S0_ @1707
    _Z13gen_smaxv8hi3P7rtx_defS0_S0_ @1708
    _Z13gen_smaxv8qi3P7rtx_defS0_S0_ @1709
    _Z13gen_smaxv8sf3P7rtx_defS0_S0_ @1710
    _Z13gen_smaxv8si3P7rtx_defS0_S0_ @1711
    _Z13gen_sminv2df3P7rtx_defS0_S0_ @1712
    _Z13gen_sminv2di3P7rtx_defS0_S0_ @1713
    _Z13gen_sminv2hi3P7rtx_defS0_S0_ @1714
    _Z13gen_sminv2qi3P7rtx_defS0_S0_ @1715
    _Z13gen_sminv2sf3P7rtx_defS0_S0_ @1716
    _Z13gen_sminv2si3P7rtx_defS0_S0_ @1717
    _Z13gen_sminv4df3P7rtx_defS0_S0_ @1718
    _Z13gen_sminv4di3P7rtx_defS0_S0_ @1719
    _Z13gen_sminv4hi3P7rtx_defS0_S0_ @1720
    _Z13gen_sminv4qi3P7rtx_defS0_S0_ @1721
    _Z13gen_sminv4sf3P7rtx_defS0_S0_ @1722
    _Z13gen_sminv4si3P7rtx_defS0_S0_ @1723
    _Z13gen_sminv8df3P7rtx_defS0_S0_ @1724
    _Z13gen_sminv8di3P7rtx_defS0_S0_ @1725
    _Z13gen_sminv8hf3P7rtx_defS0_S0_ @1726
    _Z13gen_sminv8hi3P7rtx_defS0_S0_ @1727
    _Z13gen_sminv8qi3P7rtx_defS0_S0_ @1728
    _Z13gen_sminv8sf3P7rtx_defS0_S0_ @1729
    _Z13gen_sminv8si3P7rtx_defS0_S0_ @1730
    _Z13gen_split_100P8rtx_insnPP7rtx_def @1731
    _Z13gen_split_101P8rtx_insnPP7rtx_def @1732
    _Z13gen_split_102P8rtx_insnPP7rtx_def @1733
    _Z13gen_split_103P8rtx_insnPP7rtx_def @1734
    _Z13gen_split_104P8rtx_insnPP7rtx_def @1735
    _Z13gen_split_105P8rtx_insnPP7rtx_def @1736
    _Z13gen_split_106P8rtx_insnPP7rtx_def @1737
    _Z13gen_split_107P8rtx_insnPP7rtx_def @1738
    _Z13gen_split_108P8rtx_insnPP7rtx_def @1739
    _Z13gen_split_109P8rtx_insnPP7rtx_def @1740
    _Z13gen_split_110P8rtx_insnPP7rtx_def @1741
    _Z13gen_split_111P8rtx_insnPP7rtx_def @1742
    _Z13gen_split_112P8rtx_insnPP7rtx_def @1743
    _Z13gen_split_113P8rtx_insnPP7rtx_def @1744
    _Z13gen_split_114P8rtx_insnPP7rtx_def @1745
    _Z13gen_split_115P8rtx_insnPP7rtx_def @1746
    _Z13gen_split_116P8rtx_insnPP7rtx_def @1747
    _Z13gen_split_117P8rtx_insnPP7rtx_def @1748
    _Z13gen_split_118P8rtx_insnPP7rtx_def @1749
    _Z13gen_split_119P8rtx_insnPP7rtx_def @1750
    _Z13gen_split_120P8rtx_insnPP7rtx_def @1751
    _Z13gen_split_121P8rtx_insnPP7rtx_def @1752
    _Z13gen_split_122P8rtx_insnPP7rtx_def @1753
    _Z13gen_split_123P8rtx_insnPP7rtx_def @1754
    _Z13gen_split_124P8rtx_insnPP7rtx_def @1755
    _Z13gen_split_125P8rtx_insnPP7rtx_def @1756
    _Z13gen_split_126P8rtx_insnPP7rtx_def @1757
    _Z13gen_split_127P8rtx_insnPP7rtx_def @1758
    _Z13gen_split_128P8rtx_insnPP7rtx_def @1759
    _Z13gen_split_129P8rtx_insnPP7rtx_def @1760
    _Z13gen_split_130P8rtx_insnPP7rtx_def @1761
    _Z13gen_split_131P8rtx_insnPP7rtx_def @1762
    _Z13gen_split_132P8rtx_insnPP7rtx_def @1763
    _Z13gen_split_133P8rtx_insnPP7rtx_def @1764
    _Z13gen_split_134P8rtx_insnPP7rtx_def @1765
    _Z13gen_split_135P8rtx_insnPP7rtx_def @1766
    _Z13gen_split_136P8rtx_insnPP7rtx_def @1767
    _Z13gen_split_137P8rtx_insnPP7rtx_def @1768
    _Z13gen_split_138P8rtx_insnPP7rtx_def @1769
    _Z13gen_split_139P8rtx_insnPP7rtx_def @1770
    _Z13gen_split_140P8rtx_insnPP7rtx_def @1771
    _Z13gen_split_141P8rtx_insnPP7rtx_def @1772
    _Z13gen_split_142P8rtx_insnPP7rtx_def @1773
    _Z13gen_split_143P8rtx_insnPP7rtx_def @1774
    _Z13gen_split_144P8rtx_insnPP7rtx_def @1775
    _Z13gen_split_145P8rtx_insnPP7rtx_def @1776
    _Z13gen_split_146P8rtx_insnPP7rtx_def @1777
    _Z13gen_split_147P8rtx_insnPP7rtx_def @1778
    _Z13gen_split_148P8rtx_insnPP7rtx_def @1779
    _Z13gen_split_149P8rtx_insnPP7rtx_def @1780
    _Z13gen_split_150P8rtx_insnPP7rtx_def @1781
    _Z13gen_split_151P8rtx_insnPP7rtx_def @1782
    _Z13gen_split_152P8rtx_insnPP7rtx_def @1783
    _Z13gen_split_153P8rtx_insnPP7rtx_def @1784
    _Z13gen_split_154P8rtx_insnPP7rtx_def @1785
    _Z13gen_split_155P8rtx_insnPP7rtx_def @1786
    _Z13gen_split_156P8rtx_insnPP7rtx_def @1787
    _Z13gen_split_157P8rtx_insnPP7rtx_def @1788
    _Z13gen_split_158P8rtx_insnPP7rtx_def @1789
    _Z13gen_split_159P8rtx_insnPP7rtx_def @1790
    _Z13gen_split_160P8rtx_insnPP7rtx_def @1791
    _Z13gen_split_161P8rtx_insnPP7rtx_def @1792
    _Z13gen_split_162P8rtx_insnPP7rtx_def @1793
    _Z13gen_split_163P8rtx_insnPP7rtx_def @1794
    _Z13gen_split_164P8rtx_insnPP7rtx_def @1795
    _Z13gen_split_165P8rtx_insnPP7rtx_def @1796
    _Z13gen_split_166P8rtx_insnPP7rtx_def @1797
    _Z13gen_split_167P8rtx_insnPP7rtx_def @1798
    _Z13gen_split_168P8rtx_insnPP7rtx_def @1799
    _Z13gen_split_169P8rtx_insnPP7rtx_def @1800
    _Z13gen_split_170P8rtx_insnPP7rtx_def @1801
    _Z13gen_split_171P8rtx_insnPP7rtx_def @1802
    _Z13gen_split_172P8rtx_insnPP7rtx_def @1803
    _Z13gen_split_173P8rtx_insnPP7rtx_def @1804
    _Z13gen_split_174P8rtx_insnPP7rtx_def @1805
    _Z13gen_split_175P8rtx_insnPP7rtx_def @1806
    _Z13gen_split_176P8rtx_insnPP7rtx_def @1807
    _Z13gen_split_177P8rtx_insnPP7rtx_def @1808
    _Z13gen_split_178P8rtx_insnPP7rtx_def @1809
    _Z13gen_split_179P8rtx_insnPP7rtx_def @1810
    _Z13gen_split_180P8rtx_insnPP7rtx_def @1811
    _Z13gen_split_181P8rtx_insnPP7rtx_def @1812
    _Z13gen_split_182P8rtx_insnPP7rtx_def @1813
    _Z13gen_split_183P8rtx_insnPP7rtx_def @1814
    _Z13gen_split_184P8rtx_insnPP7rtx_def @1815
    _Z13gen_split_185P8rtx_insnPP7rtx_def @1816
    _Z13gen_split_186P8rtx_insnPP7rtx_def @1817
    _Z13gen_split_187P8rtx_insnPP7rtx_def @1818
    _Z13gen_split_188P8rtx_insnPP7rtx_def @1819
    _Z13gen_split_189P8rtx_insnPP7rtx_def @1820
    _Z13gen_split_190P8rtx_insnPP7rtx_def @1821
    _Z13gen_split_191P8rtx_insnPP7rtx_def @1822
    _Z13gen_split_192P8rtx_insnPP7rtx_def @1823
    _Z13gen_split_193P8rtx_insnPP7rtx_def @1824
    _Z13gen_split_194P8rtx_insnPP7rtx_def @1825
    _Z13gen_split_195P8rtx_insnPP7rtx_def @1826
    _Z13gen_split_196P8rtx_insnPP7rtx_def @1827
    _Z13gen_split_197P8rtx_insnPP7rtx_def @1828
    _Z13gen_split_198P8rtx_insnPP7rtx_def @1829
    _Z13gen_split_199P8rtx_insnPP7rtx_def @1830
    _Z13gen_split_200P8rtx_insnPP7rtx_def @1831
    _Z13gen_split_201P8rtx_insnPP7rtx_def @1832
    _Z13gen_split_202P8rtx_insnPP7rtx_def @1833
    _Z13gen_split_203P8rtx_insnPP7rtx_def @1834
    _Z13gen_split_204P8rtx_insnPP7rtx_def @1835
    _Z13gen_split_205P8rtx_insnPP7rtx_def @1836
    _Z13gen_split_206P8rtx_insnPP7rtx_def @1837
    _Z13gen_split_207P8rtx_insnPP7rtx_def @1838
    _Z13gen_split_208P8rtx_insnPP7rtx_def @1839
    _Z13gen_split_209P8rtx_insnPP7rtx_def @1840
    _Z13gen_split_210P8rtx_insnPP7rtx_def @1841
    _Z13gen_split_211P8rtx_insnPP7rtx_def @1842
    _Z13gen_split_212P8rtx_insnPP7rtx_def @1843
    _Z13gen_split_213P8rtx_insnPP7rtx_def @1844
    _Z13gen_split_214P8rtx_insnPP7rtx_def @1845
    _Z13gen_split_215P8rtx_insnPP7rtx_def @1846
    _Z13gen_split_216P8rtx_insnPP7rtx_def @1847
    _Z13gen_split_217P8rtx_insnPP7rtx_def @1848
    _Z13gen_split_218P8rtx_insnPP7rtx_def @1849
    _Z13gen_split_219P8rtx_insnPP7rtx_def @1850
    _Z13gen_split_220P8rtx_insnPP7rtx_def @1851
    _Z13gen_split_221P8rtx_insnPP7rtx_def @1852
    _Z13gen_split_222P8rtx_insnPP7rtx_def @1853
    _Z13gen_split_223P8rtx_insnPP7rtx_def @1854
    _Z13gen_split_224P8rtx_insnPP7rtx_def @1855
    _Z13gen_split_225P8rtx_insnPP7rtx_def @1856
    _Z13gen_split_226P8rtx_insnPP7rtx_def @1857
    _Z13gen_split_227P8rtx_insnPP7rtx_def @1858
    _Z13gen_split_228P8rtx_insnPP7rtx_def @1859
    _Z13gen_split_229P8rtx_insnPP7rtx_def @1860
    _Z13gen_split_230P8rtx_insnPP7rtx_def @1861
    _Z13gen_split_231P8rtx_insnPP7rtx_def @1862
    _Z13gen_split_232P8rtx_insnPP7rtx_def @1863
    _Z13gen_split_233P8rtx_insnPP7rtx_def @1864
    _Z13gen_split_234P8rtx_insnPP7rtx_def @1865
    _Z13gen_split_235P8rtx_insnPP7rtx_def @1866
    _Z13gen_split_236P8rtx_insnPP7rtx_def @1867
    _Z13gen_split_237P8rtx_insnPP7rtx_def @1868
    _Z13gen_split_238P8rtx_insnPP7rtx_def @1869
    _Z13gen_split_239P8rtx_insnPP7rtx_def @1870
    _Z13gen_split_240P8rtx_insnPP7rtx_def @1871
    _Z13gen_split_241P8rtx_insnPP7rtx_def @1872
    _Z13gen_split_242P8rtx_insnPP7rtx_def @1873
    _Z13gen_split_243P8rtx_insnPP7rtx_def @1874
    _Z13gen_split_244P8rtx_insnPP7rtx_def @1875
    _Z13gen_split_245P8rtx_insnPP7rtx_def @1876
    _Z13gen_split_246P8rtx_insnPP7rtx_def @1877
    _Z13gen_split_247P8rtx_insnPP7rtx_def @1878
    _Z13gen_split_248P8rtx_insnPP7rtx_def @1879
    _Z13gen_split_249P8rtx_insnPP7rtx_def @1880
    _Z13gen_split_250P8rtx_insnPP7rtx_def @1881
    _Z13gen_split_251P8rtx_insnPP7rtx_def @1882
    _Z13gen_split_252P8rtx_insnPP7rtx_def @1883
    _Z13gen_split_253P8rtx_insnPP7rtx_def @1884
    _Z13gen_split_254P8rtx_insnPP7rtx_def @1885
    _Z13gen_split_255P8rtx_insnPP7rtx_def @1886
    _Z13gen_split_256P8rtx_insnPP7rtx_def @1887
    _Z13gen_split_257P8rtx_insnPP7rtx_def @1888
    _Z13gen_split_258P8rtx_insnPP7rtx_def @1889
    _Z13gen_split_259P8rtx_insnPP7rtx_def @1890
    _Z13gen_split_260P8rtx_insnPP7rtx_def @1891
    _Z13gen_split_261P8rtx_insnPP7rtx_def @1892
    _Z13gen_split_262P8rtx_insnPP7rtx_def @1893
    _Z13gen_split_263P8rtx_insnPP7rtx_def @1894
    _Z13gen_split_264P8rtx_insnPP7rtx_def @1895
    _Z13gen_split_265P8rtx_insnPP7rtx_def @1896
    _Z13gen_split_266P8rtx_insnPP7rtx_def @1897
    _Z13gen_split_267P8rtx_insnPP7rtx_def @1898
    _Z13gen_split_268P8rtx_insnPP7rtx_def @1899
    _Z13gen_split_269P8rtx_insnPP7rtx_def @1900
    _Z13gen_split_270P8rtx_insnPP7rtx_def @1901
    _Z13gen_split_271P8rtx_insnPP7rtx_def @1902
    _Z13gen_split_272P8rtx_insnPP7rtx_def @1903
    _Z13gen_split_273P8rtx_insnPP7rtx_def @1904
    _Z13gen_split_274P8rtx_insnPP7rtx_def @1905
    _Z13gen_split_275P8rtx_insnPP7rtx_def @1906
    _Z13gen_split_276P8rtx_insnPP7rtx_def @1907
    _Z13gen_split_277P8rtx_insnPP7rtx_def @1908
    _Z13gen_split_278P8rtx_insnPP7rtx_def @1909
    _Z13gen_split_279P8rtx_insnPP7rtx_def @1910
    _Z13gen_split_280P8rtx_insnPP7rtx_def @1911
    _Z13gen_split_281P8rtx_insnPP7rtx_def @1912
    _Z13gen_split_282P8rtx_insnPP7rtx_def @1913
    _Z13gen_split_283P8rtx_insnPP7rtx_def @1914
    _Z13gen_split_284P8rtx_insnPP7rtx_def @1915
    _Z13gen_split_285P8rtx_insnPP7rtx_def @1916
    _Z13gen_split_286P8rtx_insnPP7rtx_def @1917
    _Z13gen_split_287P8rtx_insnPP7rtx_def @1918
    _Z13gen_split_288P8rtx_insnPP7rtx_def @1919
    _Z13gen_split_289P8rtx_insnPP7rtx_def @1920
    _Z13gen_split_290P8rtx_insnPP7rtx_def @1921
    _Z13gen_split_291P8rtx_insnPP7rtx_def @1922
    _Z13gen_split_292P8rtx_insnPP7rtx_def @1923
    _Z13gen_split_293P8rtx_insnPP7rtx_def @1924
    _Z13gen_split_294P8rtx_insnPP7rtx_def @1925
    _Z13gen_split_295P8rtx_insnPP7rtx_def @1926
    _Z13gen_split_296P8rtx_insnPP7rtx_def @1927
    _Z13gen_split_297P8rtx_insnPP7rtx_def @1928
    _Z13gen_split_298P8rtx_insnPP7rtx_def @1929
    _Z13gen_split_299P8rtx_insnPP7rtx_def @1930
    _Z13gen_split_300P8rtx_insnPP7rtx_def @1931
    _Z13gen_split_301P8rtx_insnPP7rtx_def @1932
    _Z13gen_split_302P8rtx_insnPP7rtx_def @1933
    _Z13gen_split_303P8rtx_insnPP7rtx_def @1934
    _Z13gen_split_304P8rtx_insnPP7rtx_def @1935
    _Z13gen_split_305P8rtx_insnPP7rtx_def @1936
    _Z13gen_split_306P8rtx_insnPP7rtx_def @1937
    _Z13gen_split_307P8rtx_insnPP7rtx_def @1938
    _Z13gen_split_308P8rtx_insnPP7rtx_def @1939
    _Z13gen_split_309P8rtx_insnPP7rtx_def @1940
    _Z13gen_split_310P8rtx_insnPP7rtx_def @1941
    _Z13gen_split_311P8rtx_insnPP7rtx_def @1942
    _Z13gen_split_312P8rtx_insnPP7rtx_def @1943
    _Z13gen_split_313P8rtx_insnPP7rtx_def @1944
    _Z13gen_split_314P8rtx_insnPP7rtx_def @1945
    _Z13gen_split_315P8rtx_insnPP7rtx_def @1946
    _Z13gen_split_316P8rtx_insnPP7rtx_def @1947
    _Z13gen_split_317P8rtx_insnPP7rtx_def @1948
    _Z13gen_split_318P8rtx_insnPP7rtx_def @1949
    _Z13gen_split_319P8rtx_insnPP7rtx_def @1950
    _Z13gen_split_320P8rtx_insnPP7rtx_def @1951
    _Z13gen_split_321P8rtx_insnPP7rtx_def @1952
    _Z13gen_split_322P8rtx_insnPP7rtx_def @1953
    _Z13gen_split_323P8rtx_insnPP7rtx_def @1954
    _Z13gen_split_324P8rtx_insnPP7rtx_def @1955
    _Z13gen_split_325P8rtx_insnPP7rtx_def @1956
    _Z13gen_split_326P8rtx_insnPP7rtx_def @1957
    _Z13gen_split_327P8rtx_insnPP7rtx_def @1958
    _Z13gen_split_328P8rtx_insnPP7rtx_def @1959
    _Z13gen_split_329P8rtx_insnPP7rtx_def @1960
    _Z13gen_split_330P8rtx_insnPP7rtx_def @1961
    _Z13gen_split_331P8rtx_insnPP7rtx_def @1962
    _Z13gen_split_332P8rtx_insnPP7rtx_def @1963
    _Z13gen_split_333P8rtx_insnPP7rtx_def @1964
    _Z13gen_split_334P8rtx_insnPP7rtx_def @1965
    _Z13gen_split_335P8rtx_insnPP7rtx_def @1966
    _Z13gen_split_336P8rtx_insnPP7rtx_def @1967
    _Z13gen_split_337P8rtx_insnPP7rtx_def @1968
    _Z13gen_split_338P8rtx_insnPP7rtx_def @1969
    _Z13gen_split_339P8rtx_insnPP7rtx_def @1970
    _Z13gen_split_340P8rtx_insnPP7rtx_def @1971
    _Z13gen_split_341P8rtx_insnPP7rtx_def @1972
    _Z13gen_split_342P8rtx_insnPP7rtx_def @1973
    _Z13gen_split_343P8rtx_insnPP7rtx_def @1974
    _Z13gen_split_344P8rtx_insnPP7rtx_def @1975
    _Z13gen_split_345P8rtx_insnPP7rtx_def @1976
    _Z13gen_split_346P8rtx_insnPP7rtx_def @1977
    _Z13gen_split_347P8rtx_insnPP7rtx_def @1978
    _Z13gen_split_348P8rtx_insnPP7rtx_def @1979
    _Z13gen_split_349P8rtx_insnPP7rtx_def @1980
    _Z13gen_split_350P8rtx_insnPP7rtx_def @1981
    _Z13gen_split_351P8rtx_insnPP7rtx_def @1982
    _Z13gen_split_352P8rtx_insnPP7rtx_def @1983
    _Z13gen_split_353P8rtx_insnPP7rtx_def @1984
    _Z13gen_split_354P8rtx_insnPP7rtx_def @1985
    _Z13gen_split_355P8rtx_insnPP7rtx_def @1986
    _Z13gen_split_356P8rtx_insnPP7rtx_def @1987
    _Z13gen_split_357P8rtx_insnPP7rtx_def @1988
    _Z13gen_split_358P8rtx_insnPP7rtx_def @1989
    _Z13gen_split_359P8rtx_insnPP7rtx_def @1990
    _Z13gen_split_360P8rtx_insnPP7rtx_def @1991
    _Z13gen_split_361P8rtx_insnPP7rtx_def @1992
    _Z13gen_split_362P8rtx_insnPP7rtx_def @1993
    _Z13gen_split_363P8rtx_insnPP7rtx_def @1994
    _Z13gen_split_364P8rtx_insnPP7rtx_def @1995
    _Z13gen_split_365P8rtx_insnPP7rtx_def @1996
    _Z13gen_split_366P8rtx_insnPP7rtx_def @1997
    _Z13gen_split_367P8rtx_insnPP7rtx_def @1998
    _Z13gen_split_368P8rtx_insnPP7rtx_def @1999
    _Z13gen_split_369P8rtx_insnPP7rtx_def @2000
    _Z13gen_split_370P8rtx_insnPP7rtx_def @2001
    _Z13gen_split_371P8rtx_insnPP7rtx_def @2002
    _Z13gen_split_372P8rtx_insnPP7rtx_def @2003
    _Z13gen_split_373P8rtx_insnPP7rtx_def @2004
    _Z13gen_split_374P8rtx_insnPP7rtx_def @2005
    _Z13gen_split_375P8rtx_insnPP7rtx_def @2006
    _Z13gen_split_376P8rtx_insnPP7rtx_def @2007
    _Z13gen_split_377P8rtx_insnPP7rtx_def @2008
    _Z13gen_split_378P8rtx_insnPP7rtx_def @2009
    _Z13gen_split_379P8rtx_insnPP7rtx_def @2010
    _Z13gen_split_380P8rtx_insnPP7rtx_def @2011
    _Z13gen_split_381P8rtx_insnPP7rtx_def @2012
    _Z13gen_split_382P8rtx_insnPP7rtx_def @2013
    _Z13gen_split_383P8rtx_insnPP7rtx_def @2014
    _Z13gen_split_384P8rtx_insnPP7rtx_def @2015
    _Z13gen_split_385P8rtx_insnPP7rtx_def @2016
    _Z13gen_split_386P8rtx_insnPP7rtx_def @2017
    _Z13gen_split_387P8rtx_insnPP7rtx_def @2018
    _Z13gen_split_388P8rtx_insnPP7rtx_def @2019
    _Z13gen_split_389P8rtx_insnPP7rtx_def @2020
    _Z13gen_split_390P8rtx_insnPP7rtx_def @2021
    _Z13gen_split_391P8rtx_insnPP7rtx_def @2022
    _Z13gen_split_392P8rtx_insnPP7rtx_def @2023
    _Z13gen_split_393P8rtx_insnPP7rtx_def @2024
    _Z13gen_split_394P8rtx_insnPP7rtx_def @2025
    _Z13gen_split_395P8rtx_insnPP7rtx_def @2026
    _Z13gen_split_396P8rtx_insnPP7rtx_def @2027
    _Z13gen_split_397P8rtx_insnPP7rtx_def @2028
    _Z13gen_split_398P8rtx_insnPP7rtx_def @2029
    _Z13gen_split_399P8rtx_insnPP7rtx_def @2030
    _Z13gen_split_400P8rtx_insnPP7rtx_def @2031
    _Z13gen_split_401P8rtx_insnPP7rtx_def @2032
    _Z13gen_split_402P8rtx_insnPP7rtx_def @2033
    _Z13gen_split_403P8rtx_insnPP7rtx_def @2034
    _Z13gen_split_404P8rtx_insnPP7rtx_def @2035
    _Z13gen_split_405P8rtx_insnPP7rtx_def @2036
    _Z13gen_split_406P8rtx_insnPP7rtx_def @2037
    _Z13gen_split_407P8rtx_insnPP7rtx_def @2038
    _Z13gen_split_408P8rtx_insnPP7rtx_def @2039
    _Z13gen_split_409P8rtx_insnPP7rtx_def @2040
    _Z13gen_split_410P8rtx_insnPP7rtx_def @2041
    _Z13gen_split_411P8rtx_insnPP7rtx_def @2042
    _Z13gen_split_412P8rtx_insnPP7rtx_def @2043
    _Z13gen_split_413P8rtx_insnPP7rtx_def @2044
    _Z13gen_split_414P8rtx_insnPP7rtx_def @2045
    _Z13gen_split_415P8rtx_insnPP7rtx_def @2046
    _Z13gen_split_416P8rtx_insnPP7rtx_def @2047
    _Z13gen_split_417P8rtx_insnPP7rtx_def @2048
    _Z13gen_split_418P8rtx_insnPP7rtx_def @2049
    _Z13gen_split_419P8rtx_insnPP7rtx_def @2050
    _Z13gen_split_420P8rtx_insnPP7rtx_def @2051
    _Z13gen_split_421P8rtx_insnPP7rtx_def @2052
    _Z13gen_split_422P8rtx_insnPP7rtx_def @2053
    _Z13gen_split_423P8rtx_insnPP7rtx_def @2054
    _Z13gen_split_424P8rtx_insnPP7rtx_def @2055
    _Z13gen_split_425P8rtx_insnPP7rtx_def @2056
    _Z13gen_split_426P8rtx_insnPP7rtx_def @2057
    _Z13gen_split_427P8rtx_insnPP7rtx_def @2058
    _Z13gen_split_428P8rtx_insnPP7rtx_def @2059
    _Z13gen_split_429P8rtx_insnPP7rtx_def @2060
    _Z13gen_split_430P8rtx_insnPP7rtx_def @2061
    _Z13gen_split_431P8rtx_insnPP7rtx_def @2062
    _Z13gen_split_432P8rtx_insnPP7rtx_def @2063
    _Z13gen_split_433P8rtx_insnPP7rtx_def @2064
    _Z13gen_split_434P8rtx_insnPP7rtx_def @2065
    _Z13gen_split_435P8rtx_insnPP7rtx_def @2066
    _Z13gen_split_436P8rtx_insnPP7rtx_def @2067
    _Z13gen_split_437P8rtx_insnPP7rtx_def @2068
    _Z13gen_split_438P8rtx_insnPP7rtx_def @2069
    _Z13gen_split_439P8rtx_insnPP7rtx_def @2070
    _Z13gen_split_440P8rtx_insnPP7rtx_def @2071
    _Z13gen_split_441P8rtx_insnPP7rtx_def @2072
    _Z13gen_split_442P8rtx_insnPP7rtx_def @2073
    _Z13gen_split_443P8rtx_insnPP7rtx_def @2074
    _Z13gen_split_444P8rtx_insnPP7rtx_def @2075
    _Z13gen_split_445P8rtx_insnPP7rtx_def @2076
    _Z13gen_split_446P8rtx_insnPP7rtx_def @2077
    _Z13gen_split_447P8rtx_insnPP7rtx_def @2078
    _Z13gen_split_448P8rtx_insnPP7rtx_def @2079
    _Z13gen_split_449P8rtx_insnPP7rtx_def @2080
    _Z13gen_split_450P8rtx_insnPP7rtx_def @2081
    _Z13gen_split_451P8rtx_insnPP7rtx_def @2082
    _Z13gen_split_452P8rtx_insnPP7rtx_def @2083
    _Z13gen_split_453P8rtx_insnPP7rtx_def @2084
    _Z13gen_split_454P8rtx_insnPP7rtx_def @2085
    _Z13gen_split_455P8rtx_insnPP7rtx_def @2086
    _Z13gen_split_456P8rtx_insnPP7rtx_def @2087
    _Z13gen_split_457P8rtx_insnPP7rtx_def @2088
    _Z13gen_split_458P8rtx_insnPP7rtx_def @2089
    _Z13gen_split_459P8rtx_insnPP7rtx_def @2090
    _Z13gen_split_460P8rtx_insnPP7rtx_def @2091
    _Z13gen_split_461P8rtx_insnPP7rtx_def @2092
    _Z13gen_split_462P8rtx_insnPP7rtx_def @2093
    _Z13gen_split_463P8rtx_insnPP7rtx_def @2094
    _Z13gen_split_464P8rtx_insnPP7rtx_def @2095
    _Z13gen_split_465P8rtx_insnPP7rtx_def @2096
    _Z13gen_split_466P8rtx_insnPP7rtx_def @2097
    _Z13gen_split_467P8rtx_insnPP7rtx_def @2098
    _Z13gen_split_468P8rtx_insnPP7rtx_def @2099
    _Z13gen_split_469P8rtx_insnPP7rtx_def @2100
    _Z13gen_split_470P8rtx_insnPP7rtx_def @2101
    _Z13gen_split_471P8rtx_insnPP7rtx_def @2102
    _Z13gen_split_472P8rtx_insnPP7rtx_def @2103
    _Z13gen_split_473P8rtx_insnPP7rtx_def @2104
    _Z13gen_split_474P8rtx_insnPP7rtx_def @2105
    _Z13gen_split_475P8rtx_insnPP7rtx_def @2106
    _Z13gen_split_476P8rtx_insnPP7rtx_def @2107
    _Z13gen_split_477P8rtx_insnPP7rtx_def @2108
    _Z13gen_split_478P8rtx_insnPP7rtx_def @2109
    _Z13gen_split_479P8rtx_insnPP7rtx_def @2110
    _Z13gen_split_480P8rtx_insnPP7rtx_def @2111
    _Z13gen_split_481P8rtx_insnPP7rtx_def @2112
    _Z13gen_split_482P8rtx_insnPP7rtx_def @2113
    _Z13gen_split_483P8rtx_insnPP7rtx_def @2114
    _Z13gen_split_484P8rtx_insnPP7rtx_def @2115
    _Z13gen_split_485P8rtx_insnPP7rtx_def @2116
    _Z13gen_split_486P8rtx_insnPP7rtx_def @2117
    _Z13gen_split_487P8rtx_insnPP7rtx_def @2118
    _Z13gen_split_488P8rtx_insnPP7rtx_def @2119
    _Z13gen_split_489P8rtx_insnPP7rtx_def @2120
    _Z13gen_split_490P8rtx_insnPP7rtx_def @2121
    _Z13gen_split_491P8rtx_insnPP7rtx_def @2122
    _Z13gen_split_492P8rtx_insnPP7rtx_def @2123
    _Z13gen_split_493P8rtx_insnPP7rtx_def @2124
    _Z13gen_split_494P8rtx_insnPP7rtx_def @2125
    _Z13gen_split_495P8rtx_insnPP7rtx_def @2126
    _Z13gen_split_496P8rtx_insnPP7rtx_def @2127
    _Z13gen_split_497P8rtx_insnPP7rtx_def @2128
    _Z13gen_split_498P8rtx_insnPP7rtx_def @2129
    _Z13gen_split_499P8rtx_insnPP7rtx_def @2130
    _Z13gen_split_500P8rtx_insnPP7rtx_def @2131
    _Z13gen_split_501P8rtx_insnPP7rtx_def @2132
    _Z13gen_split_502P8rtx_insnPP7rtx_def @2133
    _Z13gen_split_503P8rtx_insnPP7rtx_def @2134
    _Z13gen_split_504P8rtx_insnPP7rtx_def @2135
    _Z13gen_split_505P8rtx_insnPP7rtx_def @2136
    _Z13gen_split_506P8rtx_insnPP7rtx_def @2137
    _Z13gen_split_507P8rtx_insnPP7rtx_def @2138
    _Z13gen_split_508P8rtx_insnPP7rtx_def @2139
    _Z13gen_split_509P8rtx_insnPP7rtx_def @2140
    _Z13gen_split_510P8rtx_insnPP7rtx_def @2141
    _Z13gen_split_511P8rtx_insnPP7rtx_def @2142
    _Z13gen_split_512P8rtx_insnPP7rtx_def @2143
    _Z13gen_split_513P8rtx_insnPP7rtx_def @2144
    _Z13gen_split_514P8rtx_insnPP7rtx_def @2145
    _Z13gen_split_515P8rtx_insnPP7rtx_def @2146
    _Z13gen_split_516P8rtx_insnPP7rtx_def @2147
    _Z13gen_split_517P8rtx_insnPP7rtx_def @2148
    _Z13gen_split_518P8rtx_insnPP7rtx_def @2149
    _Z13gen_split_519P8rtx_insnPP7rtx_def @2150
    _Z13gen_split_520P8rtx_insnPP7rtx_def @2151
    _Z13gen_split_521P8rtx_insnPP7rtx_def @2152
    _Z13gen_split_522P8rtx_insnPP7rtx_def @2153
    _Z13gen_split_523P8rtx_insnPP7rtx_def @2154
    _Z13gen_split_524P8rtx_insnPP7rtx_def @2155
    _Z13gen_split_525P8rtx_insnPP7rtx_def @2156
    _Z13gen_split_526P8rtx_insnPP7rtx_def @2157
    _Z13gen_split_527P8rtx_insnPP7rtx_def @2158
    _Z13gen_split_528P8rtx_insnPP7rtx_def @2159
    _Z13gen_split_529P8rtx_insnPP7rtx_def @2160
    _Z13gen_split_530P8rtx_insnPP7rtx_def @2161
    _Z13gen_split_531P8rtx_insnPP7rtx_def @2162
    _Z13gen_split_532P8rtx_insnPP7rtx_def @2163
    _Z13gen_split_533P8rtx_insnPP7rtx_def @2164
    _Z13gen_split_534P8rtx_insnPP7rtx_def @2165
    _Z13gen_split_535P8rtx_insnPP7rtx_def @2166
    _Z13gen_split_536P8rtx_insnPP7rtx_def @2167
    _Z13gen_split_537P8rtx_insnPP7rtx_def @2168
    _Z13gen_split_538P8rtx_insnPP7rtx_def @2169
    _Z13gen_split_539P8rtx_insnPP7rtx_def @2170
    _Z13gen_split_540P8rtx_insnPP7rtx_def @2171
    _Z13gen_split_541P8rtx_insnPP7rtx_def @2172
    _Z13gen_split_542P8rtx_insnPP7rtx_def @2173
    _Z13gen_split_543P8rtx_insnPP7rtx_def @2174
    _Z13gen_split_544P8rtx_insnPP7rtx_def @2175
    _Z13gen_split_545P8rtx_insnPP7rtx_def @2176
    _Z13gen_split_546P8rtx_insnPP7rtx_def @2177
    _Z13gen_split_547P8rtx_insnPP7rtx_def @2178
    _Z13gen_split_548P8rtx_insnPP7rtx_def @2179
    _Z13gen_split_549P8rtx_insnPP7rtx_def @2180
    _Z13gen_split_550P8rtx_insnPP7rtx_def @2181
    _Z13gen_split_551P8rtx_insnPP7rtx_def @2182
    _Z13gen_split_552P8rtx_insnPP7rtx_def @2183
    _Z13gen_split_553P8rtx_insnPP7rtx_def @2184
    _Z13gen_split_554P8rtx_insnPP7rtx_def @2185
    _Z13gen_split_555P8rtx_insnPP7rtx_def @2186
    _Z13gen_split_556P8rtx_insnPP7rtx_def @2187
    _Z13gen_split_557P8rtx_insnPP7rtx_def @2188
    _Z13gen_split_558P8rtx_insnPP7rtx_def @2189
    _Z13gen_split_559P8rtx_insnPP7rtx_def @2190
    _Z13gen_split_560P8rtx_insnPP7rtx_def @2191
    _Z13gen_split_561P8rtx_insnPP7rtx_def @2192
    _Z13gen_split_562P8rtx_insnPP7rtx_def @2193
    _Z13gen_split_563P8rtx_insnPP7rtx_def @2194
    _Z13gen_split_564P8rtx_insnPP7rtx_def @2195
    _Z13gen_split_565P8rtx_insnPP7rtx_def @2196
    _Z13gen_split_566P8rtx_insnPP7rtx_def @2197
    _Z13gen_split_567P8rtx_insnPP7rtx_def @2198
    _Z13gen_split_568P8rtx_insnPP7rtx_def @2199
    _Z13gen_split_569P8rtx_insnPP7rtx_def @2200
    _Z13gen_split_570P8rtx_insnPP7rtx_def @2201
    _Z13gen_split_571P8rtx_insnPP7rtx_def @2202
    _Z13gen_split_572P8rtx_insnPP7rtx_def @2203
    _Z13gen_split_573P8rtx_insnPP7rtx_def @2204
    _Z13gen_split_574P8rtx_insnPP7rtx_def @2205
    _Z13gen_split_575P8rtx_insnPP7rtx_def @2206
    _Z13gen_split_576P8rtx_insnPP7rtx_def @2207
    _Z13gen_split_577P8rtx_insnPP7rtx_def @2208
    _Z13gen_split_578P8rtx_insnPP7rtx_def @2209
    _Z13gen_split_579P8rtx_insnPP7rtx_def @2210
    _Z13gen_split_580P8rtx_insnPP7rtx_def @2211
    _Z13gen_split_581P8rtx_insnPP7rtx_def @2212
    _Z13gen_split_582P8rtx_insnPP7rtx_def @2213
    _Z13gen_split_583P8rtx_insnPP7rtx_def @2214
    _Z13gen_split_584P8rtx_insnPP7rtx_def @2215
    _Z13gen_split_585P8rtx_insnPP7rtx_def @2216
    _Z13gen_split_586P8rtx_insnPP7rtx_def @2217
    _Z13gen_split_587P8rtx_insnPP7rtx_def @2218
    _Z13gen_split_588P8rtx_insnPP7rtx_def @2219
    _Z13gen_split_589P8rtx_insnPP7rtx_def @2220
    _Z13gen_split_590P8rtx_insnPP7rtx_def @2221
    _Z13gen_split_591P8rtx_insnPP7rtx_def @2222
    _Z13gen_split_592P8rtx_insnPP7rtx_def @2223
    _Z13gen_split_593P8rtx_insnPP7rtx_def @2224
    _Z13gen_split_594P8rtx_insnPP7rtx_def @2225
    _Z13gen_split_595P8rtx_insnPP7rtx_def @2226
    _Z13gen_split_596P8rtx_insnPP7rtx_def @2227
    _Z13gen_split_597P8rtx_insnPP7rtx_def @2228
    _Z13gen_split_598P8rtx_insnPP7rtx_def @2229
    _Z13gen_split_599P8rtx_insnPP7rtx_def @2230
    _Z13gen_split_600P8rtx_insnPP7rtx_def @2231
    _Z13gen_split_601P8rtx_insnPP7rtx_def @2232
    _Z13gen_split_602P8rtx_insnPP7rtx_def @2233
    _Z13gen_split_603P8rtx_insnPP7rtx_def @2234
    _Z13gen_split_604P8rtx_insnPP7rtx_def @2235
    _Z13gen_split_605P8rtx_insnPP7rtx_def @2236
    _Z13gen_split_606P8rtx_insnPP7rtx_def @2237
    _Z13gen_split_607P8rtx_insnPP7rtx_def @2238
    _Z13gen_split_608P8rtx_insnPP7rtx_def @2239
    _Z13gen_split_609P8rtx_insnPP7rtx_def @2240
    _Z13gen_split_610P8rtx_insnPP7rtx_def @2241
    _Z13gen_split_611P8rtx_insnPP7rtx_def @2242
    _Z13gen_split_612P8rtx_insnPP7rtx_def @2243
    _Z13gen_split_613P8rtx_insnPP7rtx_def @2244
    _Z13gen_split_614P8rtx_insnPP7rtx_def @2245
    _Z13gen_split_615P8rtx_insnPP7rtx_def @2246
    _Z13gen_split_616P8rtx_insnPP7rtx_def @2247
    _Z13gen_split_617P8rtx_insnPP7rtx_def @2248
    _Z13gen_split_618P8rtx_insnPP7rtx_def @2249
    _Z13gen_split_619P8rtx_insnPP7rtx_def @2250
    _Z13gen_split_620P8rtx_insnPP7rtx_def @2251
    _Z13gen_split_621P8rtx_insnPP7rtx_def @2252
    _Z13gen_split_622P8rtx_insnPP7rtx_def @2253
    _Z13gen_split_623P8rtx_insnPP7rtx_def @2254
    _Z13gen_split_624P8rtx_insnPP7rtx_def @2255
    _Z13gen_split_625P8rtx_insnPP7rtx_def @2256
    _Z13gen_split_626P8rtx_insnPP7rtx_def @2257
    _Z13gen_split_627P8rtx_insnPP7rtx_def @2258
    _Z13gen_split_628P8rtx_insnPP7rtx_def @2259
    _Z13gen_split_629P8rtx_insnPP7rtx_def @2260
    _Z13gen_split_630P8rtx_insnPP7rtx_def @2261
    _Z13gen_split_631P8rtx_insnPP7rtx_def @2262
    _Z13gen_split_632P8rtx_insnPP7rtx_def @2263
    _Z13gen_split_633P8rtx_insnPP7rtx_def @2264
    _Z13gen_split_634P8rtx_insnPP7rtx_def @2265
    _Z13gen_split_635P8rtx_insnPP7rtx_def @2266
    _Z13gen_split_636P8rtx_insnPP7rtx_def @2267
    _Z13gen_split_637P8rtx_insnPP7rtx_def @2268
    _Z13gen_split_638P8rtx_insnPP7rtx_def @2269
    _Z13gen_split_639P8rtx_insnPP7rtx_def @2270
    _Z13gen_split_640P8rtx_insnPP7rtx_def @2271
    _Z13gen_split_641P8rtx_insnPP7rtx_def @2272
    _Z13gen_split_642P8rtx_insnPP7rtx_def @2273
    _Z13gen_split_643P8rtx_insnPP7rtx_def @2274
    _Z13gen_split_644P8rtx_insnPP7rtx_def @2275
    _Z13gen_split_645P8rtx_insnPP7rtx_def @2276
    _Z13gen_split_646P8rtx_insnPP7rtx_def @2277
    _Z13gen_split_647P8rtx_insnPP7rtx_def @2278
    _Z13gen_split_648P8rtx_insnPP7rtx_def @2279
    _Z13gen_split_649P8rtx_insnPP7rtx_def @2280
    _Z13gen_split_650P8rtx_insnPP7rtx_def @2281
    _Z13gen_split_651P8rtx_insnPP7rtx_def @2282
    _Z13gen_split_652P8rtx_insnPP7rtx_def @2283
    _Z13gen_split_653P8rtx_insnPP7rtx_def @2284
    _Z13gen_split_654P8rtx_insnPP7rtx_def @2285
    _Z13gen_split_655P8rtx_insnPP7rtx_def @2286
    _Z13gen_split_656P8rtx_insnPP7rtx_def @2287
    _Z13gen_split_657P8rtx_insnPP7rtx_def @2288
    _Z13gen_split_658P8rtx_insnPP7rtx_def @2289
    _Z13gen_split_659P8rtx_insnPP7rtx_def @2290
    _Z13gen_split_660P8rtx_insnPP7rtx_def @2291
    _Z13gen_split_661P8rtx_insnPP7rtx_def @2292
    _Z13gen_split_662P8rtx_insnPP7rtx_def @2293
    _Z13gen_split_663P8rtx_insnPP7rtx_def @2294
    _Z13gen_split_664P8rtx_insnPP7rtx_def @2295
    _Z13gen_split_665P8rtx_insnPP7rtx_def @2296
    _Z13gen_split_666P8rtx_insnPP7rtx_def @2297
    _Z13gen_split_667P8rtx_insnPP7rtx_def @2298
    _Z13gen_split_668P8rtx_insnPP7rtx_def @2299
    _Z13gen_split_669P8rtx_insnPP7rtx_def @2300
    _Z13gen_split_670P8rtx_insnPP7rtx_def @2301
    _Z13gen_split_671P8rtx_insnPP7rtx_def @2302
    _Z13gen_split_672P8rtx_insnPP7rtx_def @2303
    _Z13gen_split_673P8rtx_insnPP7rtx_def @2304
    _Z13gen_split_674P8rtx_insnPP7rtx_def @2305
    _Z13gen_split_675P8rtx_insnPP7rtx_def @2306
    _Z13gen_split_676P8rtx_insnPP7rtx_def @2307
    _Z13gen_split_677P8rtx_insnPP7rtx_def @2308
    _Z13gen_split_678P8rtx_insnPP7rtx_def @2309
    _Z13gen_split_679P8rtx_insnPP7rtx_def @2310
    _Z13gen_split_680P8rtx_insnPP7rtx_def @2311
    _Z13gen_split_681P8rtx_insnPP7rtx_def @2312
    _Z13gen_split_682P8rtx_insnPP7rtx_def @2313
    _Z13gen_split_683P8rtx_insnPP7rtx_def @2314
    _Z13gen_split_684P8rtx_insnPP7rtx_def @2315
    _Z13gen_split_685P8rtx_insnPP7rtx_def @2316
    _Z13gen_split_686P8rtx_insnPP7rtx_def @2317
    _Z13gen_split_687P8rtx_insnPP7rtx_def @2318
    _Z13gen_split_688P8rtx_insnPP7rtx_def @2319
    _Z13gen_split_689P8rtx_insnPP7rtx_def @2320
    _Z13gen_split_690P8rtx_insnPP7rtx_def @2321
    _Z13gen_split_691P8rtx_insnPP7rtx_def @2322
    _Z13gen_split_692P8rtx_insnPP7rtx_def @2323
    _Z13gen_split_693P8rtx_insnPP7rtx_def @2324
    _Z13gen_split_694P8rtx_insnPP7rtx_def @2325
    _Z13gen_split_695P8rtx_insnPP7rtx_def @2326
    _Z13gen_split_696P8rtx_insnPP7rtx_def @2327
    _Z13gen_split_697P8rtx_insnPP7rtx_def @2328
    _Z13gen_split_698P8rtx_insnPP7rtx_def @2329
    _Z13gen_split_699P8rtx_insnPP7rtx_def @2330
    _Z13gen_split_700P8rtx_insnPP7rtx_def @2331
    _Z13gen_split_701P8rtx_insnPP7rtx_def @2332
    _Z13gen_split_702P8rtx_insnPP7rtx_def @2333
    _Z13gen_split_703P8rtx_insnPP7rtx_def @2334
    _Z13gen_split_704P8rtx_insnPP7rtx_def @2335
    _Z13gen_split_705P8rtx_insnPP7rtx_def @2336
    _Z13gen_split_706P8rtx_insnPP7rtx_def @2337
    _Z13gen_split_707P8rtx_insnPP7rtx_def @2338
    _Z13gen_split_708P8rtx_insnPP7rtx_def @2339
    _Z13gen_split_709P8rtx_insnPP7rtx_def @2340
    _Z13gen_split_710P8rtx_insnPP7rtx_def @2341
    _Z13gen_split_711P8rtx_insnPP7rtx_def @2342
    _Z13gen_split_712P8rtx_insnPP7rtx_def @2343
    _Z13gen_split_713P8rtx_insnPP7rtx_def @2344
    _Z13gen_split_714P8rtx_insnPP7rtx_def @2345
    _Z13gen_split_715P8rtx_insnPP7rtx_def @2346
    _Z13gen_split_716P8rtx_insnPP7rtx_def @2347
    _Z13gen_split_717P8rtx_insnPP7rtx_def @2348
    _Z13gen_split_718P8rtx_insnPP7rtx_def @2349
    _Z13gen_split_719P8rtx_insnPP7rtx_def @2350
    _Z13gen_split_720P8rtx_insnPP7rtx_def @2351
    _Z13gen_split_721P8rtx_insnPP7rtx_def @2352
    _Z13gen_split_722P8rtx_insnPP7rtx_def @2353
    _Z13gen_split_723P8rtx_insnPP7rtx_def @2354
    _Z13gen_split_724P8rtx_insnPP7rtx_def @2355
    _Z13gen_split_725P8rtx_insnPP7rtx_def @2356
    _Z13gen_split_726P8rtx_insnPP7rtx_def @2357
    _Z13gen_split_727P8rtx_insnPP7rtx_def @2358
    _Z13gen_split_728P8rtx_insnPP7rtx_def @2359
    _Z13gen_split_729P8rtx_insnPP7rtx_def @2360
    _Z13gen_split_730P8rtx_insnPP7rtx_def @2361
    _Z13gen_split_731P8rtx_insnPP7rtx_def @2362
    _Z13gen_split_732P8rtx_insnPP7rtx_def @2363
    _Z13gen_split_733P8rtx_insnPP7rtx_def @2364
    _Z13gen_split_734P8rtx_insnPP7rtx_def @2365
    _Z13gen_split_735P8rtx_insnPP7rtx_def @2366
    _Z13gen_split_736P8rtx_insnPP7rtx_def @2367
    _Z13gen_split_737P8rtx_insnPP7rtx_def @2368
    _Z13gen_split_738P8rtx_insnPP7rtx_def @2369
    _Z13gen_split_739P8rtx_insnPP7rtx_def @2370
    _Z13gen_split_740P8rtx_insnPP7rtx_def @2371
    _Z13gen_split_741P8rtx_insnPP7rtx_def @2372
    _Z13gen_split_742P8rtx_insnPP7rtx_def @2373
    _Z13gen_split_743P8rtx_insnPP7rtx_def @2374
    _Z13gen_split_744P8rtx_insnPP7rtx_def @2375
    _Z13gen_split_745P8rtx_insnPP7rtx_def @2376
    _Z13gen_split_746P8rtx_insnPP7rtx_def @2377
    _Z13gen_split_747P8rtx_insnPP7rtx_def @2378
    _Z13gen_split_748P8rtx_insnPP7rtx_def @2379
    _Z13gen_split_749P8rtx_insnPP7rtx_def @2380
    _Z13gen_split_750P8rtx_insnPP7rtx_def @2381
    _Z13gen_split_751P8rtx_insnPP7rtx_def @2382
    _Z13gen_split_752P8rtx_insnPP7rtx_def @2383
    _Z13gen_split_753P8rtx_insnPP7rtx_def @2384
    _Z13gen_split_754P8rtx_insnPP7rtx_def @2385
    _Z13gen_split_755P8rtx_insnPP7rtx_def @2386
    _Z13gen_split_756P8rtx_insnPP7rtx_def @2387
    _Z13gen_split_757P8rtx_insnPP7rtx_def @2388
    _Z13gen_split_758P8rtx_insnPP7rtx_def @2389
    _Z13gen_split_759P8rtx_insnPP7rtx_def @2390
    _Z13gen_split_760P8rtx_insnPP7rtx_def @2391
    _Z13gen_split_761P8rtx_insnPP7rtx_def @2392
    _Z13gen_split_762P8rtx_insnPP7rtx_def @2393
    _Z13gen_split_763P8rtx_insnPP7rtx_def @2394
    _Z13gen_split_764P8rtx_insnPP7rtx_def @2395
    _Z13gen_split_765P8rtx_insnPP7rtx_def @2396
    _Z13gen_split_766P8rtx_insnPP7rtx_def @2397
    _Z13gen_split_767P8rtx_insnPP7rtx_def @2398
    _Z13gen_split_768P8rtx_insnPP7rtx_def @2399
    _Z13gen_split_769P8rtx_insnPP7rtx_def @2400
    _Z13gen_split_770P8rtx_insnPP7rtx_def @2401
    _Z13gen_split_771P8rtx_insnPP7rtx_def @2402
    _Z13gen_split_772P8rtx_insnPP7rtx_def @2403
    _Z13gen_split_773P8rtx_insnPP7rtx_def @2404
    _Z13gen_split_774P8rtx_insnPP7rtx_def @2405
    _Z13gen_split_775P8rtx_insnPP7rtx_def @2406
    _Z13gen_split_776P8rtx_insnPP7rtx_def @2407
    _Z13gen_split_777P8rtx_insnPP7rtx_def @2408
    _Z13gen_split_778P8rtx_insnPP7rtx_def @2409
    _Z13gen_split_779P8rtx_insnPP7rtx_def @2410
    _Z13gen_split_780P8rtx_insnPP7rtx_def @2411
    _Z13gen_split_781P8rtx_insnPP7rtx_def @2412
    _Z13gen_split_782P8rtx_insnPP7rtx_def @2413
    _Z13gen_split_783P8rtx_insnPP7rtx_def @2414
    _Z13gen_split_784P8rtx_insnPP7rtx_def @2415
    _Z13gen_split_785P8rtx_insnPP7rtx_def @2416
    _Z13gen_split_786P8rtx_insnPP7rtx_def @2417
    _Z13gen_split_787P8rtx_insnPP7rtx_def @2418
    _Z13gen_split_788P8rtx_insnPP7rtx_def @2419
    _Z13gen_split_789P8rtx_insnPP7rtx_def @2420
    _Z13gen_split_790P8rtx_insnPP7rtx_def @2421
    _Z13gen_split_791P8rtx_insnPP7rtx_def @2422
    _Z13gen_split_792P8rtx_insnPP7rtx_def @2423
    _Z13gen_split_793P8rtx_insnPP7rtx_def @2424
    _Z13gen_split_794P8rtx_insnPP7rtx_def @2425
    _Z13gen_split_795P8rtx_insnPP7rtx_def @2426
    _Z13gen_split_796P8rtx_insnPP7rtx_def @2427
    _Z13gen_split_797P8rtx_insnPP7rtx_def @2428
    _Z13gen_split_798P8rtx_insnPP7rtx_def @2429
    _Z13gen_split_799P8rtx_insnPP7rtx_def @2430
    _Z13gen_split_800P8rtx_insnPP7rtx_def @2431
    _Z13gen_split_801P8rtx_insnPP7rtx_def @2432
    _Z13gen_split_802P8rtx_insnPP7rtx_def @2433
    _Z13gen_split_803P8rtx_insnPP7rtx_def @2434
    _Z13gen_split_804P8rtx_insnPP7rtx_def @2435
    _Z13gen_split_805P8rtx_insnPP7rtx_def @2436
    _Z13gen_split_806P8rtx_insnPP7rtx_def @2437
    _Z13gen_split_807P8rtx_insnPP7rtx_def @2438
    _Z13gen_split_808P8rtx_insnPP7rtx_def @2439
    _Z13gen_split_809P8rtx_insnPP7rtx_def @2440
    _Z13gen_split_810P8rtx_insnPP7rtx_def @2441
    _Z13gen_split_811P8rtx_insnPP7rtx_def @2442
    _Z13gen_split_812P8rtx_insnPP7rtx_def @2443
    _Z13gen_split_813P8rtx_insnPP7rtx_def @2444
    _Z13gen_split_814P8rtx_insnPP7rtx_def @2445
    _Z13gen_split_815P8rtx_insnPP7rtx_def @2446
    _Z13gen_split_816P8rtx_insnPP7rtx_def @2447
    _Z13gen_split_817P8rtx_insnPP7rtx_def @2448
    _Z13gen_split_818P8rtx_insnPP7rtx_def @2449
    _Z13gen_split_819P8rtx_insnPP7rtx_def @2450
    _Z13gen_split_820P8rtx_insnPP7rtx_def @2451
    _Z13gen_split_821P8rtx_insnPP7rtx_def @2452
    _Z13gen_split_822P8rtx_insnPP7rtx_def @2453
    _Z13gen_split_823P8rtx_insnPP7rtx_def @2454
    _Z13gen_split_824P8rtx_insnPP7rtx_def @2455
    _Z13gen_split_825P8rtx_insnPP7rtx_def @2456
    _Z13gen_split_826P8rtx_insnPP7rtx_def @2457
    _Z13gen_split_827P8rtx_insnPP7rtx_def @2458
    _Z13gen_split_828P8rtx_insnPP7rtx_def @2459
    _Z13gen_split_829P8rtx_insnPP7rtx_def @2460
    _Z13gen_split_830P8rtx_insnPP7rtx_def @2461
    _Z13gen_split_831P8rtx_insnPP7rtx_def @2462
    _Z13gen_split_832P8rtx_insnPP7rtx_def @2463
    _Z13gen_split_833P8rtx_insnPP7rtx_def @2464
    _Z13gen_split_834P8rtx_insnPP7rtx_def @2465
    _Z13gen_split_835P8rtx_insnPP7rtx_def @2466
    _Z13gen_split_836P8rtx_insnPP7rtx_def @2467
    _Z13gen_split_837P8rtx_insnPP7rtx_def @2468
    _Z13gen_split_838P8rtx_insnPP7rtx_def @2469
    _Z13gen_split_839P8rtx_insnPP7rtx_def @2470
    _Z13gen_split_840P8rtx_insnPP7rtx_def @2471
    _Z13gen_split_841P8rtx_insnPP7rtx_def @2472
    _Z13gen_split_842P8rtx_insnPP7rtx_def @2473
    _Z13gen_split_843P8rtx_insnPP7rtx_def @2474
    _Z13gen_split_844P8rtx_insnPP7rtx_def @2475
    _Z13gen_split_845P8rtx_insnPP7rtx_def @2476
    _Z13gen_split_846P8rtx_insnPP7rtx_def @2477
    _Z13gen_split_847P8rtx_insnPP7rtx_def @2478
    _Z13gen_split_848P8rtx_insnPP7rtx_def @2479
    _Z13gen_split_849P8rtx_insnPP7rtx_def @2480
    _Z13gen_split_850P8rtx_insnPP7rtx_def @2481
    _Z13gen_split_851P8rtx_insnPP7rtx_def @2482
    _Z13gen_split_852P8rtx_insnPP7rtx_def @2483
    _Z13gen_split_853P8rtx_insnPP7rtx_def @2484
    _Z13gen_split_854P8rtx_insnPP7rtx_def @2485
    _Z13gen_split_855P8rtx_insnPP7rtx_def @2486
    _Z13gen_split_856P8rtx_insnPP7rtx_def @2487
    _Z13gen_split_857P8rtx_insnPP7rtx_def @2488
    _Z13gen_split_858P8rtx_insnPP7rtx_def @2489
    _Z13gen_split_859P8rtx_insnPP7rtx_def @2490
    _Z13gen_split_860P8rtx_insnPP7rtx_def @2491
    _Z13gen_split_861P8rtx_insnPP7rtx_def @2492
    _Z13gen_split_862P8rtx_insnPP7rtx_def @2493
    _Z13gen_split_863P8rtx_insnPP7rtx_def @2494
    _Z13gen_split_864P8rtx_insnPP7rtx_def @2495
    _Z13gen_split_865P8rtx_insnPP7rtx_def @2496
    _Z13gen_split_866P8rtx_insnPP7rtx_def @2497
    _Z13gen_split_867P8rtx_insnPP7rtx_def @2498
    _Z13gen_split_868P8rtx_insnPP7rtx_def @2499
    _Z13gen_split_869P8rtx_insnPP7rtx_def @2500
    _Z13gen_split_870P8rtx_insnPP7rtx_def @2501
    _Z13gen_split_871P8rtx_insnPP7rtx_def @2502
    _Z13gen_split_872P8rtx_insnPP7rtx_def @2503
    _Z13gen_split_873P8rtx_insnPP7rtx_def @2504
    _Z13gen_split_874P8rtx_insnPP7rtx_def @2505
    _Z13gen_split_875P8rtx_insnPP7rtx_def @2506
    _Z13gen_split_876P8rtx_insnPP7rtx_def @2507
    _Z13gen_split_877P8rtx_insnPP7rtx_def @2508
    _Z13gen_split_878P8rtx_insnPP7rtx_def @2509
    _Z13gen_split_879P8rtx_insnPP7rtx_def @2510
    _Z13gen_split_880P8rtx_insnPP7rtx_def @2511
    _Z13gen_split_881P8rtx_insnPP7rtx_def @2512
    _Z13gen_split_882P8rtx_insnPP7rtx_def @2513
    _Z13gen_split_883P8rtx_insnPP7rtx_def @2514
    _Z13gen_split_884P8rtx_insnPP7rtx_def @2515
    _Z13gen_split_885P8rtx_insnPP7rtx_def @2516
    _Z13gen_split_886P8rtx_insnPP7rtx_def @2517
    _Z13gen_split_887P8rtx_insnPP7rtx_def @2518
    _Z13gen_split_888P8rtx_insnPP7rtx_def @2519
    _Z13gen_split_889P8rtx_insnPP7rtx_def @2520
    _Z13gen_split_890P8rtx_insnPP7rtx_def @2521
    _Z13gen_split_891P8rtx_insnPP7rtx_def @2522
    _Z13gen_split_892P8rtx_insnPP7rtx_def @2523
    _Z13gen_split_893P8rtx_insnPP7rtx_def @2524
    _Z13gen_split_894P8rtx_insnPP7rtx_def @2525
    _Z13gen_split_895P8rtx_insnPP7rtx_def @2526
    _Z13gen_split_896P8rtx_insnPP7rtx_def @2527
    _Z13gen_split_897P8rtx_insnPP7rtx_def @2528
    _Z13gen_split_898P8rtx_insnPP7rtx_def @2529
    _Z13gen_split_899P8rtx_insnPP7rtx_def @2530
    _Z13gen_split_900P8rtx_insnPP7rtx_def @2531
    _Z13gen_split_901P8rtx_insnPP7rtx_def @2532
    _Z13gen_split_902P8rtx_insnPP7rtx_def @2533
    _Z13gen_split_903P8rtx_insnPP7rtx_def @2534
    _Z13gen_split_904P8rtx_insnPP7rtx_def @2535
    _Z13gen_split_905P8rtx_insnPP7rtx_def @2536
    _Z13gen_split_906P8rtx_insnPP7rtx_def @2537
    _Z13gen_split_907P8rtx_insnPP7rtx_def @2538
    _Z13gen_split_908P8rtx_insnPP7rtx_def @2539
    _Z13gen_split_909P8rtx_insnPP7rtx_def @2540
    _Z13gen_split_910P8rtx_insnPP7rtx_def @2541
    _Z13gen_split_911P8rtx_insnPP7rtx_def @2542
    _Z13gen_split_912P8rtx_insnPP7rtx_def @2543
    _Z13gen_split_913P8rtx_insnPP7rtx_def @2544
    _Z13gen_split_914P8rtx_insnPP7rtx_def @2545
    _Z13gen_split_915P8rtx_insnPP7rtx_def @2546
    _Z13gen_split_916P8rtx_insnPP7rtx_def @2547
    _Z13gen_split_917P8rtx_insnPP7rtx_def @2548
    _Z13gen_split_918P8rtx_insnPP7rtx_def @2549
    _Z13gen_split_919P8rtx_insnPP7rtx_def @2550
    _Z13gen_split_920P8rtx_insnPP7rtx_def @2551
    _Z13gen_split_921P8rtx_insnPP7rtx_def @2552
    _Z13gen_split_922P8rtx_insnPP7rtx_def @2553
    _Z13gen_split_923P8rtx_insnPP7rtx_def @2554
    _Z13gen_split_924P8rtx_insnPP7rtx_def @2555
    _Z13gen_split_925P8rtx_insnPP7rtx_def @2556
    _Z13gen_split_926P8rtx_insnPP7rtx_def @2557
    _Z13gen_split_927P8rtx_insnPP7rtx_def @2558
    _Z13gen_split_928P8rtx_insnPP7rtx_def @2559
    _Z13gen_split_929P8rtx_insnPP7rtx_def @2560
    _Z13gen_split_930P8rtx_insnPP7rtx_def @2561
    _Z13gen_split_931P8rtx_insnPP7rtx_def @2562
    _Z13gen_split_932P8rtx_insnPP7rtx_def @2563
    _Z13gen_split_933P8rtx_insnPP7rtx_def @2564
    _Z13gen_split_934P8rtx_insnPP7rtx_def @2565
    _Z13gen_split_935P8rtx_insnPP7rtx_def @2566
    _Z13gen_split_936P8rtx_insnPP7rtx_def @2567
    _Z13gen_split_937P8rtx_insnPP7rtx_def @2568
    _Z13gen_split_938P8rtx_insnPP7rtx_def @2569
    _Z13gen_split_939P8rtx_insnPP7rtx_def @2570
    _Z13gen_split_940P8rtx_insnPP7rtx_def @2571
    _Z13gen_split_941P8rtx_insnPP7rtx_def @2572
    _Z13gen_split_942P8rtx_insnPP7rtx_def @2573
    _Z13gen_split_943P8rtx_insnPP7rtx_def @2574
    _Z13gen_split_944P8rtx_insnPP7rtx_def @2575
    _Z13gen_split_945P8rtx_insnPP7rtx_def @2576
    _Z13gen_split_946P8rtx_insnPP7rtx_def @2577
    _Z13gen_split_947P8rtx_insnPP7rtx_def @2578
    _Z13gen_split_948P8rtx_insnPP7rtx_def @2579
    _Z13gen_split_949P8rtx_insnPP7rtx_def @2580
    _Z13gen_split_950P8rtx_insnPP7rtx_def @2581
    _Z13gen_split_951P8rtx_insnPP7rtx_def @2582
    _Z13gen_split_952P8rtx_insnPP7rtx_def @2583
    _Z13gen_split_953P8rtx_insnPP7rtx_def @2584
    _Z13gen_split_954P8rtx_insnPP7rtx_def @2585
    _Z13gen_split_955P8rtx_insnPP7rtx_def @2586
    _Z13gen_split_956P8rtx_insnPP7rtx_def @2587
    _Z13gen_split_957P8rtx_insnPP7rtx_def @2588
    _Z13gen_split_958P8rtx_insnPP7rtx_def @2589
    _Z13gen_split_959P8rtx_insnPP7rtx_def @2590
    _Z13gen_split_960P8rtx_insnPP7rtx_def @2591
    _Z13gen_split_961P8rtx_insnPP7rtx_def @2592
    _Z13gen_split_962P8rtx_insnPP7rtx_def @2593
    _Z13gen_split_963P8rtx_insnPP7rtx_def @2594
    _Z13gen_split_964P8rtx_insnPP7rtx_def @2595
    _Z13gen_split_965P8rtx_insnPP7rtx_def @2596
    _Z13gen_split_966P8rtx_insnPP7rtx_def @2597
    _Z13gen_split_967P8rtx_insnPP7rtx_def @2598
    _Z13gen_split_968P8rtx_insnPP7rtx_def @2599
    _Z13gen_split_969P8rtx_insnPP7rtx_def @2600
    _Z13gen_split_970P8rtx_insnPP7rtx_def @2601
    _Z13gen_split_971P8rtx_insnPP7rtx_def @2602
    _Z13gen_split_972P8rtx_insnPP7rtx_def @2603
    _Z13gen_split_973P8rtx_insnPP7rtx_def @2604
    _Z13gen_split_974P8rtx_insnPP7rtx_def @2605
    _Z13gen_split_975P8rtx_insnPP7rtx_def @2606
    _Z13gen_split_976P8rtx_insnPP7rtx_def @2607
    _Z13gen_split_977P8rtx_insnPP7rtx_def @2608
    _Z13gen_split_978P8rtx_insnPP7rtx_def @2609
    _Z13gen_split_979P8rtx_insnPP7rtx_def @2610
    _Z13gen_split_980P8rtx_insnPP7rtx_def @2611
    _Z13gen_split_981P8rtx_insnPP7rtx_def @2612
    _Z13gen_split_982P8rtx_insnPP7rtx_def @2613
    _Z13gen_split_983P8rtx_insnPP7rtx_def @2614
    _Z13gen_split_984P8rtx_insnPP7rtx_def @2615
    _Z13gen_split_985P8rtx_insnPP7rtx_def @2616
    _Z13gen_split_986P8rtx_insnPP7rtx_def @2617
    _Z13gen_split_987P8rtx_insnPP7rtx_def @2618
    _Z13gen_split_988P8rtx_insnPP7rtx_def @2619
    _Z13gen_split_989P8rtx_insnPP7rtx_def @2620
    _Z13gen_split_990P8rtx_insnPP7rtx_def @2621
    _Z13gen_split_991P8rtx_insnPP7rtx_def @2622
    _Z13gen_split_992P8rtx_insnPP7rtx_def @2623
    _Z13gen_split_993P8rtx_insnPP7rtx_def @2624
    _Z13gen_split_994P8rtx_insnPP7rtx_def @2625
    _Z13gen_split_995P8rtx_insnPP7rtx_def @2626
    _Z13gen_split_996P8rtx_insnPP7rtx_def @2627
    _Z13gen_split_997P8rtx_insnPP7rtx_def @2628
    _Z13gen_split_998P8rtx_insnPP7rtx_def @2629
    _Z13gen_split_999P8rtx_insnPP7rtx_def @2630
    _Z13gen_sqrtv2df2P7rtx_defS0_ @2631
    _Z13gen_sqrtv2sf2P7rtx_defS0_ @2632
    _Z13gen_sqrtv4df2P7rtx_defS0_ @2633
    _Z13gen_sqrtv4sf2P7rtx_defS0_ @2634
    _Z13gen_sqrtv8df2P7rtx_defS0_ @2635
    _Z13gen_sqrtv8hf2P7rtx_defS0_ @2636
    _Z13gen_sqrtv8sf2P7rtx_defS0_ @2637
    _Z13gen_sse2_comiP7rtx_defS0_ @2638
    _Z13gen_sse_movssP7rtx_defS0_S0_ @2639
    _Z13gen_sse_ucomiP7rtx_defS0_ @2640
    _Z13gen_storentdfP7rtx_defS0_ @2641
    _Z13gen_storentdiP7rtx_defS0_ @2642
    _Z13gen_storentsfP7rtx_defS0_ @2643
    _Z13gen_storentsiP7rtx_defS0_ @2644
    _Z13gen_sub2_insnP7rtx_defS0_ @2645
    _Z13gen_sub3_insnP7rtx_defS0_S0_ @2646
    _Z13gen_subv16hf3P7rtx_defS0_S0_ @2647
    _Z13gen_subv16hi3P7rtx_defS0_S0_ @2648
    _Z13gen_subv16qi3P7rtx_defS0_S0_ @2649
    _Z13gen_subv16sf3P7rtx_defS0_S0_ @2650
    _Z13gen_subv16si3P7rtx_defS0_S0_ @2651
    _Z13gen_subv32hf3P7rtx_defS0_S0_ @2652
    _Z13gen_subv32hi3P7rtx_defS0_S0_ @2653
    _Z13gen_subv32qi3P7rtx_defS0_S0_ @2654
    _Z13gen_subv64qi3P7rtx_defS0_S0_ @2655
    _Z13gen_subvdi4_1P7rtx_defS0_S0_S0_ @2656
    _Z13gen_subvhi4_1P7rtx_defS0_S0_S0_ @2657
    _Z13gen_subvqi4_1P7rtx_defS0_S0_S0_ @2658
    _Z13gen_subvsi4_1P7rtx_defS0_S0_S0_ @2659
    _Z13gen_tablejumpP7rtx_defS0_ @2660
    _Z13gen_umaxv2di3P7rtx_defS0_S0_ @2661
    _Z13gen_umaxv2hi3P7rtx_defS0_S0_ @2662
    _Z13gen_umaxv2qi3P7rtx_defS0_S0_ @2663
    _Z13gen_umaxv2si3P7rtx_defS0_S0_ @2664
    _Z13gen_umaxv4di3P7rtx_defS0_S0_ @2665
    _Z13gen_umaxv4hi3P7rtx_defS0_S0_ @2666
    _Z13gen_umaxv4qi3P7rtx_defS0_S0_ @2667
    _Z13gen_umaxv4si3P7rtx_defS0_S0_ @2668
    _Z13gen_umaxv8di3P7rtx_defS0_S0_ @2669
    _Z13gen_umaxv8hi3P7rtx_defS0_S0_ @2670
    _Z13gen_umaxv8qi3P7rtx_defS0_S0_ @2671
    _Z13gen_umaxv8si3P7rtx_defS0_S0_ @2672
    _Z13gen_uminv2di3P7rtx_defS0_S0_ @2673
    _Z13gen_uminv2hi3P7rtx_defS0_S0_ @2674
    _Z13gen_uminv2qi3P7rtx_defS0_S0_ @2675
    _Z13gen_uminv2si3P7rtx_defS0_S0_ @2676
    _Z13gen_uminv4di3P7rtx_defS0_S0_ @2677
    _Z13gen_uminv4hi3P7rtx_defS0_S0_ @2678
    _Z13gen_uminv4qi3P7rtx_defS0_S0_ @2679
    _Z13gen_uminv4si3P7rtx_defS0_S0_ @2680
    _Z13gen_uminv8di3P7rtx_defS0_S0_ @2681
    _Z13gen_uminv8hi3P7rtx_defS0_S0_ @2682
    _Z13gen_uminv8qi3P7rtx_defS0_S0_ @2683
    _Z13gen_uminv8si3P7rtx_defS0_S0_ @2684
    _Z13gen_umulditi3P7rtx_defS0_S0_ @2685
    _Z13gen_umulqihi3P7rtx_defS0_S0_ @2686
    _Z13gen_umulsidi3P7rtx_defS0_S0_ @2687
    _Z13gen_usadv16qiP7rtx_defS0_S0_S0_ @2688
    _Z13gen_usadv32qiP7rtx_defS0_S0_S0_ @2689
    _Z13gen_usadv64qiP7rtx_defS0_S0_S0_ @2690
    _Z13gen_vcvtph2psP7rtx_defS0_ @2691
    _Z13gen_vcvtps2phP7rtx_defS0_S0_ @2692
    _Z13gen_xop_ppermP7rtx_defS0_S0_S0_ @2693
    _Z13gen_xorv16hf3P7rtx_defS0_S0_ @2694
    _Z13gen_xorv16hi3P7rtx_defS0_S0_ @2695
    _Z13gen_xorv16qi3P7rtx_defS0_S0_ @2696
    _Z13gen_xorv16sf3P7rtx_defS0_S0_ @2697
    _Z13gen_xorv16si3P7rtx_defS0_S0_ @2698
    _Z13gen_xorv32hf3P7rtx_defS0_S0_ @2699
    _Z13gen_xorv32hi3P7rtx_defS0_S0_ @2700
    _Z13gen_xorv32qi3P7rtx_defS0_S0_ @2701
    _Z13gen_xorv64qi3P7rtx_defS0_S0_ @2702
    _Z13gen_xresldtrkv @2703
    _Z13gen_xrstors64P7rtx_defS0_S0_ @2704
    _Z13gen_xsusldtrkv @2705
    _Z13get_AT_stringP10die_struct15dwarf_attribute @2706
    _Z13get_alias_setP9tree_node @2707
    _Z13get_args_sizePK7rtx_def @2708
    _Z13get_attr_maskP8rtx_insn @2709
    _Z13get_attr_modeP8rtx_insn @2710
    _Z13get_attr_movuP8rtx_insn @2711
    _Z13get_attr_typeP8rtx_insn @2712
    _Z13get_attr_unitP8rtx_insn @2713
    _Z13get_base_typeP9tree_node @2714
    _Z13get_best_modeii8poly_intILj1EyES0_jybP15scalar_int_mode @2715
    _Z13get_bit_rangeP12poly_int_podILj1EyES1_P9tree_nodePS_ILj1ExEPS3_ @2716
    _Z13get_cfg_hooksv @2717
    _Z13get_conditionP8rtx_insnPS0_ii @2718
    _Z13get_gcov_typev @2719
    _Z13get_insn_namei @2720
    _Z13get_loop_bodyPK4loop @2721
    _Z13get_loop_copyP4loop @2722
    _Z13get_max_floatPK11real_formatPcyb @2723
    _Z13get_pool_modePK7rtx_def @2724
    _Z13get_unwidenedP9tree_nodeS0_ @2725
    _Z13gimple_set_bbP6gimpleP15basic_block_def @2726
    _Z13gimplify_bodyP9tree_nodeb @2727
    _Z13gimplify_exprPP9tree_nodePP6gimpleS4_PFbS0_Ei @2728
    _Z13gimplify_stmtPP9tree_nodePP6gimple @2729
    _Z13globalize_regP9tree_nodei @2730
    _Z13gnat_poplevelv @2731
    _Z13gnat_pushdeclP9tree_nodei @2732
    _Z13gnat_zaplevelv @2733
    _Z13grow_tree_vecP9tree_nodei @2734
    _Z13have_insn_for8rtx_code12machine_mode @2735
    _Z13ignore_edge_pP11cgraph_edge @2736
    _Z13in_same_ebb_pP8rtx_insnS0_ @2737
    _Z13in_sequence_pv @2738
    _Z13init_node_mapb @2739
    _Z13init_reg_setsv @2740
    _Z13init_ssanamesP8functioni @2741
    _Z13init_tree_ssaP8functioni @2742
    _Z13insn_locationPK8rtx_insn @2743
    _Z13int_cst_valuePK9tree_node @2744
    _Z13integer_pow2pPK9tree_node @2745
    _Z13integer_truepPK9tree_node @2746
    _Z13integer_zeropPK9tree_node @2747
    _Z13invert_jump_1P13rtx_jump_insnP7rtx_def @2748
    _Z13ip_normal_posP4loop @2749
    _Z13ira_init_oncev @2750
    _Z13is_empty_typePK9tree_node @2751
    _Z13is_gimple_regP9tree_node @2752
    _Z13is_gimple_valP9tree_node @2753
    _Z13ix86_cfun_abiv @2754
    _Z13ix86_save_regjbb @2755
    _Z13lang_GNU_OBJCv @2756
    _Z13lhd_make_node9tree_code @2757
    _Z13lhd_tree_size9tree_code @2758
    _Z13lra_eliminatebb @2759
    _Z13lra_emit_moveP7rtx_defS0_ @2760
    _Z13lra_init_oncev @2761
    _Z13lra_push_insnP8rtx_insn @2762
    _Z13lto_input_sccP15lto_input_blockP7data_inPjS3_b @2763
    _Z13make_decl_rtlP9tree_node @2764
    _Z13make_eh_edgesP6gimple @2765
    _Z13make_insn_rawP7rtx_def @2766
    _Z13make_locationj12source_range @2767
    _Z13make_locationjjj @2768
    _Z13make_pass_ccpPN3gcc7contextE @2769
    _Z13make_pass_csePN3gcc7contextE @2770
    _Z13make_pass_dcePN3gcc7contextE @2771
    _Z13make_pass_dsePN3gcc7contextE @2772
    _Z13make_pass_frePN3gcc7contextE @2773
    _Z13make_pass_iraPN3gcc7contextE @2774
    _Z13make_pass_limPN3gcc7contextE @2775
    _Z13make_pass_nrvPN3gcc7contextE @2776
    _Z13make_pass_prePN3gcc7contextE @2777
    _Z13make_pass_reePN3gcc7contextE @2778
    _Z13make_pass_smsPN3gcc7contextE @2779
    _Z13make_pass_sraPN3gcc7contextE @2780
    _Z13make_pass_stvPN3gcc7contextE @2781
    _Z13make_pass_vrpPN3gcc7contextE @2782
    _Z13make_pass_webPN3gcc7contextE @2783
    _Z13make_tree_veci @2784
    _Z13mark_user_regP7rtx_def @2785
    _Z13max_label_numv @2786
    _Z13mfb_keep_justP8edge_def @2787
    _Z13mode_for_size8poly_intILj1EyE10mode_classi @2788
    _Z13modified_in_pPK7rtx_defS1_ @2789
    _Z13movq_parallelP7rtx_def12machine_mode @2790
    _Z13mult_operatorP7rtx_def12machine_mode @2791
    _Z13multiple_of_pP9tree_nodePKS_S2_b @2792
    _Z13multiple_setsPK7rtx_def @2793
    _Z13new_alias_setv @2794
    _Z13new_sese_infoP8edge_defS0_ @2795
    _Z13nonnull_arg_pPK9tree_node @2796
    _Z13normalize_rliP20record_layout_info_s @2797
    _Z13nowrap_type_pP9tree_node @2798
    _Z13number_blocksP9tree_node @2799
    _Z13optab_handler9optab_tag12machine_mode @2800
    _Z13optab_libfunc9optab_tag12machine_mode @2801
    _Z13output_symtabv @2802
    _Z13plus_constant12machine_modeP7rtx_def8poly_intILj1ExEb @2803
    _Z13post_error_nePKcii @2804
    _Z13powi_as_multsP20gimple_stmt_iteratorjP9tree_nodex @2805
    _Z13pp_double_intP14pretty_printer10double_intb @2806
    _Z13pp_set_prefixP14pretty_printerPc @2807
    _Z13previous_insnP8rtx_insn @2808
    _Z13print_isl_affP6_iobufP7isl_aff @2809
    _Z13print_isl_astP6_iobufP12isl_ast_node @2810
    _Z13print_isl_mapP6_iobufP7isl_map @2811
    _Z13print_isl_setP6_iobufP7isl_set @2812
    _Z13print_patternP14pretty_printerPK7rtx_defi @2813
    _Z13print_versionP6_iobufPKcb @2814
    _Z13range_nonzeroP9tree_node @2815
    _Z13ready_elementP10ready_listi @2816
    _Z13ready_lastposP10ready_list @2817
    _Z13real_copysignP10real_valuePKS_ @2818
    _Z13real_exponentPK10real_value @2819
    _Z13real_isfinitePK10real_value @2820
    _Z13redirect_jumpP13rtx_jump_insnP7rtx_defi @2821
    _Z13reg_is_parm_pP7rtx_def @2822
    _Z13register_passP18register_pass_info @2823
    _Z13register_passP8opt_pass20pass_positioning_opsPKci @2824
    _Z13relation_swap9tree_code @2825
    _Z13relayout_declP9tree_node @2826
    _Z13remove_branchP8edge_def @2827
    _Z13reorder_insnsP8rtx_insnS0_S0_ @2828
    _Z13replace_labelPP7rtx_defS0_S0_b @2829
    _Z13save_gnu_treeiP9tree_nodeb @2830
    _Z13save_multipleP7rtx_def12machine_mode @2831
    _Z13sbitmap_allocj @2832
    _Z13scev_finalizev @2833
    _Z13sched_analyzeP9deps_descP8rtx_insnS2_ @2834
    _Z13schedule_ebbsv @2835
    _Z13sd_delete_dep12_sd_iterator @2836
    _Z13sd_lists_sizePK7rtx_defi @2837
    _Z13sel_bb_head_pP8rtx_insn @2838
    _Z13sel_debug_cfgv @2839
    _Z13sel_find_rgnsv @2840
    _Z13sel_move_insnP5_expriP8rtx_insn @2841
    _Z13sel_print_rtlP7rtx_def @2842
    _Z13set_cfg_hooks9cfg_hooks @2843
    _Z13set_dump_fileP6_iobuf @2844
    _Z13set_loop_copyP4loopS0_ @2845
    _Z13set_mem_alignP7rtx_defj @2846
    _Z13set_phi_nodesP15basic_block_defP6gimple @2847
    _Z13setjmp_call_pPK9tree_node @2848
    _Z13simple_goto_pP6gimple @2849
    _Z13size_int_kind8poly_intILj1ExE14size_type_kind @2850
    _Z13sparseset_andP13sparseset_defS0_S0_ @2851
    _Z13sparseset_iorP13sparseset_defS0_S0_ @2852
    _Z13string_lengthPKvjj @2853
    _Z13subst_reloadsP8rtx_insn @2854
    _Z13target_reinitv @2855
    _Z13timevar_start12timevar_id_t @2856
    _Z13tree_map_hashPKv @2857
    _Z13trim_filenamePKc @2858
    _Z13try_tablejumpP9tree_nodeS0_S0_S0_P7rtx_defS2_19profile_probability @2859
    _Z13val_signbit_p12machine_modey @2860
    _Z13variable_sizeP9tree_node @2861
    _Z13vcg_print_ddgP6_iobufP3ddg @2862
    _Z13vect_slp_finiv @2863
    _Z13vect_slp_initv @2864
    _Z13vinsn_equal_pP9vinsn_defS0_ @2865
    _Z13vn_nary_op_eqPK12vn_nary_op_sS1_ @2866
    _Z14add_bb_to_loopP15basic_block_defP4loop @2867
    _Z14add_dependenceP8rtx_insnS0_8reg_note @2868
    _Z14add_insn_afterP8rtx_insnS0_P15basic_block_def @2869
    _Z14add_local_declP8functionP9tree_node @2870
    _Z14add_new_pluginPKc @2871
    _Z14add_stmt_forceP9tree_node @2872
    _Z14align_variableP9tree_nodeb @2873
    _Z14alloc_reg_note8reg_noteP7rtx_defS1_ @2874
    _Z14any_condjump_pPK8rtx_insn @2875
    _Z14asan_memintrinv @2876
    _Z14asm_operand_okP7rtx_defPKcPS2_ @2877
    _Z14assemble_aliasP9tree_nodeS0_ @2878
    _Z14assemble_alignj @2879
    _Z14assemble_labelP6_iobufPKc @2880
    _Z14assemble_zerosy @2881
    _Z14av_set_elementP10_list_nodei @2882
    _Z14av_set_is_in_pP10_list_nodeP9vinsn_def @2883
    _Z14ax_reg_operandP7rtx_def12machine_mode @2884
    _Z14bb_dom_dfs_out13cdi_directionP15basic_block_def @2885
    _Z14bit_value_unop9tree_code6signopiP16generic_wide_intI22fixed_wide_int_storageILi576EEES5_S0_iRKS4_S7_ @2886
    _Z14bitmap_empty_pPK17simple_bitmap_def @2887
    _Z14bitmap_equal_pPK11bitmap_headS1_ @2888
    _Z14bitmap_equal_pPK17simple_bitmap_defS1_ @2889
    _Z14bitmap_set_bitP11bitmap_headi @2890
    _Z14bp_pack_stringP12output_blockP9bitpack_dPKcb @2891
    _Z14brief_dump_cfgP6_iobuf9dump_flag @2892
    _Z14build_and_jumpPP9tree_node @2893
    _Z14build_call_vecP9tree_nodeS0_PK3vecIS0_5va_gc8vl_embedE @2894
    _Z14build_int_cstuP9tree_node8poly_intILj1EyE @2895
    _Z14build_span_loc7cfa_reg @2896
    _Z14build_templateP9tree_nodeS0_S0_ @2897
    _Z14build_unary_op9tree_codeP9tree_nodeS1_ @2898
    _Z14build_zero_cstP9tree_node @2899
    _Z14builtin_fnspecP9tree_node @2900
    _Z14can_copy_bbs_pPP15basic_block_defj @2901
    _Z14cancel_changesi @2902
    _Z14change_addressP7rtx_def12machine_modeS0_ @2903
    _Z14clear_bb_flagsv @2904
    _Z14clear_mem_sizeP7rtx_def @2905
    _Z14colorize_startbPKcy @2906
    _Z14compact_blocksv @2907
    _Z14compare_valuesP9tree_nodeS0_ @2908
    _Z14compute_transpPK7rtx_defiPP17simple_bitmap_defP11bitmap_headS6_P3vecI11modify_pair7va_heap6vl_ptrE @2909
    _Z14condjump_labelPK8rtx_insn @2910
    _Z14const0_operandP7rtx_def12machine_mode @2911
    _Z14const1_operandP7rtx_def12machine_mode @2912
    _Z14const8_operandP7rtx_def12machine_mode @2913
    _Z14copy_INSN_LISTP13rtx_insn_list @2914
    _Z14copy_data_setsP15basic_block_defS0_ @2915
    _Z14copy_forbiddenP8function @2916
    _Z14copy_if_sharedPP9tree_nodePv @2917
    _Z14copy_loop_infoP4loopS0_ @2918
    _Z14cpp_get_bufferP10cpp_reader @2919
    _Z14cpp_init_iconvP10cpp_reader @2920
    _Z14cpp_pedwarningP10cpp_reader18cpp_warning_reasonPKcz @2921
    _Z14cpp_peek_tokenP10cpp_readeri @2922
    _Z14cpp_warning_atP10cpp_reader18cpp_warning_reasonP13rich_locationPKcz @2923
    _Z14create_mem_refP20gimple_stmt_iteratorP9tree_nodeP8aff_treeS2_S2_S2_b @2924
    _Z14create_tmp_regP9tree_nodePKc @2925
    _Z14create_tmp_varP9tree_nodePKc @2926
    _Z14ctf_add_cunameP13ctf_containerPKc @2927
    _Z14ctf_add_stringP13ctf_containerPKcPji @2928
    _Z14ctf_debug_initv @2929
    _Z14ctf_dtd_lookupP13ctf_containerP10die_struct @2930
    _Z14ctf_dvd_lookupP13ctf_containerP10die_struct @2931
    _Z14cwi_output_hexP6_iobufPK7rtx_def @2932
    _Z14dead_debug_addP16dead_debug_localP8df_ref_dj @2933
    _Z14debug_currdefsv @2934
    _Z14debug_decl_setP11bitmap_head @2935
    _Z14debug_df_chainP7df_link @2936
    _Z14debug_df_defnoj @2937
    _Z14debug_df_regnoj @2938
    _Z14debug_df_usenoj @2939
    _Z14debug_functionP9tree_node9dump_flag @2940
    _Z14debug_insn_rtxP7rtx_def @2941
    _Z14debug_loop_numji @2942
    _Z14debug_pre_exprP10pre_expr_d @2943
    _Z14debug_rtl_slimPK8rtx_insnS1_ii @2944
    _Z14debug_rtx_findPK8rtx_insni @2945
    _Z14debug_rtx_listPK8rtx_insni @2946
    _Z14debug_scop_pbbP4scopi @2947
    _Z14debug_tree_ssav @2948
    _Z14debug_variableP9tree_node @2949
    _Z14debuginfo_finiv @2950
    _Z14debuginfo_initv @2951
    _Z14debuginfo_stopv @2952
    _Z14decl_init_sizeP9tree_nodeb @2953
    _Z14decl_tls_modelPK9tree_node @2954
    _Z14decode_optionsP11gcc_optionsS0_P17cl_decoded_optionjjP18diagnostic_contextPFvvE @2955
    _Z14delete_var_mapP8_var_map @2956
    _Z14deps_add_vpathP6mkdepsPKc @2957
    _Z14df_add_problemPK10df_problem @2958
    _Z14df_clear_flagsi @2959
    _Z14df_dump_bottomP15basic_block_defP6_iobuf @2960
    _Z14df_dump_regionP6_iobuf @2961
    _Z14df_finish_passb @2962
    _Z14df_insn_deleteP8rtx_insn @2963
    _Z14df_insn_rescanP8rtx_insn @2964
    _Z14df_reg_definedP8rtx_insnP7rtx_def @2965
    _Z14df_regno_debugjP6_iobuf @2966
    _Z14df_scan_blocksv @2967
    _Z14df_scan_verifyv @2968
    _Z14df_uses_createPP7rtx_defP8rtx_insni @2969
    _Z14disable_rangerP8function @2970
    _Z14dom_info_state13cdi_direction @2971
    _Z14dom_info_stateP8function13cdi_direction @2972
    _Z14dominated_by_p13cdi_directionPK15basic_block_defS2_ @2973
    _Z14dr_may_alias_pPK14data_referenceS1_P4loop @2974
    _Z14dump_cfg_statsP6_iobuf @2975
    _Z14dump_componentP6_iobufP9component @2976
    _Z14dump_conditionP6_iobufP3vecI9condition5va_gc8vl_embedEi @2977
    _Z14dump_dfa_statsP6_iobuf @2978
    _Z14dump_edge_infoP6_iobufP8edge_def9dump_flagi @2979
    _Z14dump_end_scopev @2980
    _Z14dump_flag_namei @2981
    _Z14dump_flow_infoP6_iobuf9dump_flag @2982
    _Z14dump_insn_slimP6_iobufPK8rtx_insn @2983
    _Z14dump_live_infoP6_iobufP16tree_live_info_di @2984
    _Z14dump_pta_statsP6_iobuf @2985
    _Z14dump_stmt_costP6_iobufi18vect_cost_for_stmtP14_stmt_vec_infoP9_slp_treeP9tree_nodeij24vect_cost_model_location @2986
    _Z14dump_subscriptP6_iobufP9subscript @2987
    _Z14dump_var_infosP6_iobuf @2988
    _Z14duplicate_loopP4loopS0_S0_ @2989
    _Z14dw_get_die_sibP10die_struct @2990
    _Z14dw_get_die_tagP10die_struct @2991
    _Z14eliminate_regsP7rtx_def12machine_modeS0_ @2992
    _Z14emit_call_insnP7rtx_def @2993
    _Z14emit_jump_insnP7rtx_def @2994
    _Z14emit_move_insnP7rtx_defS0_ @2995
    _Z14emit_note_copyP8rtx_note @2996
    _Z14emit_push_insnP7rtx_def12machine_modeP9tree_nodeS0_jiS0_8poly_intILj1ExES0_S0_iS0_b @2997
    _Z14emit_unop_insn9insn_codeP7rtx_defS1_8rtx_code @2998
    _Z14end_stmt_groupv @2999
    _Z14expand_builtinP9tree_nodeP7rtx_defS2_12machine_modei @3000
    _Z14extend_regionsv @3001
    _Z14extended_countPK7rtx_def12machine_modei @3002
    _Z14find_equiv_regP7rtx_defP8rtx_insn9reg_classiPsi12machine_mode @3003
    _Z14find_loop_nestP4loopP3vecIS0_7va_heap6vl_ptrE @3004
    _Z14finish_optionsP11gcc_optionsS0_j @3005
    _Z14flow_loop_dumpPK4loopP6_iobufPFvS1_S3_iEi @3006
    _Z14flow_loop_freeP4loop @3007
    _Z14fold_abs_constP9tree_nodeS0_ @3008
    _Z14fold_call_exprjP9tree_nodeb @3009
    _Z14fold_call_stmtP5gcallb @3010
    _Z14fold_unary_locj9tree_codeP9tree_nodeS1_ @3011
    _Z14for_each_indexPP9tree_nodePFbS0_S1_PvES2_ @3012
    _Z14force_fit_typeP9tree_nodeRK8poly_intILj1E16generic_wide_intI20wide_int_ref_storageILb0ELb1EEEEib @3013
    _Z14fp_setter_insnP8rtx_insn @3014
    _Z14free_attr_datav @3015
    _Z14free_data_refsR3vecIP14data_reference7va_heap6vl_ptrE @3016
    _Z14free_data_setsP15basic_block_def @3017
    _Z14free_edge_listP9edge_list @3018
    _Z14free_loc_descrRKP17dw_loc_descr_nodePv @3019
    _Z14free_nop_vinsnv @3020
    _Z14free_sese_infoP11sese_info_t @3021
    _Z14free_stmt_listP9tree_node @3022
    _Z14gcc_stablesortPvyyPFiPKvS1_E @3023
    _Z14gcov_write_tagj @3024
    _Z14gen_add3_carry12machine_modeP7rtx_defS1_S1_S1_S1_ @3025
    _Z14gen_addcarrydiP7rtx_defS0_S0_S0_S0_S0_ @3026
    _Z14gen_addcarrysiP7rtx_defS0_S0_S0_S0_S0_ @3027
    _Z14gen_aesdeclastP7rtx_defS0_S0_ @3028
    _Z14gen_aesenclastP7rtx_defS0_S0_ @3029
    _Z14gen_ashlv16hi3P7rtx_defS0_S0_ @3030
    _Z14gen_ashlv16qi3P7rtx_defS0_S0_ @3031
    _Z14gen_ashlv16si3P7rtx_defS0_S0_ @3032
    _Z14gen_ashlv32hi3P7rtx_defS0_S0_ @3033
    _Z14gen_ashlv32qi3P7rtx_defS0_S0_ @3034
    _Z14gen_ashlv64qi3P7rtx_defS0_S0_ @3035
    _Z14gen_ashrv16hi3P7rtx_defS0_S0_ @3036
    _Z14gen_ashrv16qi3P7rtx_defS0_S0_ @3037
    _Z14gen_ashrv16si3P7rtx_defS0_S0_ @3038
    _Z14gen_ashrv32hi3P7rtx_defS0_S0_ @3039
    _Z14gen_ashrv32qi3P7rtx_defS0_S0_ @3040
    _Z14gen_ashrv64qi3P7rtx_defS0_S0_ @3041
    _Z14gen_bsr_zext_1P7rtx_defS0_ @3042
    _Z14gen_call_valueP7rtx_defS0_S0_S0_ @3043
    _Z14gen_cbranchcc4P7rtx_defS0_S0_S0_ @3044
    _Z14gen_cbranchdf4P7rtx_defS0_S0_S0_ @3045
    _Z14gen_cbranchdi4P7rtx_defS0_S0_S0_ @3046
    _Z14gen_cbranchhf4P7rtx_defS0_S0_S0_ @3047
    _Z14gen_cbranchhi4P7rtx_defS0_S0_S0_ @3048
    _Z14gen_cbranchqi4P7rtx_defS0_S0_S0_ @3049
    _Z14gen_cbranchsf4P7rtx_defS0_S0_S0_ @3050
    _Z14gen_cbranchsi4P7rtx_defS0_S0_S0_ @3051
    _Z14gen_cbranchti4P7rtx_defS0_S0_S0_ @3052
    _Z14gen_cbranchxf4P7rtx_defS0_S0_S0_ @3053
    _Z14gen_clflushoptP7rtx_def @3054
    _Z14gen_cmlav16hf4P7rtx_defS0_S0_S0_ @3055
    _Z14gen_cmlav32hf4P7rtx_defS0_S0_S0_ @3056
    _Z14gen_cmulv16hf3P7rtx_defS0_S0_ @3057
    _Z14gen_cmulv32hf3P7rtx_defS0_S0_ @3058
    _Z14gen_enqcmds_diP7rtx_defS0_ @3059
    _Z14gen_enqcmds_siP7rtx_defS0_ @3060
    _Z14gen_floatdidf2P7rtx_defS0_ @3061
    _Z14gen_floatdihf2P7rtx_defS0_ @3062
    _Z14gen_floatdisf2P7rtx_defS0_ @3063
    _Z14gen_floatdixf2P7rtx_defS0_ @3064
    _Z14gen_floathidf2P7rtx_defS0_ @3065
    _Z14gen_floathisf2P7rtx_defS0_ @3066
    _Z14gen_floathixf2P7rtx_defS0_ @3067
    _Z14gen_floatsidf2P7rtx_defS0_ @3068
    _Z14gen_floatsihf2P7rtx_defS0_ @3069
    _Z14gen_floatsisf2P7rtx_defS0_ @3070
    _Z14gen_floatsixf2P7rtx_defS0_ @3071
    _Z14gen_fnmav16hf4P7rtx_defS0_S0_S0_ @3072
    _Z14gen_fnmav16sf4P7rtx_defS0_S0_S0_ @3073
    _Z14gen_fnmav32hf4P7rtx_defS0_S0_S0_ @3074
    _Z14gen_fnmsv16hf4P7rtx_defS0_S0_S0_ @3075
    _Z14gen_fnmsv16sf4P7rtx_defS0_S0_S0_ @3076
    _Z14gen_fnmsv32hf4P7rtx_defS0_S0_S0_ @3077
    _Z14gen_fp_libfunc9optab_tagPKcc12machine_mode @3078
    _Z14gen_lceildfdi2P7rtx_defS0_ @3079
    _Z14gen_lceildfsi2P7rtx_defS0_ @3080
    _Z14gen_lceilsfdi2P7rtx_defS0_ @3081
    _Z14gen_lceilsfsi2P7rtx_defS0_ @3082
    _Z14gen_lceilxfdi2P7rtx_defS0_ @3083
    _Z14gen_lceilxfhi2P7rtx_defS0_ @3084
    _Z14gen_lceilxfsi2P7rtx_defS0_ @3085
    _Z14gen_lrintdfdi2P7rtx_defS0_ @3086
    _Z14gen_lrintdfsi2P7rtx_defS0_ @3087
    _Z14gen_lrintsfdi2P7rtx_defS0_ @3088
    _Z14gen_lrintsfsi2P7rtx_defS0_ @3089
    _Z14gen_lrintxfdi2P7rtx_defS0_ @3090
    _Z14gen_lrintxfhi2P7rtx_defS0_ @3091
    _Z14gen_lrintxfsi2P7rtx_defS0_ @3092
    _Z14gen_lshrv16hi3P7rtx_defS0_S0_ @3093
    _Z14gen_lshrv16qi3P7rtx_defS0_S0_ @3094
    _Z14gen_lshrv16si3P7rtx_defS0_S0_ @3095
    _Z14gen_lshrv32hi3P7rtx_defS0_S0_ @3096
    _Z14gen_lshrv32qi3P7rtx_defS0_S0_ @3097
    _Z14gen_lshrv64qi3P7rtx_defS0_S0_ @3098
    _Z14gen_mmx_pinsrwP7rtx_defS0_S0_S0_ @3099
    _Z14gen_mmx_psadbwP7rtx_defS0_S0_ @3100
    _Z14gen_mmx_pshufwP7rtx_defS0_S0_ @3101
    _Z14gen_movhf_maskP7rtx_defS0_S0_S0_ @3102
    _Z14gen_rdfsbasediP7rtx_def @3103
    _Z14gen_rdfsbasesiP7rtx_def @3104
    _Z14gen_rdgsbasediP7rtx_def @3105
    _Z14gen_rdgsbasesiP7rtx_def @3106
    _Z14gen_rintv16hf2P7rtx_defS0_ @3107
    _Z14gen_rintv16sf2P7rtx_defS0_ @3108
    _Z14gen_rintv32hf2P7rtx_defS0_ @3109
    _Z14gen_rotlv16qi3P7rtx_defS0_S0_ @3110
    _Z14gen_rotrv16qi3P7rtx_defS0_S0_ @3111
    _Z14gen_roundv2df2P7rtx_defS0_ @3112
    _Z14gen_roundv4df2P7rtx_defS0_ @3113
    _Z14gen_roundv4sf2P7rtx_defS0_ @3114
    _Z14gen_roundv8df2P7rtx_defS0_ @3115
    _Z14gen_roundv8sf2P7rtx_defS0_ @3116
    _Z14gen_rsqrtv4sf2P7rtx_defS0_ @3117
    _Z14gen_rsqrtv8hf2P7rtx_defS0_ @3118
    _Z14gen_rsqrtv8sf2P7rtx_defS0_ @3119
    _Z14gen_rtx_SUBREG12machine_modeP7rtx_def8poly_intILj1EyE @3120
    _Z14gen_sha256msg1P7rtx_defS0_S0_ @3121
    _Z14gen_sha256msg2P7rtx_defS0_S0_ @3122
    _Z14gen_signbitdf2P7rtx_defS0_ @3123
    _Z14gen_signbitsf2P7rtx_defS0_ @3124
    _Z14gen_signbittf2P7rtx_defS0_ @3125
    _Z14gen_signbitxf2P7rtx_defS0_ @3126
    _Z14gen_smaxv16hf3P7rtx_defS0_S0_ @3127
    _Z14gen_smaxv16hi3P7rtx_defS0_S0_ @3128
    _Z14gen_smaxv16qi3P7rtx_defS0_S0_ @3129
    _Z14gen_smaxv16sf3P7rtx_defS0_S0_ @3130
    _Z14gen_smaxv16si3P7rtx_defS0_S0_ @3131
    _Z14gen_smaxv32hf3P7rtx_defS0_S0_ @3132
    _Z14gen_smaxv32hi3P7rtx_defS0_S0_ @3133
    _Z14gen_smaxv32qi3P7rtx_defS0_S0_ @3134
    _Z14gen_smaxv64qi3P7rtx_defS0_S0_ @3135
    _Z14gen_sminv16hf3P7rtx_defS0_S0_ @3136
    _Z14gen_sminv16hi3P7rtx_defS0_S0_ @3137
    _Z14gen_sminv16qi3P7rtx_defS0_S0_ @3138
    _Z14gen_sminv16sf3P7rtx_defS0_S0_ @3139
    _Z14gen_sminv16si3P7rtx_defS0_S0_ @3140
    _Z14gen_sminv32hf3P7rtx_defS0_S0_ @3141
    _Z14gen_sminv32hi3P7rtx_defS0_S0_ @3142
    _Z14gen_sminv32qi3P7rtx_defS0_S0_ @3143
    _Z14gen_sminv64qi3P7rtx_defS0_S0_ @3144
    _Z14gen_split_1000P8rtx_insnPP7rtx_def @3145
    _Z14gen_split_1001P8rtx_insnPP7rtx_def @3146
    _Z14gen_split_1002P8rtx_insnPP7rtx_def @3147
    _Z14gen_split_1003P8rtx_insnPP7rtx_def @3148
    _Z14gen_split_1004P8rtx_insnPP7rtx_def @3149
    _Z14gen_split_1005P8rtx_insnPP7rtx_def @3150
    _Z14gen_split_1006P8rtx_insnPP7rtx_def @3151
    _Z14gen_split_1007P8rtx_insnPP7rtx_def @3152
    _Z14gen_split_1008P8rtx_insnPP7rtx_def @3153
    _Z14gen_split_1009P8rtx_insnPP7rtx_def @3154
    _Z14gen_split_1010P8rtx_insnPP7rtx_def @3155
    _Z14gen_split_1011P8rtx_insnPP7rtx_def @3156
    _Z14gen_split_1012P8rtx_insnPP7rtx_def @3157
    _Z14gen_split_1013P8rtx_insnPP7rtx_def @3158
    _Z14gen_split_1014P8rtx_insnPP7rtx_def @3159
    _Z14gen_split_1015P8rtx_insnPP7rtx_def @3160
    _Z14gen_split_1016P8rtx_insnPP7rtx_def @3161
    _Z14gen_split_1017P8rtx_insnPP7rtx_def @3162
    _Z14gen_split_1018P8rtx_insnPP7rtx_def @3163
    _Z14gen_split_1019P8rtx_insnPP7rtx_def @3164
    _Z14gen_split_1020P8rtx_insnPP7rtx_def @3165
    _Z14gen_split_1021P8rtx_insnPP7rtx_def @3166
    _Z14gen_split_1022P8rtx_insnPP7rtx_def @3167
    _Z14gen_split_1023P8rtx_insnPP7rtx_def @3168
    _Z14gen_split_1024P8rtx_insnPP7rtx_def @3169
    _Z14gen_split_1025P8rtx_insnPP7rtx_def @3170
    _Z14gen_split_1026P8rtx_insnPP7rtx_def @3171
    _Z14gen_split_1027P8rtx_insnPP7rtx_def @3172
    _Z14gen_split_1028P8rtx_insnPP7rtx_def @3173
    _Z14gen_split_1029P8rtx_insnPP7rtx_def @3174
    _Z14gen_split_1030P8rtx_insnPP7rtx_def @3175
    _Z14gen_split_1031P8rtx_insnPP7rtx_def @3176
    _Z14gen_split_1032P8rtx_insnPP7rtx_def @3177
    _Z14gen_split_1033P8rtx_insnPP7rtx_def @3178
    _Z14gen_split_1034P8rtx_insnPP7rtx_def @3179
    _Z14gen_split_1035P8rtx_insnPP7rtx_def @3180
    _Z14gen_split_1036P8rtx_insnPP7rtx_def @3181
    _Z14gen_split_1037P8rtx_insnPP7rtx_def @3182
    _Z14gen_split_1038P8rtx_insnPP7rtx_def @3183
    _Z14gen_split_1039P8rtx_insnPP7rtx_def @3184
    _Z14gen_split_1040P8rtx_insnPP7rtx_def @3185
    _Z14gen_split_1041P8rtx_insnPP7rtx_def @3186
    _Z14gen_split_1042P8rtx_insnPP7rtx_def @3187
    _Z14gen_split_1043P8rtx_insnPP7rtx_def @3188
    _Z14gen_split_1044P8rtx_insnPP7rtx_def @3189
    _Z14gen_split_1045P8rtx_insnPP7rtx_def @3190
    _Z14gen_split_1046P8rtx_insnPP7rtx_def @3191
    _Z14gen_split_1047P8rtx_insnPP7rtx_def @3192
    _Z14gen_split_1048P8rtx_insnPP7rtx_def @3193
    _Z14gen_split_1049P8rtx_insnPP7rtx_def @3194
    _Z14gen_split_1050P8rtx_insnPP7rtx_def @3195
    _Z14gen_split_1051P8rtx_insnPP7rtx_def @3196
    _Z14gen_split_1052P8rtx_insnPP7rtx_def @3197
    _Z14gen_split_1053P8rtx_insnPP7rtx_def @3198
    _Z14gen_split_1054P8rtx_insnPP7rtx_def @3199
    _Z14gen_split_1055P8rtx_insnPP7rtx_def @3200
    _Z14gen_split_1056P8rtx_insnPP7rtx_def @3201
    _Z14gen_split_1057P8rtx_insnPP7rtx_def @3202
    _Z14gen_split_1058P8rtx_insnPP7rtx_def @3203
    _Z14gen_split_1059P8rtx_insnPP7rtx_def @3204
    _Z14gen_split_1060P8rtx_insnPP7rtx_def @3205
    _Z14gen_split_1061P8rtx_insnPP7rtx_def @3206
    _Z14gen_split_1062P8rtx_insnPP7rtx_def @3207
    _Z14gen_split_1063P8rtx_insnPP7rtx_def @3208
    _Z14gen_split_1064P8rtx_insnPP7rtx_def @3209
    _Z14gen_split_1065P8rtx_insnPP7rtx_def @3210
    _Z14gen_split_1066P8rtx_insnPP7rtx_def @3211
    _Z14gen_split_1067P8rtx_insnPP7rtx_def @3212
    _Z14gen_split_1068P8rtx_insnPP7rtx_def @3213
    _Z14gen_split_1069P8rtx_insnPP7rtx_def @3214
    _Z14gen_split_1070P8rtx_insnPP7rtx_def @3215
    _Z14gen_split_1071P8rtx_insnPP7rtx_def @3216
    _Z14gen_split_1072P8rtx_insnPP7rtx_def @3217
    _Z14gen_split_1073P8rtx_insnPP7rtx_def @3218
    _Z14gen_split_1074P8rtx_insnPP7rtx_def @3219
    _Z14gen_split_1075P8rtx_insnPP7rtx_def @3220
    _Z14gen_split_1076P8rtx_insnPP7rtx_def @3221
    _Z14gen_split_1077P8rtx_insnPP7rtx_def @3222
    _Z14gen_split_1078P8rtx_insnPP7rtx_def @3223
    _Z14gen_split_1079P8rtx_insnPP7rtx_def @3224
    _Z14gen_split_1080P8rtx_insnPP7rtx_def @3225
    _Z14gen_split_1081P8rtx_insnPP7rtx_def @3226
    _Z14gen_split_1082P8rtx_insnPP7rtx_def @3227
    _Z14gen_split_1083P8rtx_insnPP7rtx_def @3228
    _Z14gen_split_1084P8rtx_insnPP7rtx_def @3229
    _Z14gen_split_1085P8rtx_insnPP7rtx_def @3230
    _Z14gen_split_1086P8rtx_insnPP7rtx_def @3231
    _Z14gen_split_1087P8rtx_insnPP7rtx_def @3232
    _Z14gen_split_1088P8rtx_insnPP7rtx_def @3233
    _Z14gen_split_1089P8rtx_insnPP7rtx_def @3234
    _Z14gen_split_1090P8rtx_insnPP7rtx_def @3235
    _Z14gen_split_1091P8rtx_insnPP7rtx_def @3236
    _Z14gen_split_1092P8rtx_insnPP7rtx_def @3237
    _Z14gen_split_1093P8rtx_insnPP7rtx_def @3238
    _Z14gen_split_1094P8rtx_insnPP7rtx_def @3239
    _Z14gen_split_1095P8rtx_insnPP7rtx_def @3240
    _Z14gen_split_1096P8rtx_insnPP7rtx_def @3241
    _Z14gen_split_1097P8rtx_insnPP7rtx_def @3242
    _Z14gen_split_1098P8rtx_insnPP7rtx_def @3243
    _Z14gen_split_1099P8rtx_insnPP7rtx_def @3244
    _Z14gen_split_1100P8rtx_insnPP7rtx_def @3245
    _Z14gen_split_1101P8rtx_insnPP7rtx_def @3246
    _Z14gen_split_1102P8rtx_insnPP7rtx_def @3247
    _Z14gen_split_1103P8rtx_insnPP7rtx_def @3248
    _Z14gen_split_1104P8rtx_insnPP7rtx_def @3249
    _Z14gen_split_1105P8rtx_insnPP7rtx_def @3250
    _Z14gen_split_1106P8rtx_insnPP7rtx_def @3251
    _Z14gen_split_1107P8rtx_insnPP7rtx_def @3252
    _Z14gen_split_1108P8rtx_insnPP7rtx_def @3253
    _Z14gen_split_1109P8rtx_insnPP7rtx_def @3254
    _Z14gen_split_1110P8rtx_insnPP7rtx_def @3255
    _Z14gen_split_1111P8rtx_insnPP7rtx_def @3256
    _Z14gen_split_1112P8rtx_insnPP7rtx_def @3257
    _Z14gen_split_1113P8rtx_insnPP7rtx_def @3258
    _Z14gen_split_1114P8rtx_insnPP7rtx_def @3259
    _Z14gen_split_1115P8rtx_insnPP7rtx_def @3260
    _Z14gen_split_1116P8rtx_insnPP7rtx_def @3261
    _Z14gen_split_1117P8rtx_insnPP7rtx_def @3262
    _Z14gen_split_1118P8rtx_insnPP7rtx_def @3263
    _Z14gen_split_1119P8rtx_insnPP7rtx_def @3264
    _Z14gen_split_1120P8rtx_insnPP7rtx_def @3265
    _Z14gen_split_1121P8rtx_insnPP7rtx_def @3266
    _Z14gen_split_1122P8rtx_insnPP7rtx_def @3267
    _Z14gen_split_1123P8rtx_insnPP7rtx_def @3268
    _Z14gen_split_1124P8rtx_insnPP7rtx_def @3269
    _Z14gen_split_1125P8rtx_insnPP7rtx_def @3270
    _Z14gen_split_1126P8rtx_insnPP7rtx_def @3271
    _Z14gen_split_1127P8rtx_insnPP7rtx_def @3272
    _Z14gen_split_1128P8rtx_insnPP7rtx_def @3273
    _Z14gen_split_1129P8rtx_insnPP7rtx_def @3274
    _Z14gen_split_1130P8rtx_insnPP7rtx_def @3275
    _Z14gen_split_1131P8rtx_insnPP7rtx_def @3276
    _Z14gen_split_1132P8rtx_insnPP7rtx_def @3277
    _Z14gen_split_1133P8rtx_insnPP7rtx_def @3278
    _Z14gen_split_1134P8rtx_insnPP7rtx_def @3279
    _Z14gen_split_1135P8rtx_insnPP7rtx_def @3280
    _Z14gen_split_1136P8rtx_insnPP7rtx_def @3281
    _Z14gen_split_1137P8rtx_insnPP7rtx_def @3282
    _Z14gen_split_1138P8rtx_insnPP7rtx_def @3283
    _Z14gen_split_1139P8rtx_insnPP7rtx_def @3284
    _Z14gen_split_1140P8rtx_insnPP7rtx_def @3285
    _Z14gen_split_1141P8rtx_insnPP7rtx_def @3286
    _Z14gen_split_1142P8rtx_insnPP7rtx_def @3287
    _Z14gen_split_1143P8rtx_insnPP7rtx_def @3288
    _Z14gen_split_1144P8rtx_insnPP7rtx_def @3289
    _Z14gen_split_1145P8rtx_insnPP7rtx_def @3290
    _Z14gen_split_1146P8rtx_insnPP7rtx_def @3291
    _Z14gen_split_1147P8rtx_insnPP7rtx_def @3292
    _Z14gen_split_1148P8rtx_insnPP7rtx_def @3293
    _Z14gen_split_1149P8rtx_insnPP7rtx_def @3294
    _Z14gen_split_1150P8rtx_insnPP7rtx_def @3295
    _Z14gen_split_1151P8rtx_insnPP7rtx_def @3296
    _Z14gen_split_1152P8rtx_insnPP7rtx_def @3297
    _Z14gen_split_1153P8rtx_insnPP7rtx_def @3298
    _Z14gen_split_1154P8rtx_insnPP7rtx_def @3299
    _Z14gen_split_1155P8rtx_insnPP7rtx_def @3300
    _Z14gen_split_1156P8rtx_insnPP7rtx_def @3301
    _Z14gen_split_1157P8rtx_insnPP7rtx_def @3302
    _Z14gen_split_1158P8rtx_insnPP7rtx_def @3303
    _Z14gen_split_1159P8rtx_insnPP7rtx_def @3304
    _Z14gen_split_1160P8rtx_insnPP7rtx_def @3305
    _Z14gen_split_1161P8rtx_insnPP7rtx_def @3306
    _Z14gen_split_1162P8rtx_insnPP7rtx_def @3307
    _Z14gen_split_1163P8rtx_insnPP7rtx_def @3308
    _Z14gen_split_1164P8rtx_insnPP7rtx_def @3309
    _Z14gen_split_1165P8rtx_insnPP7rtx_def @3310
    _Z14gen_split_1166P8rtx_insnPP7rtx_def @3311
    _Z14gen_split_1167P8rtx_insnPP7rtx_def @3312
    _Z14gen_split_1168P8rtx_insnPP7rtx_def @3313
    _Z14gen_split_1169P8rtx_insnPP7rtx_def @3314
    _Z14gen_split_1170P8rtx_insnPP7rtx_def @3315
    _Z14gen_split_1171P8rtx_insnPP7rtx_def @3316
    _Z14gen_split_1172P8rtx_insnPP7rtx_def @3317
    _Z14gen_split_1173P8rtx_insnPP7rtx_def @3318
    _Z14gen_split_1174P8rtx_insnPP7rtx_def @3319
    _Z14gen_split_1175P8rtx_insnPP7rtx_def @3320
    _Z14gen_split_1176P8rtx_insnPP7rtx_def @3321
    _Z14gen_split_1177P8rtx_insnPP7rtx_def @3322
    _Z14gen_split_1178P8rtx_insnPP7rtx_def @3323
    _Z14gen_split_1179P8rtx_insnPP7rtx_def @3324
    _Z14gen_split_1180P8rtx_insnPP7rtx_def @3325
    _Z14gen_split_1181P8rtx_insnPP7rtx_def @3326
    _Z14gen_split_1182P8rtx_insnPP7rtx_def @3327
    _Z14gen_split_1183P8rtx_insnPP7rtx_def @3328
    _Z14gen_split_1184P8rtx_insnPP7rtx_def @3329
    _Z14gen_split_1185P8rtx_insnPP7rtx_def @3330
    _Z14gen_split_1186P8rtx_insnPP7rtx_def @3331
    _Z14gen_split_1187P8rtx_insnPP7rtx_def @3332
    _Z14gen_split_1188P8rtx_insnPP7rtx_def @3333
    _Z14gen_split_1189P8rtx_insnPP7rtx_def @3334
    _Z14gen_split_1190P8rtx_insnPP7rtx_def @3335
    _Z14gen_split_1191P8rtx_insnPP7rtx_def @3336
    _Z14gen_split_1192P8rtx_insnPP7rtx_def @3337
    _Z14gen_split_1193P8rtx_insnPP7rtx_def @3338
    _Z14gen_split_1194P8rtx_insnPP7rtx_def @3339
    _Z14gen_split_1195P8rtx_insnPP7rtx_def @3340
    _Z14gen_split_1196P8rtx_insnPP7rtx_def @3341
    _Z14gen_split_1197P8rtx_insnPP7rtx_def @3342
    _Z14gen_split_1198P8rtx_insnPP7rtx_def @3343
    _Z14gen_split_1199P8rtx_insnPP7rtx_def @3344
    _Z14gen_split_1200P8rtx_insnPP7rtx_def @3345
    _Z14gen_split_1201P8rtx_insnPP7rtx_def @3346
    _Z14gen_split_1202P8rtx_insnPP7rtx_def @3347
    _Z14gen_split_1203P8rtx_insnPP7rtx_def @3348
    _Z14gen_split_1204P8rtx_insnPP7rtx_def @3349
    _Z14gen_split_1205P8rtx_insnPP7rtx_def @3350
    _Z14gen_split_1206P8rtx_insnPP7rtx_def @3351
    _Z14gen_split_1207P8rtx_insnPP7rtx_def @3352
    _Z14gen_split_1208P8rtx_insnPP7rtx_def @3353
    _Z14gen_split_1209P8rtx_insnPP7rtx_def @3354
    _Z14gen_split_1210P8rtx_insnPP7rtx_def @3355
    _Z14gen_split_1211P8rtx_insnPP7rtx_def @3356
    _Z14gen_split_1212P8rtx_insnPP7rtx_def @3357
    _Z14gen_split_1213P8rtx_insnPP7rtx_def @3358
    _Z14gen_split_1214P8rtx_insnPP7rtx_def @3359
    _Z14gen_split_1215P8rtx_insnPP7rtx_def @3360
    _Z14gen_split_1216P8rtx_insnPP7rtx_def @3361
    _Z14gen_split_1217P8rtx_insnPP7rtx_def @3362
    _Z14gen_split_1218P8rtx_insnPP7rtx_def @3363
    _Z14gen_split_1219P8rtx_insnPP7rtx_def @3364
    _Z14gen_split_1220P8rtx_insnPP7rtx_def @3365
    _Z14gen_split_1221P8rtx_insnPP7rtx_def @3366
    _Z14gen_split_1222P8rtx_insnPP7rtx_def @3367
    _Z14gen_split_1223P8rtx_insnPP7rtx_def @3368
    _Z14gen_split_1224P8rtx_insnPP7rtx_def @3369
    _Z14gen_split_1225P8rtx_insnPP7rtx_def @3370
    _Z14gen_split_1226P8rtx_insnPP7rtx_def @3371
    _Z14gen_split_1227P8rtx_insnPP7rtx_def @3372
    _Z14gen_split_1228P8rtx_insnPP7rtx_def @3373
    _Z14gen_split_1229P8rtx_insnPP7rtx_def @3374
    _Z14gen_split_1230P8rtx_insnPP7rtx_def @3375
    _Z14gen_split_1231P8rtx_insnPP7rtx_def @3376
    _Z14gen_split_1232P8rtx_insnPP7rtx_def @3377
    _Z14gen_split_1233P8rtx_insnPP7rtx_def @3378
    _Z14gen_split_1234P8rtx_insnPP7rtx_def @3379
    _Z14gen_split_1235P8rtx_insnPP7rtx_def @3380
    _Z14gen_split_1236P8rtx_insnPP7rtx_def @3381
    _Z14gen_split_1237P8rtx_insnPP7rtx_def @3382
    _Z14gen_split_1238P8rtx_insnPP7rtx_def @3383
    _Z14gen_split_1239P8rtx_insnPP7rtx_def @3384
    _Z14gen_split_1240P8rtx_insnPP7rtx_def @3385
    _Z14gen_split_1241P8rtx_insnPP7rtx_def @3386
    _Z14gen_split_1242P8rtx_insnPP7rtx_def @3387
    _Z14gen_split_1243P8rtx_insnPP7rtx_def @3388
    _Z14gen_split_1244P8rtx_insnPP7rtx_def @3389
    _Z14gen_split_1245P8rtx_insnPP7rtx_def @3390
    _Z14gen_split_1246P8rtx_insnPP7rtx_def @3391
    _Z14gen_split_1247P8rtx_insnPP7rtx_def @3392
    _Z14gen_split_1248P8rtx_insnPP7rtx_def @3393
    _Z14gen_split_1249P8rtx_insnPP7rtx_def @3394
    _Z14gen_split_1250P8rtx_insnPP7rtx_def @3395
    _Z14gen_split_1251P8rtx_insnPP7rtx_def @3396
    _Z14gen_split_1252P8rtx_insnPP7rtx_def @3397
    _Z14gen_split_1253P8rtx_insnPP7rtx_def @3398
    _Z14gen_split_1254P8rtx_insnPP7rtx_def @3399
    _Z14gen_split_1255P8rtx_insnPP7rtx_def @3400
    _Z14gen_split_1256P8rtx_insnPP7rtx_def @3401
    _Z14gen_split_1257P8rtx_insnPP7rtx_def @3402
    _Z14gen_split_1258P8rtx_insnPP7rtx_def @3403
    _Z14gen_split_1259P8rtx_insnPP7rtx_def @3404
    _Z14gen_split_1260P8rtx_insnPP7rtx_def @3405
    _Z14gen_split_1261P8rtx_insnPP7rtx_def @3406
    _Z14gen_split_1262P8rtx_insnPP7rtx_def @3407
    _Z14gen_split_1263P8rtx_insnPP7rtx_def @3408
    _Z14gen_split_1264P8rtx_insnPP7rtx_def @3409
    _Z14gen_split_1265P8rtx_insnPP7rtx_def @3410
    _Z14gen_split_1266P8rtx_insnPP7rtx_def @3411
    _Z14gen_split_1267P8rtx_insnPP7rtx_def @3412
    _Z14gen_split_1268P8rtx_insnPP7rtx_def @3413
    _Z14gen_split_1269P8rtx_insnPP7rtx_def @3414
    _Z14gen_split_1270P8rtx_insnPP7rtx_def @3415
    _Z14gen_split_1271P8rtx_insnPP7rtx_def @3416
    _Z14gen_split_1272P8rtx_insnPP7rtx_def @3417
    _Z14gen_split_1273P8rtx_insnPP7rtx_def @3418
    _Z14gen_split_1274P8rtx_insnPP7rtx_def @3419
    _Z14gen_split_1275P8rtx_insnPP7rtx_def @3420
    _Z14gen_split_1276P8rtx_insnPP7rtx_def @3421
    _Z14gen_split_1277P8rtx_insnPP7rtx_def @3422
    _Z14gen_split_1278P8rtx_insnPP7rtx_def @3423
    _Z14gen_split_1279P8rtx_insnPP7rtx_def @3424
    _Z14gen_split_1280P8rtx_insnPP7rtx_def @3425
    _Z14gen_split_1281P8rtx_insnPP7rtx_def @3426
    _Z14gen_split_1282P8rtx_insnPP7rtx_def @3427
    _Z14gen_split_1283P8rtx_insnPP7rtx_def @3428
    _Z14gen_split_1284P8rtx_insnPP7rtx_def @3429
    _Z14gen_split_1285P8rtx_insnPP7rtx_def @3430
    _Z14gen_split_1286P8rtx_insnPP7rtx_def @3431
    _Z14gen_split_1287P8rtx_insnPP7rtx_def @3432
    _Z14gen_split_1288P8rtx_insnPP7rtx_def @3433
    _Z14gen_split_1289P8rtx_insnPP7rtx_def @3434
    _Z14gen_split_1290P8rtx_insnPP7rtx_def @3435
    _Z14gen_split_1291P8rtx_insnPP7rtx_def @3436
    _Z14gen_split_1292P8rtx_insnPP7rtx_def @3437
    _Z14gen_split_1293P8rtx_insnPP7rtx_def @3438
    _Z14gen_split_1294P8rtx_insnPP7rtx_def @3439
    _Z14gen_split_1295P8rtx_insnPP7rtx_def @3440
    _Z14gen_split_1296P8rtx_insnPP7rtx_def @3441
    _Z14gen_split_1297P8rtx_insnPP7rtx_def @3442
    _Z14gen_split_1298P8rtx_insnPP7rtx_def @3443
    _Z14gen_split_1299P8rtx_insnPP7rtx_def @3444
    _Z14gen_split_1300P8rtx_insnPP7rtx_def @3445
    _Z14gen_split_1301P8rtx_insnPP7rtx_def @3446
    _Z14gen_split_1302P8rtx_insnPP7rtx_def @3447
    _Z14gen_split_1303P8rtx_insnPP7rtx_def @3448
    _Z14gen_split_1304P8rtx_insnPP7rtx_def @3449
    _Z14gen_split_1305P8rtx_insnPP7rtx_def @3450
    _Z14gen_split_1306P8rtx_insnPP7rtx_def @3451
    _Z14gen_split_1307P8rtx_insnPP7rtx_def @3452
    _Z14gen_split_1308P8rtx_insnPP7rtx_def @3453
    _Z14gen_split_1309P8rtx_insnPP7rtx_def @3454
    _Z14gen_split_1310P8rtx_insnPP7rtx_def @3455
    _Z14gen_split_1311P8rtx_insnPP7rtx_def @3456
    _Z14gen_split_1312P8rtx_insnPP7rtx_def @3457
    _Z14gen_split_1313P8rtx_insnPP7rtx_def @3458
    _Z14gen_split_1314P8rtx_insnPP7rtx_def @3459
    _Z14gen_split_1315P8rtx_insnPP7rtx_def @3460
    _Z14gen_split_1316P8rtx_insnPP7rtx_def @3461
    _Z14gen_split_1317P8rtx_insnPP7rtx_def @3462
    _Z14gen_split_1318P8rtx_insnPP7rtx_def @3463
    _Z14gen_split_1319P8rtx_insnPP7rtx_def @3464
    _Z14gen_split_1320P8rtx_insnPP7rtx_def @3465
    _Z14gen_split_1321P8rtx_insnPP7rtx_def @3466
    _Z14gen_split_1322P8rtx_insnPP7rtx_def @3467
    _Z14gen_split_1323P8rtx_insnPP7rtx_def @3468
    _Z14gen_split_1324P8rtx_insnPP7rtx_def @3469
    _Z14gen_split_1325P8rtx_insnPP7rtx_def @3470
    _Z14gen_split_1326P8rtx_insnPP7rtx_def @3471
    _Z14gen_split_1327P8rtx_insnPP7rtx_def @3472
    _Z14gen_split_1328P8rtx_insnPP7rtx_def @3473
    _Z14gen_split_1329P8rtx_insnPP7rtx_def @3474
    _Z14gen_split_1330P8rtx_insnPP7rtx_def @3475
    _Z14gen_split_1331P8rtx_insnPP7rtx_def @3476
    _Z14gen_split_1332P8rtx_insnPP7rtx_def @3477
    _Z14gen_split_1333P8rtx_insnPP7rtx_def @3478
    _Z14gen_split_1334P8rtx_insnPP7rtx_def @3479
    _Z14gen_split_1335P8rtx_insnPP7rtx_def @3480
    _Z14gen_split_1336P8rtx_insnPP7rtx_def @3481
    _Z14gen_split_1337P8rtx_insnPP7rtx_def @3482
    _Z14gen_split_1338P8rtx_insnPP7rtx_def @3483
    _Z14gen_split_1339P8rtx_insnPP7rtx_def @3484
    _Z14gen_split_1340P8rtx_insnPP7rtx_def @3485
    _Z14gen_split_1341P8rtx_insnPP7rtx_def @3486
    _Z14gen_split_1342P8rtx_insnPP7rtx_def @3487
    _Z14gen_split_1343P8rtx_insnPP7rtx_def @3488
    _Z14gen_split_1344P8rtx_insnPP7rtx_def @3489
    _Z14gen_split_1345P8rtx_insnPP7rtx_def @3490
    _Z14gen_split_1346P8rtx_insnPP7rtx_def @3491
    _Z14gen_split_1347P8rtx_insnPP7rtx_def @3492
    _Z14gen_split_1348P8rtx_insnPP7rtx_def @3493
    _Z14gen_split_1349P8rtx_insnPP7rtx_def @3494
    _Z14gen_split_1350P8rtx_insnPP7rtx_def @3495
    _Z14gen_split_1351P8rtx_insnPP7rtx_def @3496
    _Z14gen_split_1352P8rtx_insnPP7rtx_def @3497
    _Z14gen_split_1353P8rtx_insnPP7rtx_def @3498
    _Z14gen_split_1354P8rtx_insnPP7rtx_def @3499
    _Z14gen_split_1355P8rtx_insnPP7rtx_def @3500
    _Z14gen_split_1356P8rtx_insnPP7rtx_def @3501
    _Z14gen_split_1357P8rtx_insnPP7rtx_def @3502
    _Z14gen_split_1358P8rtx_insnPP7rtx_def @3503
    _Z14gen_split_1359P8rtx_insnPP7rtx_def @3504
    _Z14gen_split_1360P8rtx_insnPP7rtx_def @3505
    _Z14gen_split_1361P8rtx_insnPP7rtx_def @3506
    _Z14gen_split_1362P8rtx_insnPP7rtx_def @3507
    _Z14gen_split_1363P8rtx_insnPP7rtx_def @3508
    _Z14gen_split_1364P8rtx_insnPP7rtx_def @3509
    _Z14gen_split_1365P8rtx_insnPP7rtx_def @3510
    _Z14gen_split_1366P8rtx_insnPP7rtx_def @3511
    _Z14gen_split_1367P8rtx_insnPP7rtx_def @3512
    _Z14gen_split_1368P8rtx_insnPP7rtx_def @3513
    _Z14gen_split_1369P8rtx_insnPP7rtx_def @3514
    _Z14gen_split_1370P8rtx_insnPP7rtx_def @3515
    _Z14gen_split_1371P8rtx_insnPP7rtx_def @3516
    _Z14gen_split_1372P8rtx_insnPP7rtx_def @3517
    _Z14gen_split_1373P8rtx_insnPP7rtx_def @3518
    _Z14gen_split_1374P8rtx_insnPP7rtx_def @3519
    _Z14gen_split_1375P8rtx_insnPP7rtx_def @3520
    _Z14gen_split_1376P8rtx_insnPP7rtx_def @3521
    _Z14gen_split_1377P8rtx_insnPP7rtx_def @3522
    _Z14gen_split_1378P8rtx_insnPP7rtx_def @3523
    _Z14gen_split_1379P8rtx_insnPP7rtx_def @3524
    _Z14gen_split_1380P8rtx_insnPP7rtx_def @3525
    _Z14gen_split_1381P8rtx_insnPP7rtx_def @3526
    _Z14gen_split_1382P8rtx_insnPP7rtx_def @3527
    _Z14gen_split_1383P8rtx_insnPP7rtx_def @3528
    _Z14gen_split_1384P8rtx_insnPP7rtx_def @3529
    _Z14gen_split_1385P8rtx_insnPP7rtx_def @3530
    _Z14gen_split_1386P8rtx_insnPP7rtx_def @3531
    _Z14gen_split_1387P8rtx_insnPP7rtx_def @3532
    _Z14gen_split_1388P8rtx_insnPP7rtx_def @3533
    _Z14gen_split_1389P8rtx_insnPP7rtx_def @3534
    _Z14gen_split_1390P8rtx_insnPP7rtx_def @3535
    _Z14gen_split_1391P8rtx_insnPP7rtx_def @3536
    _Z14gen_split_1392P8rtx_insnPP7rtx_def @3537
    _Z14gen_split_1393P8rtx_insnPP7rtx_def @3538
    _Z14gen_split_1394P8rtx_insnPP7rtx_def @3539
    _Z14gen_split_1395P8rtx_insnPP7rtx_def @3540
    _Z14gen_split_1396P8rtx_insnPP7rtx_def @3541
    _Z14gen_split_1397P8rtx_insnPP7rtx_def @3542
    _Z14gen_split_1398P8rtx_insnPP7rtx_def @3543
    _Z14gen_split_1399P8rtx_insnPP7rtx_def @3544
    _Z14gen_split_1400P8rtx_insnPP7rtx_def @3545
    _Z14gen_split_1401P8rtx_insnPP7rtx_def @3546
    _Z14gen_split_1402P8rtx_insnPP7rtx_def @3547
    _Z14gen_split_1403P8rtx_insnPP7rtx_def @3548
    _Z14gen_split_1404P8rtx_insnPP7rtx_def @3549
    _Z14gen_split_1405P8rtx_insnPP7rtx_def @3550
    _Z14gen_split_1406P8rtx_insnPP7rtx_def @3551
    _Z14gen_split_1407P8rtx_insnPP7rtx_def @3552
    _Z14gen_split_1408P8rtx_insnPP7rtx_def @3553
    _Z14gen_split_1409P8rtx_insnPP7rtx_def @3554
    _Z14gen_split_1410P8rtx_insnPP7rtx_def @3555
    _Z14gen_split_1411P8rtx_insnPP7rtx_def @3556
    _Z14gen_split_1412P8rtx_insnPP7rtx_def @3557
    _Z14gen_split_1413P8rtx_insnPP7rtx_def @3558
    _Z14gen_split_1414P8rtx_insnPP7rtx_def @3559
    _Z14gen_split_1415P8rtx_insnPP7rtx_def @3560
    _Z14gen_split_1416P8rtx_insnPP7rtx_def @3561
    _Z14gen_split_1417P8rtx_insnPP7rtx_def @3562
    _Z14gen_split_1418P8rtx_insnPP7rtx_def @3563
    _Z14gen_split_1419P8rtx_insnPP7rtx_def @3564
    _Z14gen_split_1420P8rtx_insnPP7rtx_def @3565
    _Z14gen_split_1421P8rtx_insnPP7rtx_def @3566
    _Z14gen_split_1422P8rtx_insnPP7rtx_def @3567
    _Z14gen_split_1423P8rtx_insnPP7rtx_def @3568
    _Z14gen_split_1424P8rtx_insnPP7rtx_def @3569
    _Z14gen_split_1425P8rtx_insnPP7rtx_def @3570
    _Z14gen_split_1426P8rtx_insnPP7rtx_def @3571
    _Z14gen_split_1427P8rtx_insnPP7rtx_def @3572
    _Z14gen_split_1428P8rtx_insnPP7rtx_def @3573
    _Z14gen_split_1429P8rtx_insnPP7rtx_def @3574
    _Z14gen_split_1430P8rtx_insnPP7rtx_def @3575
    _Z14gen_split_1431P8rtx_insnPP7rtx_def @3576
    _Z14gen_split_1432P8rtx_insnPP7rtx_def @3577
    _Z14gen_split_1433P8rtx_insnPP7rtx_def @3578
    _Z14gen_split_1434P8rtx_insnPP7rtx_def @3579
    _Z14gen_split_1435P8rtx_insnPP7rtx_def @3580
    _Z14gen_split_1436P8rtx_insnPP7rtx_def @3581
    _Z14gen_split_1437P8rtx_insnPP7rtx_def @3582
    _Z14gen_split_1438P8rtx_insnPP7rtx_def @3583
    _Z14gen_split_1439P8rtx_insnPP7rtx_def @3584
    _Z14gen_split_1440P8rtx_insnPP7rtx_def @3585
    _Z14gen_split_1441P8rtx_insnPP7rtx_def @3586
    _Z14gen_split_1442P8rtx_insnPP7rtx_def @3587
    _Z14gen_split_1443P8rtx_insnPP7rtx_def @3588
    _Z14gen_split_1444P8rtx_insnPP7rtx_def @3589
    _Z14gen_split_1445P8rtx_insnPP7rtx_def @3590
    _Z14gen_split_1446P8rtx_insnPP7rtx_def @3591
    _Z14gen_split_1447P8rtx_insnPP7rtx_def @3592
    _Z14gen_split_1448P8rtx_insnPP7rtx_def @3593
    _Z14gen_split_1449P8rtx_insnPP7rtx_def @3594
    _Z14gen_split_1450P8rtx_insnPP7rtx_def @3595
    _Z14gen_split_1451P8rtx_insnPP7rtx_def @3596
    _Z14gen_split_1452P8rtx_insnPP7rtx_def @3597
    _Z14gen_split_1453P8rtx_insnPP7rtx_def @3598
    _Z14gen_split_1454P8rtx_insnPP7rtx_def @3599
    _Z14gen_split_1455P8rtx_insnPP7rtx_def @3600
    _Z14gen_split_1456P8rtx_insnPP7rtx_def @3601
    _Z14gen_split_1457P8rtx_insnPP7rtx_def @3602
    _Z14gen_split_1458P8rtx_insnPP7rtx_def @3603
    _Z14gen_split_1459P8rtx_insnPP7rtx_def @3604
    _Z14gen_split_1460P8rtx_insnPP7rtx_def @3605
    _Z14gen_split_1461P8rtx_insnPP7rtx_def @3606
    _Z14gen_split_1462P8rtx_insnPP7rtx_def @3607
    _Z14gen_split_1463P8rtx_insnPP7rtx_def @3608
    _Z14gen_split_1464P8rtx_insnPP7rtx_def @3609
    _Z14gen_split_1465P8rtx_insnPP7rtx_def @3610
    _Z14gen_split_1466P8rtx_insnPP7rtx_def @3611
    _Z14gen_split_1467P8rtx_insnPP7rtx_def @3612
    _Z14gen_split_1468P8rtx_insnPP7rtx_def @3613
    _Z14gen_split_1469P8rtx_insnPP7rtx_def @3614
    _Z14gen_split_1470P8rtx_insnPP7rtx_def @3615
    _Z14gen_split_1471P8rtx_insnPP7rtx_def @3616
    _Z14gen_split_1472P8rtx_insnPP7rtx_def @3617
    _Z14gen_split_1473P8rtx_insnPP7rtx_def @3618
    _Z14gen_split_1474P8rtx_insnPP7rtx_def @3619
    _Z14gen_split_1475P8rtx_insnPP7rtx_def @3620
    _Z14gen_split_1476P8rtx_insnPP7rtx_def @3621
    _Z14gen_split_1477P8rtx_insnPP7rtx_def @3622
    _Z14gen_split_1478P8rtx_insnPP7rtx_def @3623
    _Z14gen_split_1479P8rtx_insnPP7rtx_def @3624
    _Z14gen_split_1480P8rtx_insnPP7rtx_def @3625
    _Z14gen_split_1481P8rtx_insnPP7rtx_def @3626
    _Z14gen_split_1482P8rtx_insnPP7rtx_def @3627
    _Z14gen_split_1483P8rtx_insnPP7rtx_def @3628
    _Z14gen_split_1484P8rtx_insnPP7rtx_def @3629
    _Z14gen_split_1485P8rtx_insnPP7rtx_def @3630
    _Z14gen_split_1486P8rtx_insnPP7rtx_def @3631
    _Z14gen_split_1487P8rtx_insnPP7rtx_def @3632
    _Z14gen_split_1488P8rtx_insnPP7rtx_def @3633
    _Z14gen_split_1489P8rtx_insnPP7rtx_def @3634
    _Z14gen_split_1490P8rtx_insnPP7rtx_def @3635
    _Z14gen_split_1491P8rtx_insnPP7rtx_def @3636
    _Z14gen_split_1492P8rtx_insnPP7rtx_def @3637
    _Z14gen_split_1493P8rtx_insnPP7rtx_def @3638
    _Z14gen_split_1494P8rtx_insnPP7rtx_def @3639
    _Z14gen_split_1495P8rtx_insnPP7rtx_def @3640
    _Z14gen_split_1496P8rtx_insnPP7rtx_def @3641
    _Z14gen_split_1497P8rtx_insnPP7rtx_def @3642
    _Z14gen_split_1498P8rtx_insnPP7rtx_def @3643
    _Z14gen_split_1499P8rtx_insnPP7rtx_def @3644
    _Z14gen_split_1500P8rtx_insnPP7rtx_def @3645
    _Z14gen_split_1501P8rtx_insnPP7rtx_def @3646
    _Z14gen_split_1502P8rtx_insnPP7rtx_def @3647
    _Z14gen_split_1503P8rtx_insnPP7rtx_def @3648
    _Z14gen_split_1504P8rtx_insnPP7rtx_def @3649
    _Z14gen_split_1505P8rtx_insnPP7rtx_def @3650
    _Z14gen_split_1506P8rtx_insnPP7rtx_def @3651
    _Z14gen_split_1507P8rtx_insnPP7rtx_def @3652
    _Z14gen_split_1508P8rtx_insnPP7rtx_def @3653
    _Z14gen_split_1509P8rtx_insnPP7rtx_def @3654
    _Z14gen_split_1510P8rtx_insnPP7rtx_def @3655
    _Z14gen_split_1511P8rtx_insnPP7rtx_def @3656
    _Z14gen_split_1512P8rtx_insnPP7rtx_def @3657
    _Z14gen_split_1513P8rtx_insnPP7rtx_def @3658
    _Z14gen_split_1514P8rtx_insnPP7rtx_def @3659
    _Z14gen_split_1515P8rtx_insnPP7rtx_def @3660
    _Z14gen_split_1516P8rtx_insnPP7rtx_def @3661
    _Z14gen_split_1517P8rtx_insnPP7rtx_def @3662
    _Z14gen_split_1518P8rtx_insnPP7rtx_def @3663
    _Z14gen_split_1519P8rtx_insnPP7rtx_def @3664
    _Z14gen_split_1520P8rtx_insnPP7rtx_def @3665
    _Z14gen_split_1521P8rtx_insnPP7rtx_def @3666
    _Z14gen_split_1522P8rtx_insnPP7rtx_def @3667
    _Z14gen_split_1523P8rtx_insnPP7rtx_def @3668
    _Z14gen_split_1524P8rtx_insnPP7rtx_def @3669
    _Z14gen_split_1525P8rtx_insnPP7rtx_def @3670
    _Z14gen_split_1526P8rtx_insnPP7rtx_def @3671
    _Z14gen_split_1527P8rtx_insnPP7rtx_def @3672
    _Z14gen_split_1528P8rtx_insnPP7rtx_def @3673
    _Z14gen_split_1529P8rtx_insnPP7rtx_def @3674
    _Z14gen_split_1530P8rtx_insnPP7rtx_def @3675
    _Z14gen_split_1531P8rtx_insnPP7rtx_def @3676
    _Z14gen_split_1532P8rtx_insnPP7rtx_def @3677
    _Z14gen_split_1533P8rtx_insnPP7rtx_def @3678
    _Z14gen_split_1534P8rtx_insnPP7rtx_def @3679
    _Z14gen_split_1535P8rtx_insnPP7rtx_def @3680
    _Z14gen_split_1536P8rtx_insnPP7rtx_def @3681
    _Z14gen_split_1537P8rtx_insnPP7rtx_def @3682
    _Z14gen_split_1538P8rtx_insnPP7rtx_def @3683
    _Z14gen_split_1539P8rtx_insnPP7rtx_def @3684
    _Z14gen_split_1540P8rtx_insnPP7rtx_def @3685
    _Z14gen_split_1541P8rtx_insnPP7rtx_def @3686
    _Z14gen_split_1542P8rtx_insnPP7rtx_def @3687
    _Z14gen_split_1543P8rtx_insnPP7rtx_def @3688
    _Z14gen_split_1544P8rtx_insnPP7rtx_def @3689
    _Z14gen_split_1545P8rtx_insnPP7rtx_def @3690
    _Z14gen_split_1546P8rtx_insnPP7rtx_def @3691
    _Z14gen_split_1547P8rtx_insnPP7rtx_def @3692
    _Z14gen_split_1548P8rtx_insnPP7rtx_def @3693
    _Z14gen_split_1549P8rtx_insnPP7rtx_def @3694
    _Z14gen_split_1550P8rtx_insnPP7rtx_def @3695
    _Z14gen_split_1551P8rtx_insnPP7rtx_def @3696
    _Z14gen_split_1552P8rtx_insnPP7rtx_def @3697
    _Z14gen_split_1553P8rtx_insnPP7rtx_def @3698
    _Z14gen_split_1554P8rtx_insnPP7rtx_def @3699
    _Z14gen_split_1555P8rtx_insnPP7rtx_def @3700
    _Z14gen_split_1556P8rtx_insnPP7rtx_def @3701
    _Z14gen_split_1557P8rtx_insnPP7rtx_def @3702
    _Z14gen_split_1558P8rtx_insnPP7rtx_def @3703
    _Z14gen_split_1559P8rtx_insnPP7rtx_def @3704
    _Z14gen_split_1560P8rtx_insnPP7rtx_def @3705
    _Z14gen_split_1561P8rtx_insnPP7rtx_def @3706
    _Z14gen_split_1562P8rtx_insnPP7rtx_def @3707
    _Z14gen_split_1563P8rtx_insnPP7rtx_def @3708
    _Z14gen_split_1564P8rtx_insnPP7rtx_def @3709
    _Z14gen_split_1565P8rtx_insnPP7rtx_def @3710
    _Z14gen_split_1566P8rtx_insnPP7rtx_def @3711
    _Z14gen_split_1567P8rtx_insnPP7rtx_def @3712
    _Z14gen_split_1568P8rtx_insnPP7rtx_def @3713
    _Z14gen_split_1569P8rtx_insnPP7rtx_def @3714
    _Z14gen_split_1570P8rtx_insnPP7rtx_def @3715
    _Z14gen_split_1571P8rtx_insnPP7rtx_def @3716
    _Z14gen_split_1572P8rtx_insnPP7rtx_def @3717
    _Z14gen_split_1573P8rtx_insnPP7rtx_def @3718
    _Z14gen_split_1574P8rtx_insnPP7rtx_def @3719
    _Z14gen_split_1575P8rtx_insnPP7rtx_def @3720
    _Z14gen_split_1576P8rtx_insnPP7rtx_def @3721
    _Z14gen_split_1577P8rtx_insnPP7rtx_def @3722
    _Z14gen_split_1578P8rtx_insnPP7rtx_def @3723
    _Z14gen_split_1579P8rtx_insnPP7rtx_def @3724
    _Z14gen_split_1580P8rtx_insnPP7rtx_def @3725
    _Z14gen_split_1581P8rtx_insnPP7rtx_def @3726
    _Z14gen_split_1582P8rtx_insnPP7rtx_def @3727
    _Z14gen_split_1583P8rtx_insnPP7rtx_def @3728
    _Z14gen_split_1584P8rtx_insnPP7rtx_def @3729
    _Z14gen_split_1585P8rtx_insnPP7rtx_def @3730
    _Z14gen_split_1586P8rtx_insnPP7rtx_def @3731
    _Z14gen_split_1587P8rtx_insnPP7rtx_def @3732
    _Z14gen_split_1588P8rtx_insnPP7rtx_def @3733
    _Z14gen_split_1589P8rtx_insnPP7rtx_def @3734
    _Z14gen_split_1590P8rtx_insnPP7rtx_def @3735
    _Z14gen_split_1591P8rtx_insnPP7rtx_def @3736
    _Z14gen_split_1592P8rtx_insnPP7rtx_def @3737
    _Z14gen_split_1593P8rtx_insnPP7rtx_def @3738
    _Z14gen_split_1594P8rtx_insnPP7rtx_def @3739
    _Z14gen_split_1595P8rtx_insnPP7rtx_def @3740
    _Z14gen_split_1596P8rtx_insnPP7rtx_def @3741
    _Z14gen_split_1597P8rtx_insnPP7rtx_def @3742
    _Z14gen_split_1598P8rtx_insnPP7rtx_def @3743
    _Z14gen_split_1599P8rtx_insnPP7rtx_def @3744
    _Z14gen_split_1600P8rtx_insnPP7rtx_def @3745
    _Z14gen_split_1601P8rtx_insnPP7rtx_def @3746
    _Z14gen_split_1602P8rtx_insnPP7rtx_def @3747
    _Z14gen_split_1603P8rtx_insnPP7rtx_def @3748
    _Z14gen_split_1604P8rtx_insnPP7rtx_def @3749
    _Z14gen_split_1605P8rtx_insnPP7rtx_def @3750
    _Z14gen_split_1606P8rtx_insnPP7rtx_def @3751
    _Z14gen_split_1607P8rtx_insnPP7rtx_def @3752
    _Z14gen_split_1608P8rtx_insnPP7rtx_def @3753
    _Z14gen_split_1609P8rtx_insnPP7rtx_def @3754
    _Z14gen_split_1610P8rtx_insnPP7rtx_def @3755
    _Z14gen_split_1611P8rtx_insnPP7rtx_def @3756
    _Z14gen_split_1612P8rtx_insnPP7rtx_def @3757
    _Z14gen_split_1613P8rtx_insnPP7rtx_def @3758
    _Z14gen_split_1614P8rtx_insnPP7rtx_def @3759
    _Z14gen_split_1615P8rtx_insnPP7rtx_def @3760
    _Z14gen_split_1616P8rtx_insnPP7rtx_def @3761
    _Z14gen_split_1617P8rtx_insnPP7rtx_def @3762
    _Z14gen_split_1618P8rtx_insnPP7rtx_def @3763
    _Z14gen_split_1619P8rtx_insnPP7rtx_def @3764
    _Z14gen_split_1620P8rtx_insnPP7rtx_def @3765
    _Z14gen_split_1621P8rtx_insnPP7rtx_def @3766
    _Z14gen_split_1622P8rtx_insnPP7rtx_def @3767
    _Z14gen_split_1623P8rtx_insnPP7rtx_def @3768
    _Z14gen_split_1624P8rtx_insnPP7rtx_def @3769
    _Z14gen_split_1625P8rtx_insnPP7rtx_def @3770
    _Z14gen_split_1626P8rtx_insnPP7rtx_def @3771
    _Z14gen_split_1627P8rtx_insnPP7rtx_def @3772
    _Z14gen_split_1628P8rtx_insnPP7rtx_def @3773
    _Z14gen_split_1629P8rtx_insnPP7rtx_def @3774
    _Z14gen_split_1630P8rtx_insnPP7rtx_def @3775
    _Z14gen_split_1631P8rtx_insnPP7rtx_def @3776
    _Z14gen_split_1632P8rtx_insnPP7rtx_def @3777
    _Z14gen_split_1633P8rtx_insnPP7rtx_def @3778
    _Z14gen_split_1634P8rtx_insnPP7rtx_def @3779
    _Z14gen_split_1635P8rtx_insnPP7rtx_def @3780
    _Z14gen_split_1636P8rtx_insnPP7rtx_def @3781
    _Z14gen_split_1637P8rtx_insnPP7rtx_def @3782
    _Z14gen_split_1638P8rtx_insnPP7rtx_def @3783
    _Z14gen_split_1639P8rtx_insnPP7rtx_def @3784
    _Z14gen_split_1640P8rtx_insnPP7rtx_def @3785
    _Z14gen_split_1641P8rtx_insnPP7rtx_def @3786
    _Z14gen_split_1642P8rtx_insnPP7rtx_def @3787
    _Z14gen_split_1643P8rtx_insnPP7rtx_def @3788
    _Z14gen_split_1644P8rtx_insnPP7rtx_def @3789
    _Z14gen_split_1645P8rtx_insnPP7rtx_def @3790
    _Z14gen_split_1646P8rtx_insnPP7rtx_def @3791
    _Z14gen_split_1647P8rtx_insnPP7rtx_def @3792
    _Z14gen_split_1648P8rtx_insnPP7rtx_def @3793
    _Z14gen_split_1649P8rtx_insnPP7rtx_def @3794
    _Z14gen_split_1650P8rtx_insnPP7rtx_def @3795
    _Z14gen_split_1651P8rtx_insnPP7rtx_def @3796
    _Z14gen_split_1652P8rtx_insnPP7rtx_def @3797
    _Z14gen_split_1653P8rtx_insnPP7rtx_def @3798
    _Z14gen_split_1654P8rtx_insnPP7rtx_def @3799
    _Z14gen_split_1655P8rtx_insnPP7rtx_def @3800
    _Z14gen_split_1656P8rtx_insnPP7rtx_def @3801
    _Z14gen_split_1657P8rtx_insnPP7rtx_def @3802
    _Z14gen_split_1658P8rtx_insnPP7rtx_def @3803
    _Z14gen_split_1659P8rtx_insnPP7rtx_def @3804
    _Z14gen_split_1660P8rtx_insnPP7rtx_def @3805
    _Z14gen_split_1661P8rtx_insnPP7rtx_def @3806
    _Z14gen_split_1662P8rtx_insnPP7rtx_def @3807
    _Z14gen_split_1663P8rtx_insnPP7rtx_def @3808
    _Z14gen_split_1664P8rtx_insnPP7rtx_def @3809
    _Z14gen_split_1665P8rtx_insnPP7rtx_def @3810
    _Z14gen_split_1666P8rtx_insnPP7rtx_def @3811
    _Z14gen_split_1667P8rtx_insnPP7rtx_def @3812
    _Z14gen_split_1668P8rtx_insnPP7rtx_def @3813
    _Z14gen_split_1669P8rtx_insnPP7rtx_def @3814
    _Z14gen_split_1670P8rtx_insnPP7rtx_def @3815
    _Z14gen_split_1671P8rtx_insnPP7rtx_def @3816
    _Z14gen_split_1672P8rtx_insnPP7rtx_def @3817
    _Z14gen_split_1673P8rtx_insnPP7rtx_def @3818
    _Z14gen_split_1674P8rtx_insnPP7rtx_def @3819
    _Z14gen_split_1675P8rtx_insnPP7rtx_def @3820
    _Z14gen_split_1676P8rtx_insnPP7rtx_def @3821
    _Z14gen_split_1677P8rtx_insnPP7rtx_def @3822
    _Z14gen_split_1678P8rtx_insnPP7rtx_def @3823
    _Z14gen_split_1679P8rtx_insnPP7rtx_def @3824
    _Z14gen_split_1680P8rtx_insnPP7rtx_def @3825
    _Z14gen_split_1681P8rtx_insnPP7rtx_def @3826
    _Z14gen_split_1682P8rtx_insnPP7rtx_def @3827
    _Z14gen_split_1683P8rtx_insnPP7rtx_def @3828
    _Z14gen_split_1684P8rtx_insnPP7rtx_def @3829
    _Z14gen_split_1685P8rtx_insnPP7rtx_def @3830
    _Z14gen_split_1686P8rtx_insnPP7rtx_def @3831
    _Z14gen_split_1687P8rtx_insnPP7rtx_def @3832
    _Z14gen_split_1688P8rtx_insnPP7rtx_def @3833
    _Z14gen_split_1689P8rtx_insnPP7rtx_def @3834
    _Z14gen_split_1690P8rtx_insnPP7rtx_def @3835
    _Z14gen_split_1691P8rtx_insnPP7rtx_def @3836
    _Z14gen_split_1692P8rtx_insnPP7rtx_def @3837
    _Z14gen_split_1693P8rtx_insnPP7rtx_def @3838
    _Z14gen_split_1694P8rtx_insnPP7rtx_def @3839
    _Z14gen_split_1695P8rtx_insnPP7rtx_def @3840
    _Z14gen_split_1696P8rtx_insnPP7rtx_def @3841
    _Z14gen_split_1697P8rtx_insnPP7rtx_def @3842
    _Z14gen_split_1698P8rtx_insnPP7rtx_def @3843
    _Z14gen_split_1699P8rtx_insnPP7rtx_def @3844
    _Z14gen_split_1700P8rtx_insnPP7rtx_def @3845
    _Z14gen_split_1701P8rtx_insnPP7rtx_def @3846
    _Z14gen_split_1702P8rtx_insnPP7rtx_def @3847
    _Z14gen_split_1703P8rtx_insnPP7rtx_def @3848
    _Z14gen_split_1704P8rtx_insnPP7rtx_def @3849
    _Z14gen_split_1705P8rtx_insnPP7rtx_def @3850
    _Z14gen_split_1706P8rtx_insnPP7rtx_def @3851
    _Z14gen_split_1707P8rtx_insnPP7rtx_def @3852
    _Z14gen_split_1708P8rtx_insnPP7rtx_def @3853
    _Z14gen_split_1709P8rtx_insnPP7rtx_def @3854
    _Z14gen_split_1710P8rtx_insnPP7rtx_def @3855
    _Z14gen_split_1711P8rtx_insnPP7rtx_def @3856
    _Z14gen_split_1712P8rtx_insnPP7rtx_def @3857
    _Z14gen_split_1713P8rtx_insnPP7rtx_def @3858
    _Z14gen_split_1714P8rtx_insnPP7rtx_def @3859
    _Z14gen_split_1715P8rtx_insnPP7rtx_def @3860
    _Z14gen_split_1716P8rtx_insnPP7rtx_def @3861
    _Z14gen_split_1717P8rtx_insnPP7rtx_def @3862
    _Z14gen_split_1718P8rtx_insnPP7rtx_def @3863
    _Z14gen_split_1719P8rtx_insnPP7rtx_def @3864
    _Z14gen_split_1720P8rtx_insnPP7rtx_def @3865
    _Z14gen_split_1721P8rtx_insnPP7rtx_def @3866
    _Z14gen_split_1722P8rtx_insnPP7rtx_def @3867
    _Z14gen_split_1723P8rtx_insnPP7rtx_def @3868
    _Z14gen_split_1724P8rtx_insnPP7rtx_def @3869
    _Z14gen_split_1725P8rtx_insnPP7rtx_def @3870
    _Z14gen_split_1726P8rtx_insnPP7rtx_def @3871
    _Z14gen_split_1727P8rtx_insnPP7rtx_def @3872
    _Z14gen_split_1728P8rtx_insnPP7rtx_def @3873
    _Z14gen_split_1729P8rtx_insnPP7rtx_def @3874
    _Z14gen_split_1730P8rtx_insnPP7rtx_def @3875
    _Z14gen_split_1731P8rtx_insnPP7rtx_def @3876
    _Z14gen_split_1732P8rtx_insnPP7rtx_def @3877
    _Z14gen_split_1733P8rtx_insnPP7rtx_def @3878
    _Z14gen_split_1734P8rtx_insnPP7rtx_def @3879
    _Z14gen_split_1735P8rtx_insnPP7rtx_def @3880
    _Z14gen_split_1736P8rtx_insnPP7rtx_def @3881
    _Z14gen_split_1737P8rtx_insnPP7rtx_def @3882
    _Z14gen_split_1738P8rtx_insnPP7rtx_def @3883
    _Z14gen_split_1739P8rtx_insnPP7rtx_def @3884
    _Z14gen_split_1740P8rtx_insnPP7rtx_def @3885
    _Z14gen_split_1741P8rtx_insnPP7rtx_def @3886
    _Z14gen_split_1742P8rtx_insnPP7rtx_def @3887
    _Z14gen_split_1743P8rtx_insnPP7rtx_def @3888
    _Z14gen_split_1744P8rtx_insnPP7rtx_def @3889
    _Z14gen_split_1745P8rtx_insnPP7rtx_def @3890
    _Z14gen_split_1746P8rtx_insnPP7rtx_def @3891
    _Z14gen_split_1747P8rtx_insnPP7rtx_def @3892
    _Z14gen_split_1748P8rtx_insnPP7rtx_def @3893
    _Z14gen_split_1749P8rtx_insnPP7rtx_def @3894
    _Z14gen_split_1750P8rtx_insnPP7rtx_def @3895
    _Z14gen_split_1751P8rtx_insnPP7rtx_def @3896
    _Z14gen_split_1752P8rtx_insnPP7rtx_def @3897
    _Z14gen_split_1753P8rtx_insnPP7rtx_def @3898
    _Z14gen_split_1754P8rtx_insnPP7rtx_def @3899
    _Z14gen_split_1755P8rtx_insnPP7rtx_def @3900
    _Z14gen_split_1756P8rtx_insnPP7rtx_def @3901
    _Z14gen_split_1757P8rtx_insnPP7rtx_def @3902
    _Z14gen_split_1758P8rtx_insnPP7rtx_def @3903
    _Z14gen_split_1759P8rtx_insnPP7rtx_def @3904
    _Z14gen_split_1760P8rtx_insnPP7rtx_def @3905
    _Z14gen_split_1761P8rtx_insnPP7rtx_def @3906
    _Z14gen_split_1762P8rtx_insnPP7rtx_def @3907
    _Z14gen_split_1763P8rtx_insnPP7rtx_def @3908
    _Z14gen_split_1764P8rtx_insnPP7rtx_def @3909
    _Z14gen_split_1765P8rtx_insnPP7rtx_def @3910
    _Z14gen_split_1766P8rtx_insnPP7rtx_def @3911
    _Z14gen_split_1767P8rtx_insnPP7rtx_def @3912
    _Z14gen_split_1768P8rtx_insnPP7rtx_def @3913
    _Z14gen_split_1769P8rtx_insnPP7rtx_def @3914
    _Z14gen_split_1770P8rtx_insnPP7rtx_def @3915
    _Z14gen_split_1771P8rtx_insnPP7rtx_def @3916
    _Z14gen_split_1772P8rtx_insnPP7rtx_def @3917
    _Z14gen_split_1773P8rtx_insnPP7rtx_def @3918
    _Z14gen_split_1774P8rtx_insnPP7rtx_def @3919
    _Z14gen_split_1775P8rtx_insnPP7rtx_def @3920
    _Z14gen_split_1776P8rtx_insnPP7rtx_def @3921
    _Z14gen_split_1777P8rtx_insnPP7rtx_def @3922
    _Z14gen_split_1778P8rtx_insnPP7rtx_def @3923
    _Z14gen_split_1779P8rtx_insnPP7rtx_def @3924
    _Z14gen_split_1780P8rtx_insnPP7rtx_def @3925
    _Z14gen_split_1781P8rtx_insnPP7rtx_def @3926
    _Z14gen_split_1782P8rtx_insnPP7rtx_def @3927
    _Z14gen_split_1783P8rtx_insnPP7rtx_def @3928
    _Z14gen_split_1784P8rtx_insnPP7rtx_def @3929
    _Z14gen_split_1785P8rtx_insnPP7rtx_def @3930
    _Z14gen_split_1786P8rtx_insnPP7rtx_def @3931
    _Z14gen_split_1787P8rtx_insnPP7rtx_def @3932
    _Z14gen_split_1788P8rtx_insnPP7rtx_def @3933
    _Z14gen_split_1789P8rtx_insnPP7rtx_def @3934
    _Z14gen_split_1790P8rtx_insnPP7rtx_def @3935
    _Z14gen_split_1791P8rtx_insnPP7rtx_def @3936
    _Z14gen_split_1792P8rtx_insnPP7rtx_def @3937
    _Z14gen_split_1793P8rtx_insnPP7rtx_def @3938
    _Z14gen_split_1794P8rtx_insnPP7rtx_def @3939
    _Z14gen_split_1795P8rtx_insnPP7rtx_def @3940
    _Z14gen_split_1796P8rtx_insnPP7rtx_def @3941
    _Z14gen_split_1797P8rtx_insnPP7rtx_def @3942
    _Z14gen_split_1798P8rtx_insnPP7rtx_def @3943
    _Z14gen_split_1799P8rtx_insnPP7rtx_def @3944
    _Z14gen_split_1800P8rtx_insnPP7rtx_def @3945
    _Z14gen_split_1801P8rtx_insnPP7rtx_def @3946
    _Z14gen_split_1802P8rtx_insnPP7rtx_def @3947
    _Z14gen_split_1803P8rtx_insnPP7rtx_def @3948
    _Z14gen_split_1804P8rtx_insnPP7rtx_def @3949
    _Z14gen_split_1805P8rtx_insnPP7rtx_def @3950
    _Z14gen_split_1806P8rtx_insnPP7rtx_def @3951
    _Z14gen_split_1807P8rtx_insnPP7rtx_def @3952
    _Z14gen_split_1808P8rtx_insnPP7rtx_def @3953
    _Z14gen_split_1809P8rtx_insnPP7rtx_def @3954
    _Z14gen_split_1810P8rtx_insnPP7rtx_def @3955
    _Z14gen_split_1811P8rtx_insnPP7rtx_def @3956
    _Z14gen_split_1812P8rtx_insnPP7rtx_def @3957
    _Z14gen_split_1813P8rtx_insnPP7rtx_def @3958
    _Z14gen_split_1814P8rtx_insnPP7rtx_def @3959
    _Z14gen_split_1815P8rtx_insnPP7rtx_def @3960
    _Z14gen_split_1816P8rtx_insnPP7rtx_def @3961
    _Z14gen_split_1817P8rtx_insnPP7rtx_def @3962
    _Z14gen_split_1818P8rtx_insnPP7rtx_def @3963
    _Z14gen_split_1819P8rtx_insnPP7rtx_def @3964
    _Z14gen_split_1820P8rtx_insnPP7rtx_def @3965
    _Z14gen_split_1821P8rtx_insnPP7rtx_def @3966
    _Z14gen_split_1822P8rtx_insnPP7rtx_def @3967
    _Z14gen_split_1823P8rtx_insnPP7rtx_def @3968
    _Z14gen_split_1824P8rtx_insnPP7rtx_def @3969
    _Z14gen_split_1825P8rtx_insnPP7rtx_def @3970
    _Z14gen_split_1826P8rtx_insnPP7rtx_def @3971
    _Z14gen_split_1827P8rtx_insnPP7rtx_def @3972
    _Z14gen_split_1828P8rtx_insnPP7rtx_def @3973
    _Z14gen_split_1829P8rtx_insnPP7rtx_def @3974
    _Z14gen_split_1830P8rtx_insnPP7rtx_def @3975
    _Z14gen_split_1831P8rtx_insnPP7rtx_def @3976
    _Z14gen_split_1832P8rtx_insnPP7rtx_def @3977
    _Z14gen_split_1833P8rtx_insnPP7rtx_def @3978
    _Z14gen_split_1834P8rtx_insnPP7rtx_def @3979
    _Z14gen_split_1835P8rtx_insnPP7rtx_def @3980
    _Z14gen_split_1836P8rtx_insnPP7rtx_def @3981
    _Z14gen_split_1837P8rtx_insnPP7rtx_def @3982
    _Z14gen_split_1838P8rtx_insnPP7rtx_def @3983
    _Z14gen_split_1839P8rtx_insnPP7rtx_def @3984
    _Z14gen_split_1840P8rtx_insnPP7rtx_def @3985
    _Z14gen_split_1841P8rtx_insnPP7rtx_def @3986
    _Z14gen_split_1842P8rtx_insnPP7rtx_def @3987
    _Z14gen_split_1843P8rtx_insnPP7rtx_def @3988
    _Z14gen_split_1844P8rtx_insnPP7rtx_def @3989
    _Z14gen_split_1845P8rtx_insnPP7rtx_def @3990
    _Z14gen_split_1846P8rtx_insnPP7rtx_def @3991
    _Z14gen_split_1847P8rtx_insnPP7rtx_def @3992
    _Z14gen_split_1848P8rtx_insnPP7rtx_def @3993
    _Z14gen_split_1849P8rtx_insnPP7rtx_def @3994
    _Z14gen_split_1850P8rtx_insnPP7rtx_def @3995
    _Z14gen_split_1851P8rtx_insnPP7rtx_def @3996
    _Z14gen_split_1852P8rtx_insnPP7rtx_def @3997
    _Z14gen_split_1853P8rtx_insnPP7rtx_def @3998
    _Z14gen_split_1854P8rtx_insnPP7rtx_def @3999
    _Z14gen_split_1855P8rtx_insnPP7rtx_def @4000
    _Z14gen_split_1856P8rtx_insnPP7rtx_def @4001
    _Z14gen_split_1857P8rtx_insnPP7rtx_def @4002
    _Z14gen_split_1858P8rtx_insnPP7rtx_def @4003
    _Z14gen_split_1859P8rtx_insnPP7rtx_def @4004
    _Z14gen_split_1860P8rtx_insnPP7rtx_def @4005
    _Z14gen_split_1861P8rtx_insnPP7rtx_def @4006
    _Z14gen_split_1862P8rtx_insnPP7rtx_def @4007
    _Z14gen_split_1863P8rtx_insnPP7rtx_def @4008
    _Z14gen_split_1864P8rtx_insnPP7rtx_def @4009
    _Z14gen_split_1865P8rtx_insnPP7rtx_def @4010
    _Z14gen_split_1866P8rtx_insnPP7rtx_def @4011
    _Z14gen_split_1867P8rtx_insnPP7rtx_def @4012
    _Z14gen_split_1868P8rtx_insnPP7rtx_def @4013
    _Z14gen_split_1869P8rtx_insnPP7rtx_def @4014
    _Z14gen_split_1870P8rtx_insnPP7rtx_def @4015
    _Z14gen_split_1871P8rtx_insnPP7rtx_def @4016
    _Z14gen_split_1872P8rtx_insnPP7rtx_def @4017
    _Z14gen_split_1873P8rtx_insnPP7rtx_def @4018
    _Z14gen_split_1874P8rtx_insnPP7rtx_def @4019
    _Z14gen_split_1875P8rtx_insnPP7rtx_def @4020
    _Z14gen_split_1876P8rtx_insnPP7rtx_def @4021
    _Z14gen_split_1877P8rtx_insnPP7rtx_def @4022
    _Z14gen_split_1878P8rtx_insnPP7rtx_def @4023
    _Z14gen_split_1879P8rtx_insnPP7rtx_def @4024
    _Z14gen_split_1880P8rtx_insnPP7rtx_def @4025
    _Z14gen_split_1881P8rtx_insnPP7rtx_def @4026
    _Z14gen_split_1882P8rtx_insnPP7rtx_def @4027
    _Z14gen_split_1883P8rtx_insnPP7rtx_def @4028
    _Z14gen_split_1884P8rtx_insnPP7rtx_def @4029
    _Z14gen_split_1885P8rtx_insnPP7rtx_def @4030
    _Z14gen_split_1886P8rtx_insnPP7rtx_def @4031
    _Z14gen_split_1887P8rtx_insnPP7rtx_def @4032
    _Z14gen_split_1888P8rtx_insnPP7rtx_def @4033
    _Z14gen_split_1889P8rtx_insnPP7rtx_def @4034
    _Z14gen_split_1890P8rtx_insnPP7rtx_def @4035
    _Z14gen_split_1891P8rtx_insnPP7rtx_def @4036
    _Z14gen_split_1892P8rtx_insnPP7rtx_def @4037
    _Z14gen_split_1893P8rtx_insnPP7rtx_def @4038
    _Z14gen_split_1894P8rtx_insnPP7rtx_def @4039
    _Z14gen_split_1895P8rtx_insnPP7rtx_def @4040
    _Z14gen_split_1896P8rtx_insnPP7rtx_def @4041
    _Z14gen_split_1897P8rtx_insnPP7rtx_def @4042
    _Z14gen_split_1898P8rtx_insnPP7rtx_def @4043
    _Z14gen_split_1899P8rtx_insnPP7rtx_def @4044
    _Z14gen_split_1900P8rtx_insnPP7rtx_def @4045
    _Z14gen_split_1901P8rtx_insnPP7rtx_def @4046
    _Z14gen_split_1902P8rtx_insnPP7rtx_def @4047
    _Z14gen_split_1903P8rtx_insnPP7rtx_def @4048
    _Z14gen_split_1904P8rtx_insnPP7rtx_def @4049
    _Z14gen_split_1905P8rtx_insnPP7rtx_def @4050
    _Z14gen_split_1906P8rtx_insnPP7rtx_def @4051
    _Z14gen_split_1907P8rtx_insnPP7rtx_def @4052
    _Z14gen_split_1908P8rtx_insnPP7rtx_def @4053
    _Z14gen_split_1909P8rtx_insnPP7rtx_def @4054
    _Z14gen_split_1910P8rtx_insnPP7rtx_def @4055
    _Z14gen_split_1911P8rtx_insnPP7rtx_def @4056
    _Z14gen_split_1912P8rtx_insnPP7rtx_def @4057
    _Z14gen_split_1913P8rtx_insnPP7rtx_def @4058
    _Z14gen_split_1914P8rtx_insnPP7rtx_def @4059
    _Z14gen_split_1915P8rtx_insnPP7rtx_def @4060
    _Z14gen_split_1916P8rtx_insnPP7rtx_def @4061
    _Z14gen_split_1917P8rtx_insnPP7rtx_def @4062
    _Z14gen_split_1918P8rtx_insnPP7rtx_def @4063
    _Z14gen_split_1919P8rtx_insnPP7rtx_def @4064
    _Z14gen_split_1920P8rtx_insnPP7rtx_def @4065
    _Z14gen_split_1921P8rtx_insnPP7rtx_def @4066
    _Z14gen_split_1922P8rtx_insnPP7rtx_def @4067
    _Z14gen_split_1923P8rtx_insnPP7rtx_def @4068
    _Z14gen_split_1924P8rtx_insnPP7rtx_def @4069
    _Z14gen_split_1925P8rtx_insnPP7rtx_def @4070
    _Z14gen_split_1926P8rtx_insnPP7rtx_def @4071
    _Z14gen_split_1927P8rtx_insnPP7rtx_def @4072
    _Z14gen_split_1928P8rtx_insnPP7rtx_def @4073
    _Z14gen_split_1929P8rtx_insnPP7rtx_def @4074
    _Z14gen_split_1930P8rtx_insnPP7rtx_def @4075
    _Z14gen_split_1931P8rtx_insnPP7rtx_def @4076
    _Z14gen_split_1932P8rtx_insnPP7rtx_def @4077
    _Z14gen_split_1933P8rtx_insnPP7rtx_def @4078
    _Z14gen_split_1934P8rtx_insnPP7rtx_def @4079
    _Z14gen_split_1935P8rtx_insnPP7rtx_def @4080
    _Z14gen_split_1936P8rtx_insnPP7rtx_def @4081
    _Z14gen_split_1937P8rtx_insnPP7rtx_def @4082
    _Z14gen_split_1938P8rtx_insnPP7rtx_def @4083
    _Z14gen_split_1939P8rtx_insnPP7rtx_def @4084
    _Z14gen_split_1940P8rtx_insnPP7rtx_def @4085
    _Z14gen_split_1941P8rtx_insnPP7rtx_def @4086
    _Z14gen_split_1942P8rtx_insnPP7rtx_def @4087
    _Z14gen_split_1943P8rtx_insnPP7rtx_def @4088
    _Z14gen_split_1944P8rtx_insnPP7rtx_def @4089
    _Z14gen_split_1945P8rtx_insnPP7rtx_def @4090
    _Z14gen_split_1946P8rtx_insnPP7rtx_def @4091
    _Z14gen_split_1947P8rtx_insnPP7rtx_def @4092
    _Z14gen_split_1948P8rtx_insnPP7rtx_def @4093
    _Z14gen_split_1949P8rtx_insnPP7rtx_def @4094
    _Z14gen_split_1950P8rtx_insnPP7rtx_def @4095
    _Z14gen_split_1951P8rtx_insnPP7rtx_def @4096
    _Z14gen_split_1952P8rtx_insnPP7rtx_def @4097
    _Z14gen_split_1953P8rtx_insnPP7rtx_def @4098
    _Z14gen_split_1954P8rtx_insnPP7rtx_def @4099
    _Z14gen_split_1955P8rtx_insnPP7rtx_def @4100
    _Z14gen_split_1956P8rtx_insnPP7rtx_def @4101
    _Z14gen_split_1957P8rtx_insnPP7rtx_def @4102
    _Z14gen_split_1958P8rtx_insnPP7rtx_def @4103
    _Z14gen_split_1959P8rtx_insnPP7rtx_def @4104
    _Z14gen_split_1960P8rtx_insnPP7rtx_def @4105
    _Z14gen_split_1961P8rtx_insnPP7rtx_def @4106
    _Z14gen_split_1962P8rtx_insnPP7rtx_def @4107
    _Z14gen_split_1963P8rtx_insnPP7rtx_def @4108
    _Z14gen_split_1964P8rtx_insnPP7rtx_def @4109
    _Z14gen_split_1965P8rtx_insnPP7rtx_def @4110
    _Z14gen_split_1966P8rtx_insnPP7rtx_def @4111
    _Z14gen_split_1967P8rtx_insnPP7rtx_def @4112
    _Z14gen_split_1968P8rtx_insnPP7rtx_def @4113
    _Z14gen_split_1969P8rtx_insnPP7rtx_def @4114
    _Z14gen_split_1970P8rtx_insnPP7rtx_def @4115
    _Z14gen_split_1971P8rtx_insnPP7rtx_def @4116
    _Z14gen_split_1972P8rtx_insnPP7rtx_def @4117
    _Z14gen_split_1973P8rtx_insnPP7rtx_def @4118
    _Z14gen_split_1974P8rtx_insnPP7rtx_def @4119
    _Z14gen_split_1975P8rtx_insnPP7rtx_def @4120
    _Z14gen_split_1976P8rtx_insnPP7rtx_def @4121
    _Z14gen_split_1977P8rtx_insnPP7rtx_def @4122
    _Z14gen_split_1978P8rtx_insnPP7rtx_def @4123
    _Z14gen_split_1979P8rtx_insnPP7rtx_def @4124
    _Z14gen_split_1980P8rtx_insnPP7rtx_def @4125
    _Z14gen_split_1981P8rtx_insnPP7rtx_def @4126
    _Z14gen_split_1982P8rtx_insnPP7rtx_def @4127
    _Z14gen_split_1983P8rtx_insnPP7rtx_def @4128
    _Z14gen_split_1984P8rtx_insnPP7rtx_def @4129
    _Z14gen_split_1985P8rtx_insnPP7rtx_def @4130
    _Z14gen_split_1986P8rtx_insnPP7rtx_def @4131
    _Z14gen_split_1987P8rtx_insnPP7rtx_def @4132
    _Z14gen_split_1988P8rtx_insnPP7rtx_def @4133
    _Z14gen_split_1989P8rtx_insnPP7rtx_def @4134
    _Z14gen_split_1990P8rtx_insnPP7rtx_def @4135
    _Z14gen_split_1991P8rtx_insnPP7rtx_def @4136
    _Z14gen_split_1992P8rtx_insnPP7rtx_def @4137
    _Z14gen_split_1993P8rtx_insnPP7rtx_def @4138
    _Z14gen_split_1994P8rtx_insnPP7rtx_def @4139
    _Z14gen_split_1995P8rtx_insnPP7rtx_def @4140
    _Z14gen_split_1996P8rtx_insnPP7rtx_def @4141
    _Z14gen_split_1997P8rtx_insnPP7rtx_def @4142
    _Z14gen_split_1998P8rtx_insnPP7rtx_def @4143
    _Z14gen_split_1999P8rtx_insnPP7rtx_def @4144
    _Z14gen_split_2000P8rtx_insnPP7rtx_def @4145
    _Z14gen_split_2001P8rtx_insnPP7rtx_def @4146
    _Z14gen_split_2002P8rtx_insnPP7rtx_def @4147
    _Z14gen_split_2003P8rtx_insnPP7rtx_def @4148
    _Z14gen_split_2004P8rtx_insnPP7rtx_def @4149
    _Z14gen_split_2005P8rtx_insnPP7rtx_def @4150
    _Z14gen_split_2006P8rtx_insnPP7rtx_def @4151
    _Z14gen_split_2007P8rtx_insnPP7rtx_def @4152
    _Z14gen_split_2008P8rtx_insnPP7rtx_def @4153
    _Z14gen_split_2009P8rtx_insnPP7rtx_def @4154
    _Z14gen_split_2010P8rtx_insnPP7rtx_def @4155
    _Z14gen_split_2011P8rtx_insnPP7rtx_def @4156
    _Z14gen_split_2012P8rtx_insnPP7rtx_def @4157
    _Z14gen_split_2013P8rtx_insnPP7rtx_def @4158
    _Z14gen_split_2014P8rtx_insnPP7rtx_def @4159
    _Z14gen_split_2015P8rtx_insnPP7rtx_def @4160
    _Z14gen_split_2016P8rtx_insnPP7rtx_def @4161
    _Z14gen_split_2017P8rtx_insnPP7rtx_def @4162
    _Z14gen_split_2018P8rtx_insnPP7rtx_def @4163
    _Z14gen_split_2019P8rtx_insnPP7rtx_def @4164
    _Z14gen_split_2020P8rtx_insnPP7rtx_def @4165
    _Z14gen_split_2021P8rtx_insnPP7rtx_def @4166
    _Z14gen_split_2022P8rtx_insnPP7rtx_def @4167
    _Z14gen_split_2023P8rtx_insnPP7rtx_def @4168
    _Z14gen_split_2024P8rtx_insnPP7rtx_def @4169
    _Z14gen_split_2025P8rtx_insnPP7rtx_def @4170
    _Z14gen_split_2026P8rtx_insnPP7rtx_def @4171
    _Z14gen_split_2027P8rtx_insnPP7rtx_def @4172
    _Z14gen_split_2028P8rtx_insnPP7rtx_def @4173
    _Z14gen_split_2029P8rtx_insnPP7rtx_def @4174
    _Z14gen_split_2030P8rtx_insnPP7rtx_def @4175
    _Z14gen_split_2031P8rtx_insnPP7rtx_def @4176
    _Z14gen_split_2032P8rtx_insnPP7rtx_def @4177
    _Z14gen_split_2033P8rtx_insnPP7rtx_def @4178
    _Z14gen_split_2034P8rtx_insnPP7rtx_def @4179
    _Z14gen_split_2035P8rtx_insnPP7rtx_def @4180
    _Z14gen_split_2036P8rtx_insnPP7rtx_def @4181
    _Z14gen_split_2037P8rtx_insnPP7rtx_def @4182
    _Z14gen_split_2038P8rtx_insnPP7rtx_def @4183
    _Z14gen_split_2039P8rtx_insnPP7rtx_def @4184
    _Z14gen_split_2040P8rtx_insnPP7rtx_def @4185
    _Z14gen_split_2041P8rtx_insnPP7rtx_def @4186
    _Z14gen_split_2042P8rtx_insnPP7rtx_def @4187
    _Z14gen_split_2043P8rtx_insnPP7rtx_def @4188
    _Z14gen_split_2044P8rtx_insnPP7rtx_def @4189
    _Z14gen_split_2045P8rtx_insnPP7rtx_def @4190
    _Z14gen_split_2046P8rtx_insnPP7rtx_def @4191
    _Z14gen_split_2047P8rtx_insnPP7rtx_def @4192
    _Z14gen_split_2048P8rtx_insnPP7rtx_def @4193
    _Z14gen_split_2049P8rtx_insnPP7rtx_def @4194
    _Z14gen_split_2050P8rtx_insnPP7rtx_def @4195
    _Z14gen_split_2051P8rtx_insnPP7rtx_def @4196
    _Z14gen_split_2052P8rtx_insnPP7rtx_def @4197
    _Z14gen_split_2053P8rtx_insnPP7rtx_def @4198
    _Z14gen_split_2054P8rtx_insnPP7rtx_def @4199
    _Z14gen_split_2055P8rtx_insnPP7rtx_def @4200
    _Z14gen_split_2056P8rtx_insnPP7rtx_def @4201
    _Z14gen_split_2057P8rtx_insnPP7rtx_def @4202
    _Z14gen_split_2058P8rtx_insnPP7rtx_def @4203
    _Z14gen_split_2059P8rtx_insnPP7rtx_def @4204
    _Z14gen_split_2060P8rtx_insnPP7rtx_def @4205
    _Z14gen_split_2061P8rtx_insnPP7rtx_def @4206
    _Z14gen_split_2062P8rtx_insnPP7rtx_def @4207
    _Z14gen_split_2063P8rtx_insnPP7rtx_def @4208
    _Z14gen_split_2064P8rtx_insnPP7rtx_def @4209
    _Z14gen_split_2065P8rtx_insnPP7rtx_def @4210
    _Z14gen_split_2066P8rtx_insnPP7rtx_def @4211
    _Z14gen_split_2067P8rtx_insnPP7rtx_def @4212
    _Z14gen_split_2068P8rtx_insnPP7rtx_def @4213
    _Z14gen_split_2069P8rtx_insnPP7rtx_def @4214
    _Z14gen_split_2070P8rtx_insnPP7rtx_def @4215
    _Z14gen_split_2071P8rtx_insnPP7rtx_def @4216
    _Z14gen_split_2072P8rtx_insnPP7rtx_def @4217
    _Z14gen_split_2073P8rtx_insnPP7rtx_def @4218
    _Z14gen_split_2074P8rtx_insnPP7rtx_def @4219
    _Z14gen_split_2075P8rtx_insnPP7rtx_def @4220
    _Z14gen_split_2076P8rtx_insnPP7rtx_def @4221
    _Z14gen_split_2077P8rtx_insnPP7rtx_def @4222
    _Z14gen_split_2078P8rtx_insnPP7rtx_def @4223
    _Z14gen_split_2079P8rtx_insnPP7rtx_def @4224
    _Z14gen_split_2080P8rtx_insnPP7rtx_def @4225
    _Z14gen_split_2081P8rtx_insnPP7rtx_def @4226
    _Z14gen_split_2082P8rtx_insnPP7rtx_def @4227
    _Z14gen_split_2083P8rtx_insnPP7rtx_def @4228
    _Z14gen_split_2084P8rtx_insnPP7rtx_def @4229
    _Z14gen_split_2085P8rtx_insnPP7rtx_def @4230
    _Z14gen_split_2086P8rtx_insnPP7rtx_def @4231
    _Z14gen_split_2087P8rtx_insnPP7rtx_def @4232
    _Z14gen_split_2088P8rtx_insnPP7rtx_def @4233
    _Z14gen_split_2089P8rtx_insnPP7rtx_def @4234
    _Z14gen_split_2090P8rtx_insnPP7rtx_def @4235
    _Z14gen_split_2091P8rtx_insnPP7rtx_def @4236
    _Z14gen_split_2092P8rtx_insnPP7rtx_def @4237
    _Z14gen_split_2093P8rtx_insnPP7rtx_def @4238
    _Z14gen_split_2094P8rtx_insnPP7rtx_def @4239
    _Z14gen_split_2095P8rtx_insnPP7rtx_def @4240
    _Z14gen_split_2096P8rtx_insnPP7rtx_def @4241
    _Z14gen_split_2097P8rtx_insnPP7rtx_def @4242
    _Z14gen_split_2098P8rtx_insnPP7rtx_def @4243
    _Z14gen_split_2099P8rtx_insnPP7rtx_def @4244
    _Z14gen_split_2100P8rtx_insnPP7rtx_def @4245
    _Z14gen_split_2101P8rtx_insnPP7rtx_def @4246
    _Z14gen_split_2102P8rtx_insnPP7rtx_def @4247
    _Z14gen_split_2103P8rtx_insnPP7rtx_def @4248
    _Z14gen_split_2104P8rtx_insnPP7rtx_def @4249
    _Z14gen_split_2105P8rtx_insnPP7rtx_def @4250
    _Z14gen_split_2106P8rtx_insnPP7rtx_def @4251
    _Z14gen_split_2107P8rtx_insnPP7rtx_def @4252
    _Z14gen_split_2108P8rtx_insnPP7rtx_def @4253
    _Z14gen_split_2109P8rtx_insnPP7rtx_def @4254
    _Z14gen_split_2110P8rtx_insnPP7rtx_def @4255
    _Z14gen_split_2111P8rtx_insnPP7rtx_def @4256
    _Z14gen_split_2112P8rtx_insnPP7rtx_def @4257
    _Z14gen_split_2113P8rtx_insnPP7rtx_def @4258
    _Z14gen_split_2114P8rtx_insnPP7rtx_def @4259
    _Z14gen_split_2115P8rtx_insnPP7rtx_def @4260
    _Z14gen_split_2116P8rtx_insnPP7rtx_def @4261
    _Z14gen_split_2117P8rtx_insnPP7rtx_def @4262
    _Z14gen_split_2118P8rtx_insnPP7rtx_def @4263
    _Z14gen_split_2119P8rtx_insnPP7rtx_def @4264
    _Z14gen_split_2120P8rtx_insnPP7rtx_def @4265
    _Z14gen_split_2121P8rtx_insnPP7rtx_def @4266
    _Z14gen_split_2122P8rtx_insnPP7rtx_def @4267
    _Z14gen_split_2123P8rtx_insnPP7rtx_def @4268
    _Z14gen_split_2124P8rtx_insnPP7rtx_def @4269
    _Z14gen_split_2125P8rtx_insnPP7rtx_def @4270
    _Z14gen_split_2126P8rtx_insnPP7rtx_def @4271
    _Z14gen_split_2127P8rtx_insnPP7rtx_def @4272
    _Z14gen_split_2128P8rtx_insnPP7rtx_def @4273
    _Z14gen_split_2129P8rtx_insnPP7rtx_def @4274
    _Z14gen_split_2130P8rtx_insnPP7rtx_def @4275
    _Z14gen_split_2131P8rtx_insnPP7rtx_def @4276
    _Z14gen_split_2132P8rtx_insnPP7rtx_def @4277
    _Z14gen_split_2133P8rtx_insnPP7rtx_def @4278
    _Z14gen_split_2134P8rtx_insnPP7rtx_def @4279
    _Z14gen_split_2135P8rtx_insnPP7rtx_def @4280
    _Z14gen_split_2136P8rtx_insnPP7rtx_def @4281
    _Z14gen_split_2137P8rtx_insnPP7rtx_def @4282
    _Z14gen_split_2138P8rtx_insnPP7rtx_def @4283
    _Z14gen_split_2139P8rtx_insnPP7rtx_def @4284
    _Z14gen_split_2140P8rtx_insnPP7rtx_def @4285
    _Z14gen_split_2141P8rtx_insnPP7rtx_def @4286
    _Z14gen_split_2142P8rtx_insnPP7rtx_def @4287
    _Z14gen_split_2143P8rtx_insnPP7rtx_def @4288
    _Z14gen_split_2144P8rtx_insnPP7rtx_def @4289
    _Z14gen_split_2145P8rtx_insnPP7rtx_def @4290
    _Z14gen_split_2146P8rtx_insnPP7rtx_def @4291
    _Z14gen_split_2147P8rtx_insnPP7rtx_def @4292
    _Z14gen_split_2148P8rtx_insnPP7rtx_def @4293
    _Z14gen_split_2149P8rtx_insnPP7rtx_def @4294
    _Z14gen_split_2150P8rtx_insnPP7rtx_def @4295
    _Z14gen_split_2151P8rtx_insnPP7rtx_def @4296
    _Z14gen_split_2152P8rtx_insnPP7rtx_def @4297
    _Z14gen_split_2153P8rtx_insnPP7rtx_def @4298
    _Z14gen_split_2154P8rtx_insnPP7rtx_def @4299
    _Z14gen_split_2155P8rtx_insnPP7rtx_def @4300
    _Z14gen_split_2156P8rtx_insnPP7rtx_def @4301
    _Z14gen_split_2157P8rtx_insnPP7rtx_def @4302
    _Z14gen_split_2158P8rtx_insnPP7rtx_def @4303
    _Z14gen_split_2159P8rtx_insnPP7rtx_def @4304
    _Z14gen_split_2160P8rtx_insnPP7rtx_def @4305
    _Z14gen_split_2161P8rtx_insnPP7rtx_def @4306
    _Z14gen_split_2162P8rtx_insnPP7rtx_def @4307
    _Z14gen_split_2163P8rtx_insnPP7rtx_def @4308
    _Z14gen_split_2164P8rtx_insnPP7rtx_def @4309
    _Z14gen_split_2165P8rtx_insnPP7rtx_def @4310
    _Z14gen_split_2166P8rtx_insnPP7rtx_def @4311
    _Z14gen_split_2167P8rtx_insnPP7rtx_def @4312
    _Z14gen_split_2168P8rtx_insnPP7rtx_def @4313
    _Z14gen_split_2169P8rtx_insnPP7rtx_def @4314
    _Z14gen_split_2170P8rtx_insnPP7rtx_def @4315
    _Z14gen_split_2171P8rtx_insnPP7rtx_def @4316
    _Z14gen_split_2172P8rtx_insnPP7rtx_def @4317
    _Z14gen_split_2173P8rtx_insnPP7rtx_def @4318
    _Z14gen_split_2174P8rtx_insnPP7rtx_def @4319
    _Z14gen_split_2175P8rtx_insnPP7rtx_def @4320
    _Z14gen_split_2176P8rtx_insnPP7rtx_def @4321
    _Z14gen_split_2177P8rtx_insnPP7rtx_def @4322
    _Z14gen_split_2178P8rtx_insnPP7rtx_def @4323
    _Z14gen_split_2179P8rtx_insnPP7rtx_def @4324
    _Z14gen_split_2180P8rtx_insnPP7rtx_def @4325
    _Z14gen_split_2181P8rtx_insnPP7rtx_def @4326
    _Z14gen_split_2182P8rtx_insnPP7rtx_def @4327
    _Z14gen_split_2183P8rtx_insnPP7rtx_def @4328
    _Z14gen_split_2184P8rtx_insnPP7rtx_def @4329
    _Z14gen_split_2185P8rtx_insnPP7rtx_def @4330
    _Z14gen_split_2186P8rtx_insnPP7rtx_def @4331
    _Z14gen_split_2187P8rtx_insnPP7rtx_def @4332
    _Z14gen_split_2188P8rtx_insnPP7rtx_def @4333
    _Z14gen_split_2189P8rtx_insnPP7rtx_def @4334
    _Z14gen_split_2190P8rtx_insnPP7rtx_def @4335
    _Z14gen_split_2191P8rtx_insnPP7rtx_def @4336
    _Z14gen_split_2192P8rtx_insnPP7rtx_def @4337
    _Z14gen_split_2193P8rtx_insnPP7rtx_def @4338
    _Z14gen_split_2194P8rtx_insnPP7rtx_def @4339
    _Z14gen_split_2195P8rtx_insnPP7rtx_def @4340
    _Z14gen_split_2196P8rtx_insnPP7rtx_def @4341
    _Z14gen_split_2197P8rtx_insnPP7rtx_def @4342
    _Z14gen_split_2198P8rtx_insnPP7rtx_def @4343
    _Z14gen_split_2199P8rtx_insnPP7rtx_def @4344
    _Z14gen_split_2200P8rtx_insnPP7rtx_def @4345
    _Z14gen_split_2201P8rtx_insnPP7rtx_def @4346
    _Z14gen_split_2202P8rtx_insnPP7rtx_def @4347
    _Z14gen_split_2203P8rtx_insnPP7rtx_def @4348
    _Z14gen_split_2204P8rtx_insnPP7rtx_def @4349
    _Z14gen_split_2205P8rtx_insnPP7rtx_def @4350
    _Z14gen_split_2206P8rtx_insnPP7rtx_def @4351
    _Z14gen_split_2207P8rtx_insnPP7rtx_def @4352
    _Z14gen_split_2208P8rtx_insnPP7rtx_def @4353
    _Z14gen_split_2209P8rtx_insnPP7rtx_def @4354
    _Z14gen_split_2210P8rtx_insnPP7rtx_def @4355
    _Z14gen_split_2211P8rtx_insnPP7rtx_def @4356
    _Z14gen_split_2212P8rtx_insnPP7rtx_def @4357
    _Z14gen_split_2213P8rtx_insnPP7rtx_def @4358
    _Z14gen_split_2214P8rtx_insnPP7rtx_def @4359
    _Z14gen_split_2215P8rtx_insnPP7rtx_def @4360
    _Z14gen_split_2216P8rtx_insnPP7rtx_def @4361
    _Z14gen_split_2217P8rtx_insnPP7rtx_def @4362
    _Z14gen_split_2218P8rtx_insnPP7rtx_def @4363
    _Z14gen_split_2219P8rtx_insnPP7rtx_def @4364
    _Z14gen_split_2220P8rtx_insnPP7rtx_def @4365
    _Z14gen_split_2221P8rtx_insnPP7rtx_def @4366
    _Z14gen_split_2222P8rtx_insnPP7rtx_def @4367
    _Z14gen_split_2223P8rtx_insnPP7rtx_def @4368
    _Z14gen_split_2224P8rtx_insnPP7rtx_def @4369
    _Z14gen_split_2225P8rtx_insnPP7rtx_def @4370
    _Z14gen_split_2226P8rtx_insnPP7rtx_def @4371
    _Z14gen_split_2227P8rtx_insnPP7rtx_def @4372
    _Z14gen_split_2228P8rtx_insnPP7rtx_def @4373
    _Z14gen_split_2229P8rtx_insnPP7rtx_def @4374
    _Z14gen_split_2230P8rtx_insnPP7rtx_def @4375
    _Z14gen_split_2231P8rtx_insnPP7rtx_def @4376
    _Z14gen_split_2232P8rtx_insnPP7rtx_def @4377
    _Z14gen_split_2233P8rtx_insnPP7rtx_def @4378
    _Z14gen_split_2234P8rtx_insnPP7rtx_def @4379
    _Z14gen_split_2235P8rtx_insnPP7rtx_def @4380
    _Z14gen_split_2236P8rtx_insnPP7rtx_def @4381
    _Z14gen_split_2237P8rtx_insnPP7rtx_def @4382
    _Z14gen_split_2238P8rtx_insnPP7rtx_def @4383
    _Z14gen_split_2239P8rtx_insnPP7rtx_def @4384
    _Z14gen_split_2240P8rtx_insnPP7rtx_def @4385
    _Z14gen_split_2241P8rtx_insnPP7rtx_def @4386
    _Z14gen_split_2242P8rtx_insnPP7rtx_def @4387
    _Z14gen_split_2243P8rtx_insnPP7rtx_def @4388
    _Z14gen_split_2244P8rtx_insnPP7rtx_def @4389
    _Z14gen_split_2245P8rtx_insnPP7rtx_def @4390
    _Z14gen_split_2246P8rtx_insnPP7rtx_def @4391
    _Z14gen_split_2247P8rtx_insnPP7rtx_def @4392
    _Z14gen_split_2248P8rtx_insnPP7rtx_def @4393
    _Z14gen_split_2249P8rtx_insnPP7rtx_def @4394
    _Z14gen_split_2250P8rtx_insnPP7rtx_def @4395
    _Z14gen_split_2251P8rtx_insnPP7rtx_def @4396
    _Z14gen_split_2252P8rtx_insnPP7rtx_def @4397
    _Z14gen_split_2253P8rtx_insnPP7rtx_def @4398
    _Z14gen_split_2254P8rtx_insnPP7rtx_def @4399
    _Z14gen_split_2255P8rtx_insnPP7rtx_def @4400
    _Z14gen_split_2256P8rtx_insnPP7rtx_def @4401
    _Z14gen_split_2257P8rtx_insnPP7rtx_def @4402
    _Z14gen_split_2258P8rtx_insnPP7rtx_def @4403
    _Z14gen_split_2259P8rtx_insnPP7rtx_def @4404
    _Z14gen_split_2260P8rtx_insnPP7rtx_def @4405
    _Z14gen_split_2261P8rtx_insnPP7rtx_def @4406
    _Z14gen_split_2262P8rtx_insnPP7rtx_def @4407
    _Z14gen_split_2263P8rtx_insnPP7rtx_def @4408
    _Z14gen_split_2264P8rtx_insnPP7rtx_def @4409
    _Z14gen_split_2265P8rtx_insnPP7rtx_def @4410
    _Z14gen_split_2266P8rtx_insnPP7rtx_def @4411
    _Z14gen_split_2267P8rtx_insnPP7rtx_def @4412
    _Z14gen_split_2268P8rtx_insnPP7rtx_def @4413
    _Z14gen_split_2269P8rtx_insnPP7rtx_def @4414
    _Z14gen_split_2270P8rtx_insnPP7rtx_def @4415
    _Z14gen_split_2271P8rtx_insnPP7rtx_def @4416
    _Z14gen_split_2272P8rtx_insnPP7rtx_def @4417
    _Z14gen_split_2273P8rtx_insnPP7rtx_def @4418
    _Z14gen_split_2274P8rtx_insnPP7rtx_def @4419
    _Z14gen_split_2275P8rtx_insnPP7rtx_def @4420
    _Z14gen_split_2276P8rtx_insnPP7rtx_def @4421
    _Z14gen_split_2277P8rtx_insnPP7rtx_def @4422
    _Z14gen_split_2278P8rtx_insnPP7rtx_def @4423
    _Z14gen_split_2279P8rtx_insnPP7rtx_def @4424
    _Z14gen_split_2280P8rtx_insnPP7rtx_def @4425
    _Z14gen_split_2281P8rtx_insnPP7rtx_def @4426
    _Z14gen_split_2282P8rtx_insnPP7rtx_def @4427
    _Z14gen_split_2283P8rtx_insnPP7rtx_def @4428
    _Z14gen_split_2284P8rtx_insnPP7rtx_def @4429
    _Z14gen_split_2285P8rtx_insnPP7rtx_def @4430
    _Z14gen_split_2286P8rtx_insnPP7rtx_def @4431
    _Z14gen_split_2287P8rtx_insnPP7rtx_def @4432
    _Z14gen_split_2288P8rtx_insnPP7rtx_def @4433
    _Z14gen_split_2289P8rtx_insnPP7rtx_def @4434
    _Z14gen_split_2290P8rtx_insnPP7rtx_def @4435
    _Z14gen_split_2291P8rtx_insnPP7rtx_def @4436
    _Z14gen_split_2292P8rtx_insnPP7rtx_def @4437
    _Z14gen_split_2293P8rtx_insnPP7rtx_def @4438
    _Z14gen_split_2294P8rtx_insnPP7rtx_def @4439
    _Z14gen_split_2295P8rtx_insnPP7rtx_def @4440
    _Z14gen_split_2296P8rtx_insnPP7rtx_def @4441
    _Z14gen_split_2297P8rtx_insnPP7rtx_def @4442
    _Z14gen_split_2298P8rtx_insnPP7rtx_def @4443
    _Z14gen_split_2299P8rtx_insnPP7rtx_def @4444
    _Z14gen_split_2300P8rtx_insnPP7rtx_def @4445
    _Z14gen_split_2301P8rtx_insnPP7rtx_def @4446
    _Z14gen_split_2302P8rtx_insnPP7rtx_def @4447
    _Z14gen_split_2303P8rtx_insnPP7rtx_def @4448
    _Z14gen_split_2304P8rtx_insnPP7rtx_def @4449
    _Z14gen_split_2305P8rtx_insnPP7rtx_def @4450
    _Z14gen_split_2306P8rtx_insnPP7rtx_def @4451
    _Z14gen_split_2307P8rtx_insnPP7rtx_def @4452
    _Z14gen_split_2308P8rtx_insnPP7rtx_def @4453
    _Z14gen_split_2309P8rtx_insnPP7rtx_def @4454
    _Z14gen_split_2310P8rtx_insnPP7rtx_def @4455
    _Z14gen_split_2311P8rtx_insnPP7rtx_def @4456
    _Z14gen_split_2312P8rtx_insnPP7rtx_def @4457
    _Z14gen_split_2313P8rtx_insnPP7rtx_def @4458
    _Z14gen_split_2314P8rtx_insnPP7rtx_def @4459
    _Z14gen_split_2315P8rtx_insnPP7rtx_def @4460
    _Z14gen_split_2316P8rtx_insnPP7rtx_def @4461
    _Z14gen_split_2317P8rtx_insnPP7rtx_def @4462
    _Z14gen_split_2318P8rtx_insnPP7rtx_def @4463
    _Z14gen_split_2319P8rtx_insnPP7rtx_def @4464
    _Z14gen_split_2320P8rtx_insnPP7rtx_def @4465
    _Z14gen_split_2321P8rtx_insnPP7rtx_def @4466
    _Z14gen_split_2322P8rtx_insnPP7rtx_def @4467
    _Z14gen_split_2323P8rtx_insnPP7rtx_def @4468
    _Z14gen_split_2324P8rtx_insnPP7rtx_def @4469
    _Z14gen_split_2325P8rtx_insnPP7rtx_def @4470
    _Z14gen_split_2326P8rtx_insnPP7rtx_def @4471
    _Z14gen_split_2327P8rtx_insnPP7rtx_def @4472
    _Z14gen_split_2328P8rtx_insnPP7rtx_def @4473
    _Z14gen_split_2329P8rtx_insnPP7rtx_def @4474
    _Z14gen_split_2330P8rtx_insnPP7rtx_def @4475
    _Z14gen_split_2331P8rtx_insnPP7rtx_def @4476
    _Z14gen_split_2332P8rtx_insnPP7rtx_def @4477
    _Z14gen_split_2333P8rtx_insnPP7rtx_def @4478
    _Z14gen_split_2334P8rtx_insnPP7rtx_def @4479
    _Z14gen_split_2335P8rtx_insnPP7rtx_def @4480
    _Z14gen_split_2336P8rtx_insnPP7rtx_def @4481
    _Z14gen_split_2337P8rtx_insnPP7rtx_def @4482
    _Z14gen_split_2338P8rtx_insnPP7rtx_def @4483
    _Z14gen_split_2339P8rtx_insnPP7rtx_def @4484
    _Z14gen_split_2340P8rtx_insnPP7rtx_def @4485
    _Z14gen_split_2341P8rtx_insnPP7rtx_def @4486
    _Z14gen_split_2342P8rtx_insnPP7rtx_def @4487
    _Z14gen_split_2343P8rtx_insnPP7rtx_def @4488
    _Z14gen_split_2344P8rtx_insnPP7rtx_def @4489
    _Z14gen_split_2345P8rtx_insnPP7rtx_def @4490
    _Z14gen_split_2346P8rtx_insnPP7rtx_def @4491
    _Z14gen_split_2347P8rtx_insnPP7rtx_def @4492
    _Z14gen_split_2348P8rtx_insnPP7rtx_def @4493
    _Z14gen_split_2349P8rtx_insnPP7rtx_def @4494
    _Z14gen_split_2350P8rtx_insnPP7rtx_def @4495
    _Z14gen_split_2351P8rtx_insnPP7rtx_def @4496
    _Z14gen_split_2352P8rtx_insnPP7rtx_def @4497
    _Z14gen_split_2353P8rtx_insnPP7rtx_def @4498
    _Z14gen_split_2354P8rtx_insnPP7rtx_def @4499
    _Z14gen_split_2355P8rtx_insnPP7rtx_def @4500
    _Z14gen_split_2356P8rtx_insnPP7rtx_def @4501
    _Z14gen_split_2357P8rtx_insnPP7rtx_def @4502
    _Z14gen_split_2358P8rtx_insnPP7rtx_def @4503
    _Z14gen_split_2359P8rtx_insnPP7rtx_def @4504
    _Z14gen_split_2360P8rtx_insnPP7rtx_def @4505
    _Z14gen_split_2361P8rtx_insnPP7rtx_def @4506
    _Z14gen_split_2362P8rtx_insnPP7rtx_def @4507
    _Z14gen_split_2363P8rtx_insnPP7rtx_def @4508
    _Z14gen_split_2364P8rtx_insnPP7rtx_def @4509
    _Z14gen_split_2365P8rtx_insnPP7rtx_def @4510
    _Z14gen_split_2366P8rtx_insnPP7rtx_def @4511
    _Z14gen_split_2367P8rtx_insnPP7rtx_def @4512
    _Z14gen_split_2368P8rtx_insnPP7rtx_def @4513
    _Z14gen_split_2369P8rtx_insnPP7rtx_def @4514
    _Z14gen_split_2370P8rtx_insnPP7rtx_def @4515
    _Z14gen_split_2371P8rtx_insnPP7rtx_def @4516
    _Z14gen_split_2372P8rtx_insnPP7rtx_def @4517
    _Z14gen_split_2373P8rtx_insnPP7rtx_def @4518
    _Z14gen_split_2374P8rtx_insnPP7rtx_def @4519
    _Z14gen_split_2375P8rtx_insnPP7rtx_def @4520
    _Z14gen_split_2376P8rtx_insnPP7rtx_def @4521
    _Z14gen_split_2377P8rtx_insnPP7rtx_def @4522
    _Z14gen_split_2378P8rtx_insnPP7rtx_def @4523
    _Z14gen_split_2379P8rtx_insnPP7rtx_def @4524
    _Z14gen_split_2380P8rtx_insnPP7rtx_def @4525
    _Z14gen_split_2381P8rtx_insnPP7rtx_def @4526
    _Z14gen_split_2382P8rtx_insnPP7rtx_def @4527
    _Z14gen_split_2383P8rtx_insnPP7rtx_def @4528
    _Z14gen_split_2384P8rtx_insnPP7rtx_def @4529
    _Z14gen_split_2385P8rtx_insnPP7rtx_def @4530
    _Z14gen_split_2386P8rtx_insnPP7rtx_def @4531
    _Z14gen_split_2387P8rtx_insnPP7rtx_def @4532
    _Z14gen_split_2388P8rtx_insnPP7rtx_def @4533
    _Z14gen_split_2389P8rtx_insnPP7rtx_def @4534
    _Z14gen_split_2390P8rtx_insnPP7rtx_def @4535
    _Z14gen_split_2391P8rtx_insnPP7rtx_def @4536
    _Z14gen_split_2392P8rtx_insnPP7rtx_def @4537
    _Z14gen_split_2393P8rtx_insnPP7rtx_def @4538
    _Z14gen_split_2394P8rtx_insnPP7rtx_def @4539
    _Z14gen_split_2395P8rtx_insnPP7rtx_def @4540
    _Z14gen_split_2396P8rtx_insnPP7rtx_def @4541
    _Z14gen_split_2397P8rtx_insnPP7rtx_def @4542
    _Z14gen_split_2398P8rtx_insnPP7rtx_def @4543
    _Z14gen_split_2399P8rtx_insnPP7rtx_def @4544
    _Z14gen_split_2400P8rtx_insnPP7rtx_def @4545
    _Z14gen_split_2401P8rtx_insnPP7rtx_def @4546
    _Z14gen_split_2402P8rtx_insnPP7rtx_def @4547
    _Z14gen_split_2403P8rtx_insnPP7rtx_def @4548
    _Z14gen_split_2404P8rtx_insnPP7rtx_def @4549
    _Z14gen_split_2405P8rtx_insnPP7rtx_def @4550
    _Z14gen_split_2406P8rtx_insnPP7rtx_def @4551
    _Z14gen_split_2407P8rtx_insnPP7rtx_def @4552
    _Z14gen_split_2408P8rtx_insnPP7rtx_def @4553
    _Z14gen_split_2409P8rtx_insnPP7rtx_def @4554
    _Z14gen_split_2410P8rtx_insnPP7rtx_def @4555
    _Z14gen_split_2411P8rtx_insnPP7rtx_def @4556
    _Z14gen_split_2412P8rtx_insnPP7rtx_def @4557
    _Z14gen_split_2413P8rtx_insnPP7rtx_def @4558
    _Z14gen_split_2414P8rtx_insnPP7rtx_def @4559
    _Z14gen_split_2415P8rtx_insnPP7rtx_def @4560
    _Z14gen_split_2416P8rtx_insnPP7rtx_def @4561
    _Z14gen_split_2417P8rtx_insnPP7rtx_def @4562
    _Z14gen_split_2418P8rtx_insnPP7rtx_def @4563
    _Z14gen_split_2419P8rtx_insnPP7rtx_def @4564
    _Z14gen_split_2420P8rtx_insnPP7rtx_def @4565
    _Z14gen_split_2421P8rtx_insnPP7rtx_def @4566
    _Z14gen_split_2422P8rtx_insnPP7rtx_def @4567
    _Z14gen_split_2423P8rtx_insnPP7rtx_def @4568
    _Z14gen_split_2424P8rtx_insnPP7rtx_def @4569
    _Z14gen_split_2425P8rtx_insnPP7rtx_def @4570
    _Z14gen_split_2426P8rtx_insnPP7rtx_def @4571
    _Z14gen_split_2427P8rtx_insnPP7rtx_def @4572
    _Z14gen_split_2428P8rtx_insnPP7rtx_def @4573
    _Z14gen_split_2429P8rtx_insnPP7rtx_def @4574
    _Z14gen_split_2430P8rtx_insnPP7rtx_def @4575
    _Z14gen_split_2431P8rtx_insnPP7rtx_def @4576
    _Z14gen_split_2432P8rtx_insnPP7rtx_def @4577
    _Z14gen_split_2433P8rtx_insnPP7rtx_def @4578
    _Z14gen_split_2434P8rtx_insnPP7rtx_def @4579
    _Z14gen_split_2435P8rtx_insnPP7rtx_def @4580
    _Z14gen_split_2436P8rtx_insnPP7rtx_def @4581
    _Z14gen_split_2437P8rtx_insnPP7rtx_def @4582
    _Z14gen_split_2438P8rtx_insnPP7rtx_def @4583
    _Z14gen_split_2439P8rtx_insnPP7rtx_def @4584
    _Z14gen_split_2440P8rtx_insnPP7rtx_def @4585
    _Z14gen_split_2441P8rtx_insnPP7rtx_def @4586
    _Z14gen_split_2442P8rtx_insnPP7rtx_def @4587
    _Z14gen_split_2443P8rtx_insnPP7rtx_def @4588
    _Z14gen_split_2444P8rtx_insnPP7rtx_def @4589
    _Z14gen_split_2445P8rtx_insnPP7rtx_def @4590
    _Z14gen_split_2446P8rtx_insnPP7rtx_def @4591
    _Z14gen_split_2447P8rtx_insnPP7rtx_def @4592
    _Z14gen_split_2448P8rtx_insnPP7rtx_def @4593
    _Z14gen_split_2449P8rtx_insnPP7rtx_def @4594
    _Z14gen_split_2450P8rtx_insnPP7rtx_def @4595
    _Z14gen_split_2451P8rtx_insnPP7rtx_def @4596
    _Z14gen_split_2452P8rtx_insnPP7rtx_def @4597
    _Z14gen_split_2453P8rtx_insnPP7rtx_def @4598
    _Z14gen_split_2454P8rtx_insnPP7rtx_def @4599
    _Z14gen_split_2455P8rtx_insnPP7rtx_def @4600
    _Z14gen_split_2456P8rtx_insnPP7rtx_def @4601
    _Z14gen_split_2457P8rtx_insnPP7rtx_def @4602
    _Z14gen_split_2458P8rtx_insnPP7rtx_def @4603
    _Z14gen_split_2459P8rtx_insnPP7rtx_def @4604
    _Z14gen_split_2460P8rtx_insnPP7rtx_def @4605
    _Z14gen_split_2461P8rtx_insnPP7rtx_def @4606
    _Z14gen_split_2462P8rtx_insnPP7rtx_def @4607
    _Z14gen_split_2463P8rtx_insnPP7rtx_def @4608
    _Z14gen_split_2464P8rtx_insnPP7rtx_def @4609
    _Z14gen_split_2465P8rtx_insnPP7rtx_def @4610
    _Z14gen_split_2466P8rtx_insnPP7rtx_def @4611
    _Z14gen_split_2467P8rtx_insnPP7rtx_def @4612
    _Z14gen_split_2468P8rtx_insnPP7rtx_def @4613
    _Z14gen_split_2469P8rtx_insnPP7rtx_def @4614
    _Z14gen_split_2470P8rtx_insnPP7rtx_def @4615
    _Z14gen_split_2471P8rtx_insnPP7rtx_def @4616
    _Z14gen_split_2472P8rtx_insnPP7rtx_def @4617
    _Z14gen_split_2473P8rtx_insnPP7rtx_def @4618
    _Z14gen_split_2474P8rtx_insnPP7rtx_def @4619
    _Z14gen_split_2475P8rtx_insnPP7rtx_def @4620
    _Z14gen_split_2476P8rtx_insnPP7rtx_def @4621
    _Z14gen_split_2477P8rtx_insnPP7rtx_def @4622
    _Z14gen_split_2478P8rtx_insnPP7rtx_def @4623
    _Z14gen_split_2479P8rtx_insnPP7rtx_def @4624
    _Z14gen_split_2480P8rtx_insnPP7rtx_def @4625
    _Z14gen_split_2481P8rtx_insnPP7rtx_def @4626
    _Z14gen_split_2482P8rtx_insnPP7rtx_def @4627
    _Z14gen_split_2483P8rtx_insnPP7rtx_def @4628
    _Z14gen_split_2484P8rtx_insnPP7rtx_def @4629
    _Z14gen_split_2485P8rtx_insnPP7rtx_def @4630
    _Z14gen_split_2486P8rtx_insnPP7rtx_def @4631
    _Z14gen_split_2487P8rtx_insnPP7rtx_def @4632
    _Z14gen_split_2488P8rtx_insnPP7rtx_def @4633
    _Z14gen_split_2489P8rtx_insnPP7rtx_def @4634
    _Z14gen_split_2490P8rtx_insnPP7rtx_def @4635
    _Z14gen_split_2491P8rtx_insnPP7rtx_def @4636
    _Z14gen_split_2492P8rtx_insnPP7rtx_def @4637
    _Z14gen_split_2493P8rtx_insnPP7rtx_def @4638
    _Z14gen_split_2494P8rtx_insnPP7rtx_def @4639
    _Z14gen_split_2495P8rtx_insnPP7rtx_def @4640
    _Z14gen_split_2496P8rtx_insnPP7rtx_def @4641
    _Z14gen_split_2497P8rtx_insnPP7rtx_def @4642
    _Z14gen_split_2498P8rtx_insnPP7rtx_def @4643
    _Z14gen_split_2499P8rtx_insnPP7rtx_def @4644
    _Z14gen_split_2500P8rtx_insnPP7rtx_def @4645
    _Z14gen_split_2501P8rtx_insnPP7rtx_def @4646
    _Z14gen_split_2502P8rtx_insnPP7rtx_def @4647
    _Z14gen_split_2503P8rtx_insnPP7rtx_def @4648
    _Z14gen_split_2504P8rtx_insnPP7rtx_def @4649
    _Z14gen_split_2505P8rtx_insnPP7rtx_def @4650
    _Z14gen_split_2506P8rtx_insnPP7rtx_def @4651
    _Z14gen_split_2507P8rtx_insnPP7rtx_def @4652
    _Z14gen_split_2508P8rtx_insnPP7rtx_def @4653
    _Z14gen_split_2509P8rtx_insnPP7rtx_def @4654
    _Z14gen_split_2510P8rtx_insnPP7rtx_def @4655
    _Z14gen_split_2511P8rtx_insnPP7rtx_def @4656
    _Z14gen_split_2512P8rtx_insnPP7rtx_def @4657
    _Z14gen_split_2513P8rtx_insnPP7rtx_def @4658
    _Z14gen_split_2514P8rtx_insnPP7rtx_def @4659
    _Z14gen_split_2515P8rtx_insnPP7rtx_def @4660
    _Z14gen_split_2516P8rtx_insnPP7rtx_def @4661
    _Z14gen_split_2517P8rtx_insnPP7rtx_def @4662
    _Z14gen_split_2518P8rtx_insnPP7rtx_def @4663
    _Z14gen_split_2519P8rtx_insnPP7rtx_def @4664
    _Z14gen_split_2520P8rtx_insnPP7rtx_def @4665
    _Z14gen_split_2521P8rtx_insnPP7rtx_def @4666
    _Z14gen_split_2522P8rtx_insnPP7rtx_def @4667
    _Z14gen_split_2523P8rtx_insnPP7rtx_def @4668
    _Z14gen_split_2524P8rtx_insnPP7rtx_def @4669
    _Z14gen_split_2525P8rtx_insnPP7rtx_def @4670
    _Z14gen_split_2526P8rtx_insnPP7rtx_def @4671
    _Z14gen_split_2527P8rtx_insnPP7rtx_def @4672
    _Z14gen_split_2528P8rtx_insnPP7rtx_def @4673
    _Z14gen_split_2529P8rtx_insnPP7rtx_def @4674
    _Z14gen_split_2530P8rtx_insnPP7rtx_def @4675
    _Z14gen_split_2531P8rtx_insnPP7rtx_def @4676
    _Z14gen_split_2532P8rtx_insnPP7rtx_def @4677
    _Z14gen_split_2533P8rtx_insnPP7rtx_def @4678
    _Z14gen_split_2534P8rtx_insnPP7rtx_def @4679
    _Z14gen_split_2535P8rtx_insnPP7rtx_def @4680
    _Z14gen_split_2536P8rtx_insnPP7rtx_def @4681
    _Z14gen_split_2537P8rtx_insnPP7rtx_def @4682
    _Z14gen_split_2538P8rtx_insnPP7rtx_def @4683
    _Z14gen_split_2539P8rtx_insnPP7rtx_def @4684
    _Z14gen_split_2540P8rtx_insnPP7rtx_def @4685
    _Z14gen_split_2541P8rtx_insnPP7rtx_def @4686
    _Z14gen_split_2542P8rtx_insnPP7rtx_def @4687
    _Z14gen_split_2543P8rtx_insnPP7rtx_def @4688
    _Z14gen_split_2544P8rtx_insnPP7rtx_def @4689
    _Z14gen_split_2545P8rtx_insnPP7rtx_def @4690
    _Z14gen_split_2546P8rtx_insnPP7rtx_def @4691
    _Z14gen_split_2547P8rtx_insnPP7rtx_def @4692
    _Z14gen_split_2548P8rtx_insnPP7rtx_def @4693
    _Z14gen_split_2549P8rtx_insnPP7rtx_def @4694
    _Z14gen_split_2550P8rtx_insnPP7rtx_def @4695
    _Z14gen_split_2551P8rtx_insnPP7rtx_def @4696
    _Z14gen_split_2552P8rtx_insnPP7rtx_def @4697
    _Z14gen_split_2553P8rtx_insnPP7rtx_def @4698
    _Z14gen_split_2554P8rtx_insnPP7rtx_def @4699
    _Z14gen_split_2555P8rtx_insnPP7rtx_def @4700
    _Z14gen_split_2556P8rtx_insnPP7rtx_def @4701
    _Z14gen_split_2557P8rtx_insnPP7rtx_def @4702
    _Z14gen_split_2558P8rtx_insnPP7rtx_def @4703
    _Z14gen_split_2559P8rtx_insnPP7rtx_def @4704
    _Z14gen_split_2560P8rtx_insnPP7rtx_def @4705
    _Z14gen_split_2561P8rtx_insnPP7rtx_def @4706
    _Z14gen_split_2562P8rtx_insnPP7rtx_def @4707
    _Z14gen_split_2563P8rtx_insnPP7rtx_def @4708
    _Z14gen_split_2564P8rtx_insnPP7rtx_def @4709
    _Z14gen_split_2565P8rtx_insnPP7rtx_def @4710
    _Z14gen_split_2566P8rtx_insnPP7rtx_def @4711
    _Z14gen_split_2567P8rtx_insnPP7rtx_def @4712
    _Z14gen_split_2568P8rtx_insnPP7rtx_def @4713
    _Z14gen_split_2569P8rtx_insnPP7rtx_def @4714
    _Z14gen_split_2570P8rtx_insnPP7rtx_def @4715
    _Z14gen_split_2571P8rtx_insnPP7rtx_def @4716
    _Z14gen_split_2572P8rtx_insnPP7rtx_def @4717
    _Z14gen_split_2573P8rtx_insnPP7rtx_def @4718
    _Z14gen_split_2574P8rtx_insnPP7rtx_def @4719
    _Z14gen_split_2575P8rtx_insnPP7rtx_def @4720
    _Z14gen_split_2576P8rtx_insnPP7rtx_def @4721
    _Z14gen_split_2577P8rtx_insnPP7rtx_def @4722
    _Z14gen_split_2578P8rtx_insnPP7rtx_def @4723
    _Z14gen_split_2579P8rtx_insnPP7rtx_def @4724
    _Z14gen_split_2580P8rtx_insnPP7rtx_def @4725
    _Z14gen_split_2581P8rtx_insnPP7rtx_def @4726
    _Z14gen_split_2582P8rtx_insnPP7rtx_def @4727
    _Z14gen_split_2583P8rtx_insnPP7rtx_def @4728
    _Z14gen_split_2584P8rtx_insnPP7rtx_def @4729
    _Z14gen_split_2585P8rtx_insnPP7rtx_def @4730
    _Z14gen_split_2586P8rtx_insnPP7rtx_def @4731
    _Z14gen_split_2587P8rtx_insnPP7rtx_def @4732
    _Z14gen_split_2588P8rtx_insnPP7rtx_def @4733
    _Z14gen_split_2589P8rtx_insnPP7rtx_def @4734
    _Z14gen_split_2590P8rtx_insnPP7rtx_def @4735
    _Z14gen_split_2591P8rtx_insnPP7rtx_def @4736
    _Z14gen_split_2592P8rtx_insnPP7rtx_def @4737
    _Z14gen_split_2593P8rtx_insnPP7rtx_def @4738
    _Z14gen_split_2594P8rtx_insnPP7rtx_def @4739
    _Z14gen_split_2595P8rtx_insnPP7rtx_def @4740
    _Z14gen_split_2596P8rtx_insnPP7rtx_def @4741
    _Z14gen_split_2597P8rtx_insnPP7rtx_def @4742
    _Z14gen_split_2598P8rtx_insnPP7rtx_def @4743
    _Z14gen_split_2599P8rtx_insnPP7rtx_def @4744
    _Z14gen_split_2600P8rtx_insnPP7rtx_def @4745
    _Z14gen_split_2601P8rtx_insnPP7rtx_def @4746
    _Z14gen_split_2602P8rtx_insnPP7rtx_def @4747
    _Z14gen_split_2603P8rtx_insnPP7rtx_def @4748
    _Z14gen_split_2604P8rtx_insnPP7rtx_def @4749
    _Z14gen_split_2605P8rtx_insnPP7rtx_def @4750
    _Z14gen_split_2606P8rtx_insnPP7rtx_def @4751
    _Z14gen_split_2607P8rtx_insnPP7rtx_def @4752
    _Z14gen_split_2608P8rtx_insnPP7rtx_def @4753
    _Z14gen_split_2609P8rtx_insnPP7rtx_def @4754
    _Z14gen_split_2610P8rtx_insnPP7rtx_def @4755
    _Z14gen_split_2611P8rtx_insnPP7rtx_def @4756
    _Z14gen_split_2612P8rtx_insnPP7rtx_def @4757
    _Z14gen_split_2613P8rtx_insnPP7rtx_def @4758
    _Z14gen_split_2614P8rtx_insnPP7rtx_def @4759
    _Z14gen_split_2615P8rtx_insnPP7rtx_def @4760
    _Z14gen_split_2616P8rtx_insnPP7rtx_def @4761
    _Z14gen_split_2617P8rtx_insnPP7rtx_def @4762
    _Z14gen_split_2618P8rtx_insnPP7rtx_def @4763
    _Z14gen_split_2619P8rtx_insnPP7rtx_def @4764
    _Z14gen_split_2620P8rtx_insnPP7rtx_def @4765
    _Z14gen_split_2621P8rtx_insnPP7rtx_def @4766
    _Z14gen_split_2622P8rtx_insnPP7rtx_def @4767
    _Z14gen_split_2623P8rtx_insnPP7rtx_def @4768
    _Z14gen_split_2624P8rtx_insnPP7rtx_def @4769
    _Z14gen_split_2625P8rtx_insnPP7rtx_def @4770
    _Z14gen_split_2626P8rtx_insnPP7rtx_def @4771
    _Z14gen_split_2627P8rtx_insnPP7rtx_def @4772
    _Z14gen_split_2628P8rtx_insnPP7rtx_def @4773
    _Z14gen_split_2629P8rtx_insnPP7rtx_def @4774
    _Z14gen_split_2630P8rtx_insnPP7rtx_def @4775
    _Z14gen_split_2631P8rtx_insnPP7rtx_def @4776
    _Z14gen_split_2632P8rtx_insnPP7rtx_def @4777
    _Z14gen_split_2633P8rtx_insnPP7rtx_def @4778
    _Z14gen_split_2634P8rtx_insnPP7rtx_def @4779
    _Z14gen_split_2635P8rtx_insnPP7rtx_def @4780
    _Z14gen_split_2636P8rtx_insnPP7rtx_def @4781
    _Z14gen_split_2637P8rtx_insnPP7rtx_def @4782
    _Z14gen_split_2638P8rtx_insnPP7rtx_def @4783
    _Z14gen_split_2639P8rtx_insnPP7rtx_def @4784
    _Z14gen_split_2640P8rtx_insnPP7rtx_def @4785
    _Z14gen_split_2641P8rtx_insnPP7rtx_def @4786
    _Z14gen_split_2642P8rtx_insnPP7rtx_def @4787
    _Z14gen_split_2643P8rtx_insnPP7rtx_def @4788
    _Z14gen_split_2644P8rtx_insnPP7rtx_def @4789
    _Z14gen_split_2645P8rtx_insnPP7rtx_def @4790
    _Z14gen_split_2646P8rtx_insnPP7rtx_def @4791
    _Z14gen_split_2647P8rtx_insnPP7rtx_def @4792
    _Z14gen_split_2648P8rtx_insnPP7rtx_def @4793
    _Z14gen_split_2649P8rtx_insnPP7rtx_def @4794
    _Z14gen_split_2650P8rtx_insnPP7rtx_def @4795
    _Z14gen_split_2651P8rtx_insnPP7rtx_def @4796
    _Z14gen_split_2652P8rtx_insnPP7rtx_def @4797
    _Z14gen_split_2653P8rtx_insnPP7rtx_def @4798
    _Z14gen_split_2654P8rtx_insnPP7rtx_def @4799
    _Z14gen_split_2655P8rtx_insnPP7rtx_def @4800
    _Z14gen_split_2656P8rtx_insnPP7rtx_def @4801
    _Z14gen_split_2657P8rtx_insnPP7rtx_def @4802
    _Z14gen_split_2658P8rtx_insnPP7rtx_def @4803
    _Z14gen_split_2659P8rtx_insnPP7rtx_def @4804
    _Z14gen_split_2660P8rtx_insnPP7rtx_def @4805
    _Z14gen_split_2661P8rtx_insnPP7rtx_def @4806
    _Z14gen_split_2662P8rtx_insnPP7rtx_def @4807
    _Z14gen_split_2663P8rtx_insnPP7rtx_def @4808
    _Z14gen_split_2664P8rtx_insnPP7rtx_def @4809
    _Z14gen_split_2665P8rtx_insnPP7rtx_def @4810
    _Z14gen_split_2666P8rtx_insnPP7rtx_def @4811
    _Z14gen_split_2667P8rtx_insnPP7rtx_def @4812
    _Z14gen_split_2668P8rtx_insnPP7rtx_def @4813
    _Z14gen_split_2669P8rtx_insnPP7rtx_def @4814
    _Z14gen_split_2670P8rtx_insnPP7rtx_def @4815
    _Z14gen_split_2671P8rtx_insnPP7rtx_def @4816
    _Z14gen_split_2672P8rtx_insnPP7rtx_def @4817
    _Z14gen_split_2673P8rtx_insnPP7rtx_def @4818
    _Z14gen_split_2674P8rtx_insnPP7rtx_def @4819
    _Z14gen_split_2675P8rtx_insnPP7rtx_def @4820
    _Z14gen_split_2676P8rtx_insnPP7rtx_def @4821
    _Z14gen_split_2677P8rtx_insnPP7rtx_def @4822
    _Z14gen_split_2678P8rtx_insnPP7rtx_def @4823
    _Z14gen_split_2679P8rtx_insnPP7rtx_def @4824
    _Z14gen_split_2680P8rtx_insnPP7rtx_def @4825
    _Z14gen_split_2681P8rtx_insnPP7rtx_def @4826
    _Z14gen_split_2682P8rtx_insnPP7rtx_def @4827
    _Z14gen_split_2683P8rtx_insnPP7rtx_def @4828
    _Z14gen_split_2684P8rtx_insnPP7rtx_def @4829
    _Z14gen_split_2685P8rtx_insnPP7rtx_def @4830
    _Z14gen_split_2686P8rtx_insnPP7rtx_def @4831
    _Z14gen_split_2687P8rtx_insnPP7rtx_def @4832
    _Z14gen_split_2688P8rtx_insnPP7rtx_def @4833
    _Z14gen_split_2689P8rtx_insnPP7rtx_def @4834
    _Z14gen_split_2690P8rtx_insnPP7rtx_def @4835
    _Z14gen_split_2691P8rtx_insnPP7rtx_def @4836
    _Z14gen_split_2692P8rtx_insnPP7rtx_def @4837
    _Z14gen_split_2693P8rtx_insnPP7rtx_def @4838
    _Z14gen_split_2694P8rtx_insnPP7rtx_def @4839
    _Z14gen_split_2695P8rtx_insnPP7rtx_def @4840
    _Z14gen_split_2696P8rtx_insnPP7rtx_def @4841
    _Z14gen_split_2697P8rtx_insnPP7rtx_def @4842
    _Z14gen_split_2698P8rtx_insnPP7rtx_def @4843
    _Z14gen_split_2699P8rtx_insnPP7rtx_def @4844
    _Z14gen_split_2700P8rtx_insnPP7rtx_def @4845
    _Z14gen_split_2701P8rtx_insnPP7rtx_def @4846
    _Z14gen_split_2702P8rtx_insnPP7rtx_def @4847
    _Z14gen_split_2703P8rtx_insnPP7rtx_def @4848
    _Z14gen_split_2704P8rtx_insnPP7rtx_def @4849
    _Z14gen_split_2705P8rtx_insnPP7rtx_def @4850
    _Z14gen_split_2706P8rtx_insnPP7rtx_def @4851
    _Z14gen_split_2707P8rtx_insnPP7rtx_def @4852
    _Z14gen_split_2708P8rtx_insnPP7rtx_def @4853
    _Z14gen_split_2709P8rtx_insnPP7rtx_def @4854
    _Z14gen_split_2710P8rtx_insnPP7rtx_def @4855
    _Z14gen_split_2711P8rtx_insnPP7rtx_def @4856
    _Z14gen_split_2712P8rtx_insnPP7rtx_def @4857
    _Z14gen_split_2713P8rtx_insnPP7rtx_def @4858
    _Z14gen_split_2714P8rtx_insnPP7rtx_def @4859
    _Z14gen_split_2715P8rtx_insnPP7rtx_def @4860
    _Z14gen_split_2716P8rtx_insnPP7rtx_def @4861
    _Z14gen_split_2717P8rtx_insnPP7rtx_def @4862
    _Z14gen_split_2718P8rtx_insnPP7rtx_def @4863
    _Z14gen_split_2719P8rtx_insnPP7rtx_def @4864
    _Z14gen_split_2720P8rtx_insnPP7rtx_def @4865
    _Z14gen_split_2721P8rtx_insnPP7rtx_def @4866
    _Z14gen_split_2722P8rtx_insnPP7rtx_def @4867
    _Z14gen_split_2723P8rtx_insnPP7rtx_def @4868
    _Z14gen_split_2724P8rtx_insnPP7rtx_def @4869
    _Z14gen_split_2725P8rtx_insnPP7rtx_def @4870
    _Z14gen_split_2726P8rtx_insnPP7rtx_def @4871
    _Z14gen_split_2727P8rtx_insnPP7rtx_def @4872
    _Z14gen_split_2728P8rtx_insnPP7rtx_def @4873
    _Z14gen_split_2729P8rtx_insnPP7rtx_def @4874
    _Z14gen_split_2730P8rtx_insnPP7rtx_def @4875
    _Z14gen_split_2731P8rtx_insnPP7rtx_def @4876
    _Z14gen_split_2732P8rtx_insnPP7rtx_def @4877
    _Z14gen_split_2733P8rtx_insnPP7rtx_def @4878
    _Z14gen_split_2734P8rtx_insnPP7rtx_def @4879
    _Z14gen_split_2735P8rtx_insnPP7rtx_def @4880
    _Z14gen_split_2736P8rtx_insnPP7rtx_def @4881
    _Z14gen_split_2737P8rtx_insnPP7rtx_def @4882
    _Z14gen_split_2738P8rtx_insnPP7rtx_def @4883
    _Z14gen_split_2739P8rtx_insnPP7rtx_def @4884
    _Z14gen_sqrtv16hf2P7rtx_defS0_ @4885
    _Z14gen_sqrtv16sf2P7rtx_defS0_ @4886
    _Z14gen_sqrtv32hf2P7rtx_defS0_ @4887
    _Z14gen_srcp14v2dfP7rtx_defS0_S0_ @4888
    _Z14gen_srcp14v4sfP7rtx_defS0_S0_ @4889
    _Z14gen_sse2_loaddP7rtx_defS0_ @4890
    _Z14gen_sse2_movsdP7rtx_defS0_S0_ @4891
    _Z14gen_sse2_ucomiP7rtx_defS0_ @4892
    _Z14gen_sse3_lddquP7rtx_defS0_ @4893
    _Z14gen_sse3_mwaitP7rtx_defS0_ @4894
    _Z14gen_sse_movntqP7rtx_defS0_ @4895
    _Z14gen_sse_sfencev @4896
    _Z14gen_sse_shufpsP7rtx_defS0_S0_S0_ @4897
    _Z14gen_strlenqi_1P7rtx_defS0_S0_ @4898
    _Z14gen_sub3_carry12machine_modeP7rtx_defS1_S1_S1_S1_ @4899
    _Z14gen_truncdfhf2P7rtx_defS0_ @4900
    _Z14gen_truncdfsf2P7rtx_defS0_ @4901
    _Z14gen_truncsfhf2P7rtx_defS0_ @4902
    _Z14gen_truncxfdf2P7rtx_defS0_ @4903
    _Z14gen_truncxfsf2P7rtx_defS0_ @4904
    _Z14gen_udivmoddi4P7rtx_defS0_S0_S0_ @4905
    _Z14gen_udivmodhi4P7rtx_defS0_S0_S0_ @4906
    _Z14gen_udivmodqi4P7rtx_defS0_S0_S0_ @4907
    _Z14gen_udivmodsi4P7rtx_defS0_S0_S0_ @4908
    _Z14gen_umaxv16hi3P7rtx_defS0_S0_ @4909
    _Z14gen_umaxv16qi3P7rtx_defS0_S0_ @4910
    _Z14gen_umaxv16si3P7rtx_defS0_S0_ @4911
    _Z14gen_umaxv32hi3P7rtx_defS0_S0_ @4912
    _Z14gen_umaxv32qi3P7rtx_defS0_S0_ @4913
    _Z14gen_umaxv64qi3P7rtx_defS0_S0_ @4914
    _Z14gen_uminv16hi3P7rtx_defS0_S0_ @4915
    _Z14gen_uminv16qi3P7rtx_defS0_S0_ @4916
    _Z14gen_uminv16si3P7rtx_defS0_S0_ @4917
    _Z14gen_uminv32hi3P7rtx_defS0_S0_ @4918
    _Z14gen_uminv32qi3P7rtx_defS0_S0_ @4919
    _Z14gen_uminv64qi3P7rtx_defS0_S0_ @4920
    _Z14gen_vashlv2di3P7rtx_defS0_S0_ @4921
    _Z14gen_vashlv4di3P7rtx_defS0_S0_ @4922
    _Z14gen_vashlv4si3P7rtx_defS0_S0_ @4923
    _Z14gen_vashlv8di3P7rtx_defS0_S0_ @4924
    _Z14gen_vashlv8hi3P7rtx_defS0_S0_ @4925
    _Z14gen_vashlv8qi3P7rtx_defS0_S0_ @4926
    _Z14gen_vashlv8si3P7rtx_defS0_S0_ @4927
    _Z14gen_vashrv2di3P7rtx_defS0_S0_ @4928
    _Z14gen_vashrv4di3P7rtx_defS0_S0_ @4929
    _Z14gen_vashrv4si3P7rtx_defS0_S0_ @4930
    _Z14gen_vashrv8di3P7rtx_defS0_S0_ @4931
    _Z14gen_vashrv8hi3P7rtx_defS0_S0_ @4932
    _Z14gen_vashrv8qi3P7rtx_defS0_S0_ @4933
    _Z14gen_vashrv8si3P7rtx_defS0_S0_ @4934
    _Z14gen_vec_series12machine_modeP7rtx_defS1_ @4935
    _Z14gen_vlshrv2di3P7rtx_defS0_S0_ @4936
    _Z14gen_vlshrv4di3P7rtx_defS0_S0_ @4937
    _Z14gen_vlshrv4si3P7rtx_defS0_S0_ @4938
    _Z14gen_vlshrv8di3P7rtx_defS0_S0_ @4939
    _Z14gen_vlshrv8hi3P7rtx_defS0_S0_ @4940
    _Z14gen_vlshrv8qi3P7rtx_defS0_S0_ @4941
    _Z14gen_vlshrv8si3P7rtx_defS0_S0_ @4942
    _Z14gen_vrotlv2di3P7rtx_defS0_S0_ @4943
    _Z14gen_vrotlv4si3P7rtx_defS0_S0_ @4944
    _Z14gen_vrotlv8hi3P7rtx_defS0_S0_ @4945
    _Z14gen_vrotrv2di3P7rtx_defS0_S0_ @4946
    _Z14gen_vrotrv4si3P7rtx_defS0_S0_ @4947
    _Z14gen_vrotrv8hi3P7rtx_defS0_S0_ @4948
    _Z14gen_wrfsbasediP7rtx_def @4949
    _Z14gen_wrfsbasesiP7rtx_def @4950
    _Z14gen_wrgsbasediP7rtx_def @4951
    _Z14gen_wrgsbasesiP7rtx_def @4952
    _Z14gen_x86_sahf_1P7rtx_def @4953
    _Z14gen_xorsigndf3P7rtx_defS0_S0_ @4954
    _Z14gen_xorsignhf3P7rtx_defS0_S0_ @4955
    _Z14gen_xorsignsf3P7rtx_defS0_S0_ @4956
    _Z14gen_xsaveopt64P7rtx_defS0_S0_ @4957
    _Z14get_attr_maskcP8rtx_insn @4958
    _Z14get_attr_modrmP8rtx_insn @4959
    _Z14get_attr_roundP8rtx_insn @4960
    _Z14get_dummy_typei @4961
    _Z14get_frame_sizev @4962
    _Z14get_identifierPKc @4963
    _Z14get_index_codePK12address_info @4964
    _Z14get_loop_levelPK4loop @4965
    _Z14get_memory_rtxP9tree_nodeS0_ @4966
    _Z14get_move_ratiob @4967
    _Z14get_option_urlP18diagnostic_contexti @4968
    _Z14get_rtx_code_19tree_codeb @4969
    _Z14get_size_rangeP11range_queryP9tree_nodeP6gimplePS2_i @4970
    _Z14get_size_rangeP9tree_nodePS0_i @4971
    _Z14ggc_call_allocPP8ptr_dataP15traversal_state @4972
    _Z14ggc_call_countPP8ptr_dataP15traversal_state @4973
    _Z14ggc_mark_rootsv @4974
    _Z14ggc_pch_finishP12ggc_pch_dataP6_iobuf @4975
    _Z14gimple_boolifyP9tree_node @4976
    _Z14gimple_convertPP6gimplejP9tree_nodeS3_ @4977
    _Z14gimple_dump_bbP6_iobufP15basic_block_defi9dump_flag @4978
    _Z14gimple_get_lhsPK6gimple @4979
    _Z14gimple_set_lhsP6gimpleP9tree_node @4980
    _Z14gnat_pushlevelv @4981
    _Z14gnat_save_exprP9tree_node @4982
    _Z14gotoff_operandP7rtx_def12machine_mode @4983
    _Z14gsi_move_afterP20gimple_stmt_iteratorS0_ @4984
    _Z14gsi_start_edgeP8edge_def @4985
    _Z14gsi_start_phisP15basic_block_def @4986
    _Z14gt_ggc_mx_loopPv @4987
    _Z14gt_pch_nx_loopPv @4988
    _Z14gt_pch_p_4loopPvS_PFvS_S_S_ES_ @4989
    _Z14gt_pch_restoreP6_iobuf @4990
    _Z14have_add2_insnP7rtx_defS0_ @4991
    _Z14have_sub2_insnP7rtx_defS0_ @4992
    _Z14hook_int_rtx_0P7rtx_def @4993
    _Z14hook_int_rtx_1P7rtx_def @4994
    _Z14hook_void_treeP9tree_node @4995
    _Z14hook_void_voidv @4996
    _Z14in_insn_list_pPK13rtx_insn_listPK8rtx_insn @4997
    _Z14incdec_operandP7rtx_def12machine_mode @4998
    _Z14init_emit_oncev @4999
    _Z14init_emit_regsv @5000
    _Z14init_gnat_declv @5001
    _Z14init_set_costsv @5002
    _Z14initialize_rtlv @5003
    _Z14insert_cond_bbP15basic_block_defP6gimpleS2_19profile_probability @5004
    _Z14insn_invalid_pP8rtx_insnb @5005
    _Z14insn_nothrow_pPK7rtx_def @5006
    _Z14integer_asm_opii @5007
    _Z14internal_errorPKcz @5008
    _Z14ipa_dump_hintsP6_iobufi @5009
    _Z14ipa_dump_paramP6_iobufP15ipa_node_paramsi @5010
    _Z14ira_debug_copyP16ira_allocno_copy @5011
    _Z14ira_debug_prefP16ira_allocno_pref @5012
    _Z14ira_flatteningii @5013
    _Z14ira_init_costsv @5014
    _Z14ira_setup_altsP8rtx_insn @5015
    _Z14label_to_blockP8functionP9tree_node @5016
    _Z14last_call_insnv @5017
    _Z14lhd_do_nothingv @5018
    _Z14lhd_dwarf_nameP9tree_nodei @5019
    _Z14linemap_lookupPK9line_mapsj @5020
    _Z14logic_operatorP7rtx_def12machine_mode @5021
    _Z14lowpart_subreg12machine_modeP7rtx_defS_ @5022
    _Z14lra_init_equivv @5023
    _Z14lshift_cheap_pb @5024
    _Z14lto_input_treeP15lto_input_blockP7data_in @5025
    _Z14lto_write_dataPKvj @5026
    _Z14make_anon_namev @5027
    _Z14make_attributePKcS0_P9tree_node @5028
    _Z14make_pass_asanPN3gcc7contextE @5029
    _Z14make_pass_cse2PN3gcc7contextE @5030
    _Z14make_pass_jumpPN3gcc7contextE @5031
    _Z14make_pass_tsanPN3gcc7contextE @5032
    _Z14make_safe_fromP7rtx_defS0_ @5033
    _Z14mark_home_livei @5034
    _Z14maybe_fold_tmrP9tree_node @5035
    _Z14maybe_gen_insn9insn_codejP14expand_operand @5036
    _Z14maybe_gen_wrss12machine_modeP7rtx_defS1_ @5037
    _Z14maybe_hot_bb_pP8functionPK15basic_block_def @5038
    _Z14maybe_pad_typeP9tree_nodeS0_jibbb @5039
    _Z14mcf_smooth_cfgv @5040
    _Z14mem_attrs_eq_pPK9mem_attrsS1_ @5041
    _Z14mem_ref_offsetPK9tree_node @5042
    _Z14memory_operandP7rtx_def12machine_mode @5043
    _Z14mode_signbit_p12machine_modePK7rtx_def @5044
    _Z14move_by_piecesP7rtx_defS0_yj9memop_ret @5045
    _Z14mpfr_from_realP13__mpfr_structPK10real_value10mpfr_rnd_t @5046
    _Z14new_insn_chainv @5047
    _Z14next_real_insnP8rtx_insn @5048
    _Z14non_lvalue_locjP9tree_node @5049
    _Z14non_mem_decl_pP9tree_node @5050
    _Z14num_loop_insnsPK4loop @5051
    _Z14offset_addressP7rtx_defS0_y @5052
    _Z14op_symbol_code9tree_code @5053
    _Z14operand_less_pP9tree_nodeS0_ @5054
    _Z14option_enabledijPv @5055
    _Z14output_address12machine_modeP7rtx_def @5056
    _Z14output_operandP7rtx_defi @5057
    _Z14output_set_gotP7rtx_defS0_ @5058
    _Z14place_new_loopP8functionP4loop @5059
    _Z14pop_temp_slotsv @5060
    _Z14pp_append_textP14pretty_printerPKcS2_ @5061
    _Z14pp_begin_quoteP14pretty_printerb @5062
    _Z14pp_emit_prefixP14pretty_printer @5063
    _Z14pp_maybe_spaceP14pretty_printer @5064
    _Z14pp_take_prefixP14pretty_printer @5065
    _Z14predicted_by_pPK15basic_block_def12br_predictor @5066
    _Z14predictor_name12br_predictor @5067
    _Z14prev_real_insnP8rtx_insn @5068
    _Z14print_ddg_edgeP6_iobufP8ddg_edge @5069
    _Z14print_loops_bbP6_iobufP15basic_block_defii @5070
    _Z14print_mem_exprP6_iobufPK9tree_node @5071
    _Z14print_relationP6_iobuf9tree_code @5072
    _Z14ptrdiff_tree_pPK9tree_nodeP12poly_int_podILj1ExE @5073
    _Z14purpose_memberPK9tree_nodePS_ @5074
    _Z14real_from_mpfrP10real_valuePK13__mpfr_structP9tree_node10mpfr_rnd_t @5075
    _Z14real_from_mpfrP10real_valuePK13__mpfr_structPK11real_format10mpfr_rnd_t @5076
    _Z14real_identicalPK10real_valueS1_ @5077
    _Z14real_isintegerPK10real_value13format_helper @5078
    _Z14real_isintegerPK10real_valuePx @5079
    _Z14real_isnegzeroPK10real_value @5080
    _Z14real_nextafterP10real_value13format_helperPKS_S3_ @5081
    _Z14real_roundevenP10real_value13format_helperPKS_ @5082
    _Z14real_to_targetPlPK10real_value13format_helper @5083
    _Z14real_value_absPK10real_value @5084
    _Z14register_asm_pPK7rtx_def @5085
    _Z14regrename_initb @5086
    _Z14relation_union9tree_codeS_ @5087
    _Z14reorder_blocksv @5088
    _Z14resolve_mixersP4loopP9tree_nodePb @5089
    _Z14round_down_locjP9tree_nodei @5090
    _Z14rtvec_series_pP9rtvec_defi @5091
    _Z14rtx_equal_p_cbPK7rtx_defS1_PFiPS1_S2_PPS_S4_E @5092
    _Z14rtx_unstable_pPK7rtx_def @5093
    _Z14sbitmap_resizeP17simple_bitmap_defji @5094
    _Z14scev_directionPK9tree_node @5095
    _Z14sched_init_bbsv @5096
    _Z14sched_rgn_initb @5097
    _Z14schedule_blockPP15basic_block_defPv @5098
    _Z14schedule_insnsv @5099
    _Z14sd_debug_listsP7rtx_defi @5100
    _Z14sd_finish_insnP8rtx_insn @5101
    _Z14sd_resolve_dep12_sd_iterator @5102
    _Z14sel_bb_empty_pP15basic_block_def @5103
    _Z14sel_finish_bbsv @5104
    _Z14sel_print_insnPK8rtx_insni @5105
    _Z14sel_split_edgeP8edge_def @5106
    _Z14sel_vinsn_costP9vinsn_def @5107
    _Z14set_mem_offsetP7rtx_def8poly_intILj1ExE @5108
    _Z14set_prioritiesP8rtx_insnS0_ @5109
    _Z14set_range_infoP9tree_node16value_range_kindRK16generic_wide_intI20wide_int_ref_storageILb0ELb1EEES7_ @5110
    _Z14set_range_infoP9tree_nodeRK9int_rangeILj1EE @5111
    _Z14set_type_binfoP9tree_nodeS0_ @5112
    _Z14set_used_flagsP7rtx_def @5113
    _Z14shared_const_pPK7rtx_def @5114
    _Z14side_effects_pPK7rtx_def @5115
    _Z14size_binop_locj9tree_codeP9tree_nodeS1_ @5116
    _Z14sparseset_copyP13sparseset_defS0_ @5117
    _Z14speculate_exprP5_exprj @5118
    _Z14start_sequencev @5119
    _Z14stmt_ends_bb_pP6gimple @5120
    _Z14swap_condition8rtx_code @5121
    _Z14symbol_operandP7rtx_def12machine_mode @5122
    _Z14tree_code_size9tree_code @5123
    _Z14tree_max_valueP9tree_node @5124
    _Z14tree_min_valueP9tree_node @5125
    _Z14tree_set_blockP9tree_nodeS0_ @5126
    _Z14truth_type_forP9tree_node @5127
    _Z14tsi_link_afterP18tree_stmt_iteratorP9tree_node19tsi_iterator_update @5128
    _Z14unsigned_reg_pP7rtx_def @5129
    _Z14update_addressP12address_info @5130
    _Z14use_group_regsPP7rtx_defS0_ @5131
    _Z14value_factor_pP9tree_nodey @5132
    _Z14vect_gen_whilePP6gimpleP9tree_nodeS3_S3_PKc @5133
    _Z14vector_cst_eltPK9tree_nodej @5134
    _Z14vector_operandP7rtx_def12machine_mode @5135
    _Z14verify_changesi @5136
    _Z14verify_eh_treeP8function @5137
    _Z14vrp_val_is_maxPK9tree_node @5138
    _Z14vrp_val_is_minPK9tree_node @5139
    _Z14walk_gimple_opP6gimplePFP9tree_nodePS2_PiPvEP14walk_stmt_info @5140
    _Z14wide_int_binopR16generic_wide_intI16wide_int_storageE9tree_codeRKS1_S5_6signopPN2wi13overflow_typeE @5141
    _Z15add_insn_beforeP8rtx_insnS0_P15basic_block_def @5142
    _Z15add_string_cstsPP24constant_descriptor_treeP25asan_add_string_csts_data @5143
    _Z15address_compare9tree_codeP9tree_nodeS1_S1_RS1_S2_R8poly_intILj1ExES5_b @5144
    _Z15address_operandP7rtx_def12machine_mode @5145
    _Z15adjust_reg_modeP7rtx_def12machine_mode @5146
    _Z15aligned_operandP7rtx_def12machine_mode @5147
    _Z15alloc_EXPR_LISTiP7rtx_defS0_ @5148
    _Z15alloc_INSN_LISTP7rtx_defS0_ @5149
    _Z15alloc_stmt_listv @5150
    _Z15annotate_objectiP9tree_nodeS0_b @5151
    _Z15anti_dependencePK7rtx_defS1_ @5152
    _Z15assemble_stringPKci @5153
    _Z15assert_is_emptyRKPK15basic_block_defRKP15edge_predictionPv @5154
    _Z15bit_value_binop9tree_code6signopiP16generic_wide_intI22fixed_wide_int_storageILi576EEES5_S0_iRKS4_S7_S0_iS7_S7_ @5155
    _Z15bitmap_and_intoP11bitmap_headPKS_ @5156
    _Z15bitmap_gc_allocv @5157
    _Z15bitmap_ior_intoP11bitmap_headPKS_ @5158
    _Z15bitmap_registerP11bitmap_head @5159
    _Z15bitmap_subset_pPK17simple_bitmap_defS1_ @5160
    _Z15bitmap_xor_intoP11bitmap_headPKS_ @5161
    _Z15blocks_nreverseP9tree_node @5162
    _Z15btf_debuginfo_pv @5163
    _Z15build_allocatorP9tree_nodeS0_S0_iiib @5164
    _Z15build_binary_op9tree_codeP9tree_nodeS1_S1_b @5165
    _Z15build_call_exprP9tree_nodeiz @5166
    _Z15build_call_naryP9tree_nodeS0_iz @5167
    _Z15build_cond_exprP9tree_nodeS0_S0_S0_ @5168
    _Z15build_poly_scopP4scop @5169
    _Z15build_tree_listP9tree_nodeS0_ @5170
    _Z15build_type_castP9tree_nodeP6gimpleS0_ @5171
    _Z15build_type_castP9tree_nodeS0_S0_ @5172
    _Z15bump_vector_ptrP8vec_infoP9tree_nodeP6gimpleP20gimple_stmt_iteratorP14_stmt_vec_infoS2_ @5173
    _Z15call_expr_flagsPK9tree_node @5174
    _Z15can_vec_extract12machine_modeS_ @5175
    _Z15canon_conditionP7rtx_def @5176
    _Z15check_base_typePK9tree_nodeS1_ @5177
    _Z15check_lang_typePK9tree_nodeS1_ @5178
    _Z15chrec_apply_mapP9tree_node3vecIS0_7va_heap6vl_ptrE @5179
    _Z15chrec_fold_plusP9tree_nodeS0_S0_ @5180
    _Z15compute_objsizeP9tree_nodeP6gimpleiP10access_refP11range_query @5181
    _Z15compute_objsizeP9tree_nodeP6gimpleiP10access_refP13pointer_query @5182
    _Z15compute_objsizeP9tree_nodeP6gimpleiPS0_S3_P11range_query @5183
    _Z15computed_goto_pP6gimple @5184
    _Z15computed_jump_pPK8rtx_insn @5185
    _Z15const48_operandP7rtx_def12machine_mode @5186
    _Z15constm1_operandP7rtx_def12machine_mode @5187
    _Z15convert_to_mode12machine_modeP7rtx_defi @5188
    _Z15convert_to_realP9tree_nodeS0_ @5189
    _Z15coverage_finishv @5190
    _Z15cpp_avoid_pasteP10cpp_readerPK9cpp_tokenS3_ @5191
    _Z15cpp_change_fileP10cpp_reader9lc_reasonPKc @5192
    _Z15cpp_get_optionsP10cpp_reader @5193
    _Z15cpp_output_lineP10cpp_readerP6_iobuf @5194
    _Z15cpp_push_bufferP10cpp_readerPKhyi @5195
    _Z15cpp_spell_tokenP10cpp_readerPK9cpp_tokenPhb @5196
    _Z15cpp_sys_macro_pP10cpp_reader @5197
    _Z15create_data_refP8edge_defP4loopP9tree_nodeP6gimplebb @5198
    _Z15create_empty_bbP15basic_block_def @5199
    _Z15create_phi_nodeP9tree_nodeP15basic_block_def @5200
    _Z15create_var_declP9tree_nodeS0_S0_S0_bbbbbbbP6attribib @5201
    _Z15ctf_add_forwardP13ctf_containerjPKcjP10die_struct @5202
    _Z15ctf_add_integerP13ctf_containerjPKcPK12ctf_encodingP10die_struct @5203
    _Z15ctf_add_pointerP13ctf_containerjyP10die_struct @5204
    _Z15ctf_add_reftypeP13ctf_containerjyjP10die_struct @5205
    _Z15ctf_add_typedefP13ctf_containerjPKcyP10die_struct @5206
    _Z15ctf_add_unknownP13ctf_containerjPKcPK12ctf_encodingP10die_struct @5207
    _Z15ctf_debuginfo_pv @5208
    _Z15ctf_get_tu_ctfcv @5209
    _Z15ctf_type_existsP13ctf_containerP10die_structPy @5210
    _Z15ctfc_get_strtabP13ctf_containeri @5211
    _Z15current_ir_typev @5212
    _Z15dbg_cnt_counter13debug_counter @5213
    _Z15debug_bb_n_slimi @5214
    _Z15debug_candidatei @5215
    _Z15debug_cfg_statsv @5216
    _Z15debug_dfa_statsv @5217
    _Z15debug_dwarf_dieP10die_struct @5218
    _Z15debug_eaf_flagsi @5219
    _Z15debug_find_treeP9tree_nodeS0_ @5220
    _Z15debug_flow_infov @5221
    _Z15debug_gmp_valueP12__mpz_struct @5222
    _Z15debug_insn_slimPK8rtx_insn @5223
    _Z15debug_oacc_loopP9oacc_loop @5224
    _Z15debug_rtx_rangePK8rtx_insnS1_ @5225
    _Z15debug_same_succv @5226
    _Z15debug_set_countj @5227
    _Z15debug_set_namesj @5228
    _Z15debug_var_infosv @5229
    _Z15debuginfo_startv @5230
    _Z15decl_attributesPP9tree_nodeS0_iS0_ @5231
    _Z15decode_reg_namePKc @5232
    _Z15delete_tree_ssaP8function @5233
    _Z15deps_add_targetP6mkdepsPKci @5234
    _Z15df_analyze_loopP4loop @5235
    _Z15df_chain_createP8df_ref_dS0_ @5236
    _Z15df_chain_unlinkP8df_ref_d @5237
    _Z15df_get_bb_dirtyP15basic_block_def @5238
    _Z15df_get_n_blocks11df_flow_dir @5239
    _Z15df_grow_bb_infoP8dataflow @5240
    _Z15df_notes_rescanP8rtx_insn @5241
    _Z15df_print_regsetP6_iobufPK11bitmap_head @5242
    _Z15df_set_bb_dirtyP15basic_block_def @5243
    _Z15dr_misalignmentP11dr_vec_infoP9tree_node8poly_intILj1ExE @5244
    _Z15dump_alias_infoP6_iobuf @5245
    _Z15dump_componentsP6_iobufP9component @5246
    _Z15dump_cselib_valPP10cselib_valP6_iobuf @5247
    _Z15dump_defs_stackP6_iobufi @5248
    _Z15dump_double_intP6_iobuf10double_intb @5249
    _Z15dump_insn_rtx_1P7rtx_defi @5250
    _Z15dump_omp_regionP6_iobufP10omp_regioni @5251
    _Z15dump_ops_vectorP6_iobuf3vecIP13operand_entry7va_heap6vl_ptrE @5252
    _Z15dump_printf_locRK15dump_metadata_tRK20dump_user_location_tPKcz @5253
    _Z15dump_propertiesP6_iobufj @5254
    _Z15dump_region_dotP6_iobufi @5255
    _Z15dump_update_ssaP6_iobuf @5256
    _Z15dump_value_slimP6_iobufPK7rtx_defi @5257
    _Z15duplicate_blockP15basic_block_defP8edge_defS0_P12copy_bb_data @5258
    _Z15edge_gcov_countP8edge_def @5259
    _Z15eh_returnjump_pP8rtx_insn @5260
    _Z15emit_block_moveP7rtx_defS0_S0_16block_op_methods @5261
    _Z15emit_debug_insnP7rtx_def @5262
    _Z15emit_diagnostic12diagnostic_tP13rich_locationiPKcz @5263
    _Z15emit_diagnostic12diagnostic_tjiPKcz @5264
    _Z15emit_group_loadP7rtx_defS0_P9tree_node8poly_intILj1ExE @5265
    _Z15emit_group_moveP7rtx_defS0_ @5266
    _Z15emit_insn_afterP7rtx_defP8rtx_insn @5267
    _Z15emit_note_after9insn_noteP8rtx_insn @5268
    _Z15emit_stack_save10save_levelPP7rtx_def @5269
    _Z15emit_store_flagP7rtx_def8rtx_codeS0_S0_12machine_modeii @5270
    _Z15end_branch_probv @5271
    _Z15eq_evolutions_pPK9tree_nodeS1_ @5272
    _Z15estimate_growthP11cgraph_node @5273
    _Z15expand_copysignP7rtx_defS0_S0_ @5274
    _Z15expand_locationj @5275
    _Z15expand_operandsP9tree_nodeS0_P7rtx_defPS2_S3_15expand_modifier @5276
    _Z15expr_callee_abiPK9tree_node @5277
    _Z15expr_dest_regnoP5_expr @5278
    _Z15field_at_offsetP9tree_nodeS0_xPxS1_ @5279
    _Z15final_scan_insnP8rtx_insnP6_iobufiiPi @5280
    _Z15find_edge_indexP9edge_listP15basic_block_defS2_ @5281
    _Z15find_loop_niterP4loopPP8edge_def @5282
    _Z15find_reg_fusagePK7rtx_def8rtx_codeS1_ @5283
    _Z15find_regno_notePK7rtx_def8reg_notej @5284
    _Z15find_rename_regP7du_head9reg_classP12HARD_REG_SETib @5285
    _Z15find_successorsP17simple_bitmap_defP3ddgS0_ @5286
    _Z15find_taken_edgeP15basic_block_defP9tree_node @5287
    _Z15fixed_identicalPK11fixed_valueS1_ @5288
    _Z15flist_tail_initP14flist_tail_def @5289
    _Z15flow_loops_dumpP6_iobufPFvPK4loopS0_iEi @5290
    _Z15flow_loops_findP5loops @5291
    _Z15flow_loops_freeP5loops @5292
    _Z15fold_binary_locj9tree_codeP9tree_nodeS1_S1_ @5293
    _Z15fold_build1_locj9tree_codeP9tree_nodeS1_ @5294
    _Z15fold_build2_locj9tree_codeP9tree_nodeS1_S1_ @5295
    _Z15fold_build3_locj9tree_codeP9tree_nodeS1_S1_S1_ @5296
    _Z15fold_const_call11combined_fnP9tree_nodeS1_ @5297
    _Z15fold_const_call11combined_fnP9tree_nodeS1_S1_ @5298
    _Z15fold_const_call11combined_fnP9tree_nodeS1_S1_S1_ @5299
    _Z15force_const_mem12machine_modeP7rtx_def @5300
    _Z15force_edge_coldP8edge_defb @5301
    _Z15force_label_rtxP9tree_node @5302
    _Z15fp_prec_to_sizei @5303
    _Z15fp_size_to_preci @5304
    _Z15free_histogramsP8function @5305
    _Z15free_succs_infoP10succs_info @5306
    _Z15free_temp_slotsv @5307
    _Z15gen_addqi_ext_1P7rtx_defS0_S0_ @5308
    _Z15gen_andqi_ext_1P7rtx_defS0_S0_ @5309
    _Z15gen_ashrdi3_cvtP7rtx_defS0_S0_ @5310
    _Z15gen_ashrsi3_cvtP7rtx_defS0_S0_ @5311
    _Z15gen_atomic_ordiP7rtx_defS0_S0_ @5312
    _Z15gen_atomic_orhiP7rtx_defS0_S0_ @5313
    _Z15gen_atomic_orqiP7rtx_defS0_S0_ @5314
    _Z15gen_atomic_orsiP7rtx_defS0_S0_ @5315
    _Z15gen_avx2_psadbwP7rtx_defS0_S0_ @5316
    _Z15gen_avx_dppd256P7rtx_defS0_S0_S0_ @5317
    _Z15gen_avx_dpps256P7rtx_defS0_S0_S0_ @5318
    _Z15gen_avx_vtestpdP7rtx_defS0_ @5319
    _Z15gen_avx_vtestpsP7rtx_defS0_ @5320
    _Z15gen_bsr_rex64_1P7rtx_defS0_ @5321
    _Z15gen_cmpqi_ext_3P7rtx_defS0_ @5322
    _Z15gen_cmpstrnqi_1P7rtx_defS0_S0_S0_S0_S0_ @5323
    _Z15gen_copysigndf3P7rtx_defS0_S0_ @5324
    _Z15gen_copysignhf3P7rtx_defS0_S0_ @5325
    _Z15gen_copysignsf3P7rtx_defS0_S0_ @5326
    _Z15gen_copysigntf3P7rtx_defS0_S0_ @5327
    _Z15gen_cvtusi2sd32P7rtx_defS0_S0_ @5328
    _Z15gen_cvtusi2sd64P7rtx_defS0_S0_ @5329
    _Z15gen_cvtusi2ss32P7rtx_defS0_S0_ @5330
    _Z15gen_cvtusi2ss64P7rtx_defS0_S0_ @5331
    _Z15gen_divmoddi4_1P7rtx_defS0_S0_S0_ @5332
    _Z15gen_divmodhiqi3P7rtx_defS0_S0_ @5333
    _Z15gen_divmodsi4_1P7rtx_defS0_S0_S0_ @5334
    _Z15gen_expNcorexf3P7rtx_defS0_S0_ @5335
    _Z15gen_extend_insnP7rtx_defS0_12machine_modeS1_i @5336
    _Z15gen_extenddfxf2P7rtx_defS0_ @5337
    _Z15gen_extendhfdf2P7rtx_defS0_ @5338
    _Z15gen_extendhfsf2P7rtx_defS0_ @5339
    _Z15gen_extendhidi2P7rtx_defS0_ @5340
    _Z15gen_extendhisi2P7rtx_defS0_ @5341
    _Z15gen_extendqidi2P7rtx_defS0_ @5342
    _Z15gen_extendqihi2P7rtx_defS0_ @5343
    _Z15gen_extendqisi2P7rtx_defS0_ @5344
    _Z15gen_extendsfdf2P7rtx_defS0_ @5345
    _Z15gen_extendsfxf2P7rtx_defS0_ @5346
    _Z15gen_extendsidi2P7rtx_defS0_ @5347
    _Z15gen_int_libfunc9optab_tagPKcc12machine_mode @5348
    _Z15gen_klshiftrtdiP7rtx_defS0_S0_ @5349
    _Z15gen_klshiftrthiP7rtx_defS0_S0_ @5350
    _Z15gen_klshiftrtqiP7rtx_defS0_S0_ @5351
    _Z15gen_klshiftrtsiP7rtx_defS0_S0_ @5352
    _Z15gen_lfloordfdi2P7rtx_defS0_ @5353
    _Z15gen_lfloordfsi2P7rtx_defS0_ @5354
    _Z15gen_lfloorsfdi2P7rtx_defS0_ @5355
    _Z15gen_lfloorsfsi2P7rtx_defS0_ @5356
    _Z15gen_lfloorxfdi2P7rtx_defS0_ @5357
    _Z15gen_lfloorxfhi2P7rtx_defS0_ @5358
    _Z15gen_lfloorxfsi2P7rtx_defS0_ @5359
    _Z15gen_lrounddfdi2P7rtx_defS0_ @5360
    _Z15gen_lrounddfhi2P7rtx_defS0_ @5361
    _Z15gen_lrounddfsi2P7rtx_defS0_ @5362
    _Z15gen_lroundsfdi2P7rtx_defS0_ @5363
    _Z15gen_lroundsfhi2P7rtx_defS0_ @5364
    _Z15gen_lroundsfsi2P7rtx_defS0_ @5365
    _Z15gen_lroundxfdi2P7rtx_defS0_ @5366
    _Z15gen_lroundxfhi2P7rtx_defS0_ @5367
    _Z15gen_lroundxfsi2P7rtx_defS0_ @5368
    _Z15gen_mfence_sse2P7rtx_def @5369
    _Z15gen_mmx_eqv2sf3P7rtx_defS0_S0_ @5370
    _Z15gen_mmx_eqv2si3P7rtx_defS0_S0_ @5371
    _Z15gen_mmx_eqv4hi3P7rtx_defS0_S0_ @5372
    _Z15gen_mmx_eqv8qi3P7rtx_defS0_S0_ @5373
    _Z15gen_mmx_gev2sf3P7rtx_defS0_S0_ @5374
    _Z15gen_mmx_gtv2sf3P7rtx_defS0_S0_ @5375
    _Z15gen_mmx_gtv2si3P7rtx_defS0_S0_ @5376
    _Z15gen_mmx_gtv4hi3P7rtx_defS0_S0_ @5377
    _Z15gen_mmx_gtv8qi3P7rtx_defS0_S0_ @5378
    _Z15gen_mmx_pmaddwdP7rtx_defS0_S0_ @5379
    _Z15gen_monitorx_diP7rtx_defS0_S0_ @5380
    _Z15gen_monitorx_siP7rtx_defS0_S0_ @5381
    _Z15gen_movstricthiP7rtx_defS0_ @5382
    _Z15gen_movstrictqiP7rtx_defS0_ @5383
    _Z15gen_one_cmpldi2P7rtx_defS0_ @5384
    _Z15gen_one_cmplhi2P7rtx_defS0_ @5385
    _Z15gen_one_cmplqi2P7rtx_defS0_ @5386
    _Z15gen_one_cmplsi2P7rtx_defS0_ @5387
    _Z15gen_peephole2_1P8rtx_insnPP7rtx_def @5388
    _Z15gen_peephole2_2P8rtx_insnPP7rtx_def @5389
    _Z15gen_peephole2_3P8rtx_insnPP7rtx_def @5390
    _Z15gen_peephole2_4P8rtx_insnPP7rtx_def @5391
    _Z15gen_peephole2_5P8rtx_insnPP7rtx_def @5392
    _Z15gen_peephole2_6P8rtx_insnPP7rtx_def @5393
    _Z15gen_peephole2_7P8rtx_insnPP7rtx_def @5394
    _Z15gen_peephole2_8P8rtx_insnPP7rtx_def @5395
    _Z15gen_peephole2_9P8rtx_insnPP7rtx_def @5396
    _Z15gen_popcountdi2P7rtx_defS0_ @5397
    _Z15gen_popcounthi2P7rtx_defS0_ @5398
    _Z15gen_popcountsi2P7rtx_defS0_ @5399
    _Z15gen_probe_stackP7rtx_def @5400
    _Z15gen_rdpid_rex64P7rtx_def @5401
    _Z15gen_rdpmc_rex64P7rtx_defS0_S0_ @5402
    _Z15gen_rdtsc_rex64P7rtx_defS0_ @5403
    _Z15gen_reducesv2dfP7rtx_defS0_S0_S0_ @5404
    _Z15gen_reducesv4sfP7rtx_defS0_S0_S0_ @5405
    _Z15gen_reducesv8hfP7rtx_defS0_S0_S0_ @5406
    _Z15gen_roundv16sf2P7rtx_defS0_ @5407
    _Z15gen_rsqrt14v2dfP7rtx_defS0_S0_ @5408
    _Z15gen_rsqrt14v4sfP7rtx_defS0_S0_ @5409
    _Z15gen_rsqrtv16hf2P7rtx_defS0_ @5410
    _Z15gen_rsqrtv16sf2P7rtx_defS0_ @5411
    _Z15gen_rsqrtv32hf2P7rtx_defS0_ @5412
    _Z15gen_saveprevsspv @5413
    _Z15gen_sha256rnds2P7rtx_defS0_S0_S0_ @5414
    _Z15gen_sse2_lfencev @5415
    _Z15gen_sse2_loadldP7rtx_defS0_S0_ @5416
    _Z15gen_sse2_mfencev @5417
    _Z15gen_sse2_pinsrwP7rtx_defS0_S0_S0_ @5418
    _Z15gen_sse2_psadbwP7rtx_defS0_S0_ @5419
    _Z15gen_sse2_pshufdP7rtx_defS0_S0_ @5420
    _Z15gen_sse2_shufpdP7rtx_defS0_S0_S0_ @5421
    _Z15gen_sse4_1_dppdP7rtx_defS0_S0_S0_ @5422
    _Z15gen_sse4_1_dppsP7rtx_defS0_S0_S0_ @5423
    _Z15gen_sse4a_extrqP7rtx_defS0_S0_ @5424
    _Z15gen_sse_ldmxcsrP7rtx_def @5425
    _Z15gen_sse_loadhpsP7rtx_defS0_S0_ @5426
    _Z15gen_sse_loadlpsP7rtx_defS0_S0_ @5427
    _Z15gen_sse_movhlpsP7rtx_defS0_S0_ @5428
    _Z15gen_sse_movlhpsP7rtx_defS0_S0_ @5429
    _Z15gen_sse_stmxcsrP7rtx_def @5430
    _Z15gen_storentv2dfP7rtx_defS0_ @5431
    _Z15gen_storentv2diP7rtx_defS0_ @5432
    _Z15gen_storentv4dfP7rtx_defS0_ @5433
    _Z15gen_storentv4diP7rtx_defS0_ @5434
    _Z15gen_storentv4sfP7rtx_defS0_ @5435
    _Z15gen_storentv8dfP7rtx_defS0_ @5436
    _Z15gen_storentv8diP7rtx_defS0_ @5437
    _Z15gen_storentv8sfP7rtx_defS0_ @5438
    _Z15gen_subborrowdiP7rtx_defS0_S0_S0_S0_S0_ @5439
    _Z15gen_subborrowsiP7rtx_defS0_S0_S0_S0_S0_ @5440
    _Z15gen_umonitor_diP7rtx_def @5441
    _Z15gen_umonitor_siP7rtx_def @5442
    _Z15gen_vashlv16hi3P7rtx_defS0_S0_ @5443
    _Z15gen_vashlv16qi3P7rtx_defS0_S0_ @5444
    _Z15gen_vashlv16si3P7rtx_defS0_S0_ @5445
    _Z15gen_vashlv32hi3P7rtx_defS0_S0_ @5446
    _Z15gen_vashlv32qi3P7rtx_defS0_S0_ @5447
    _Z15gen_vashlv64qi3P7rtx_defS0_S0_ @5448
    _Z15gen_vashrv16hi3P7rtx_defS0_S0_ @5449
    _Z15gen_vashrv16qi3P7rtx_defS0_S0_ @5450
    _Z15gen_vashrv16si3P7rtx_defS0_S0_ @5451
    _Z15gen_vashrv32hi3P7rtx_defS0_S0_ @5452
    _Z15gen_vashrv32qi3P7rtx_defS0_S0_ @5453
    _Z15gen_vashrv64qi3P7rtx_defS0_S0_ @5454
    _Z15gen_vec_dupv2dfP7rtx_defS0_ @5455
    _Z15gen_vec_dupv4dfP7rtx_defS0_ @5456
    _Z15gen_vec_dupv4diP7rtx_defS0_ @5457
    _Z15gen_vec_dupv4sfP7rtx_defS0_ @5458
    _Z15gen_vec_dupv8sfP7rtx_defS0_ @5459
    _Z15gen_vec_dupv8siP7rtx_defS0_ @5460
    _Z15gen_vec_setv2dfP7rtx_defS0_S0_ @5461
    _Z15gen_vec_setv2diP7rtx_defS0_S0_ @5462
    _Z15gen_vec_setv2hiP7rtx_defS0_S0_ @5463
    _Z15gen_vec_setv2sfP7rtx_defS0_S0_ @5464
    _Z15gen_vec_setv2siP7rtx_defS0_S0_ @5465
    _Z15gen_vec_setv4dfP7rtx_defS0_S0_ @5466
    _Z15gen_vec_setv4diP7rtx_defS0_S0_ @5467
    _Z15gen_vec_setv4hiP7rtx_defS0_S0_ @5468
    _Z15gen_vec_setv4qiP7rtx_defS0_S0_ @5469
    _Z15gen_vec_setv4sfP7rtx_defS0_S0_ @5470
    _Z15gen_vec_setv4siP7rtx_defS0_S0_ @5471
    _Z15gen_vec_setv8dfP7rtx_defS0_S0_ @5472
    _Z15gen_vec_setv8diP7rtx_defS0_S0_ @5473
    _Z15gen_vec_setv8hfP7rtx_defS0_S0_ @5474
    _Z15gen_vec_setv8hiP7rtx_defS0_S0_ @5475
    _Z15gen_vec_setv8qiP7rtx_defS0_S0_ @5476
    _Z15gen_vec_setv8sfP7rtx_defS0_S0_ @5477
    _Z15gen_vec_setv8siP7rtx_defS0_S0_ @5478
    _Z15gen_vlshrv16hi3P7rtx_defS0_S0_ @5479
    _Z15gen_vlshrv16qi3P7rtx_defS0_S0_ @5480
    _Z15gen_vlshrv16si3P7rtx_defS0_S0_ @5481
    _Z15gen_vlshrv32hi3P7rtx_defS0_S0_ @5482
    _Z15gen_vlshrv32qi3P7rtx_defS0_S0_ @5483
    _Z15gen_vlshrv64qi3P7rtx_defS0_S0_ @5484
    _Z15gen_vpshld_v2diP7rtx_defS0_S0_S0_ @5485
    _Z15gen_vpshld_v4diP7rtx_defS0_S0_S0_ @5486
    _Z15gen_vpshld_v4siP7rtx_defS0_S0_S0_ @5487
    _Z15gen_vpshld_v8diP7rtx_defS0_S0_S0_ @5488
    _Z15gen_vpshld_v8hiP7rtx_defS0_S0_S0_ @5489
    _Z15gen_vpshld_v8siP7rtx_defS0_S0_S0_ @5490
    _Z15gen_vpshrd_v2diP7rtx_defS0_S0_S0_ @5491
    _Z15gen_vpshrd_v4diP7rtx_defS0_S0_S0_ @5492
    _Z15gen_vpshrd_v4siP7rtx_defS0_S0_S0_ @5493
    _Z15gen_vpshrd_v8diP7rtx_defS0_S0_S0_ @5494
    _Z15gen_vpshrd_v8hiP7rtx_defS0_S0_S0_ @5495
    _Z15gen_vpshrd_v8siP7rtx_defS0_S0_S0_ @5496
    _Z15gen_vrotlv16qi3P7rtx_defS0_S0_ @5497
    _Z15gen_vrotrv16qi3P7rtx_defS0_S0_ @5498
    _Z15gen_x86_64_shldP7rtx_defS0_S0_ @5499
    _Z15gen_x86_64_shrdP7rtx_defS0_S0_ @5500
    _Z15gen_xop_frczdf2P7rtx_defS0_ @5501
    _Z15gen_xop_frczsf2P7rtx_defS0_ @5502
    _Z15gen_xop_phaddbdP7rtx_defS0_ @5503
    _Z15gen_xop_phaddbqP7rtx_defS0_ @5504
    _Z15gen_xop_phaddbwP7rtx_defS0_ @5505
    _Z15gen_xop_phadddqP7rtx_defS0_ @5506
    _Z15gen_xop_phaddwdP7rtx_defS0_ @5507
    _Z15gen_xop_phaddwqP7rtx_defS0_ @5508
    _Z15gen_xop_phsubbwP7rtx_defS0_ @5509
    _Z15gen_xop_phsubdqP7rtx_defS0_ @5510
    _Z15gen_xop_phsubwdP7rtx_defS0_ @5511
    _Z15gen_xop_pmacsddP7rtx_defS0_S0_S0_ @5512
    _Z15gen_xop_pmacswdP7rtx_defS0_S0_S0_ @5513
    _Z15gen_xop_pmacswwP7rtx_defS0_S0_S0_ @5514
    _Z15gen_xsave_rex64P7rtx_defS0_S0_ @5515
    _Z15general_operandP7rtx_def12machine_mode @5516
    _Z15generate_optionyPKcxjP17cl_decoded_option @5517
    _Z15get_AT_unsignedP10die_struct15dwarf_attribute @5518
    _Z15get_attr_lengthP8rtx_insn @5519
    _Z15get_attr_memoryP8rtx_insn @5520
    _Z15get_attr_prefixP8rtx_insn @5521
    _Z15get_bb_originalP15basic_block_def @5522
    _Z15get_call_fndeclPK8rtx_insn @5523
    _Z15get_current_defP9tree_node @5524
    _Z15get_debug_scopeiPb @5525
    _Z15get_entity_namei @5526
    _Z15get_index_scalePK12address_info @5527
    _Z15get_mode_bounds15scalar_int_modeiS_PP7rtx_defS2_ @5528
    _Z15get_parm_accessR8hash_mapI16rdwr_access_hash11attr_access21simple_hashmap_traitsI19default_hash_traitsIS0_ES1_EEP9tree_nodeS9_ @5529
    _Z15get_random_seedb @5530
    _Z15get_virtual_phiP15basic_block_def @5531
    _Z15ggc_splay_allociPv @5532
    _Z15gimple_debug_bbP15basic_block_def @5533
    _Z15gimple_dump_cfgP6_iobuf9dump_flag @5534
    _Z15gimple_seq_copyP6gimple @5535
    _Z15gimple_set_bodyP9tree_nodeP6gimple @5536
    _Z15gimple_simplify11combined_fnP9tree_nodeS1_PP6gimplePFS1_S1_E @5537
    _Z15gimple_simplify11combined_fnP9tree_nodeS1_S1_PP6gimplePFS1_S1_E @5538
    _Z15gimple_simplify11combined_fnP9tree_nodeS1_S1_S1_PP6gimplePFS1_S1_E @5539
    _Z15gimple_simplify9tree_codeP9tree_nodeS1_PP6gimplePFS1_S1_E @5540
    _Z15gimple_simplify9tree_codeP9tree_nodeS1_S1_PP6gimplePFS1_S1_E @5541
    _Z15gimple_simplify9tree_codeP9tree_nodeS1_S1_S1_PP6gimplePFS1_S1_E @5542
    _Z15gimple_simplifyP6gimpleP15gimple_match_opPS0_PFP9tree_nodeS5_ES7_ @5543
    _Z15gimplify_assignP9tree_nodeS0_PP6gimple @5544
    _Z15graphds_domtreeP5graphiPiS1_S1_ @5545
    _Z15grow_reg_equivsv @5546
    _Z15gsi_move_beforeP20gimple_stmt_iteratorS0_ @5547
    _Z15gt_clear_cachesv @5548
    _Z15gt_ggc_mx_loopsPv @5549
    _Z15gt_pch_nx_loopsPv @5550
    _Z15gt_pch_p_5loopsPvS_PFvS_S_S_ES_ @5551
    _Z15hash_table_mod1jj @5552
    _Z15hash_table_mod2jj @5553
    _Z15hook_hwi_void_0v @5554
    _Z15init_all_optabsP13target_optabs @5555
    _Z15init_attributesv @5556
    _Z15init_gnat_utilsv @5557
    _Z15init_save_areasv @5558
    _Z15init_stringpoolv @5559
    _Z15init_temp_slotsv @5560
    _Z15insert_decl_mapP14copy_body_dataP9tree_nodeS2_ @5561
    _Z15insn_callee_abiPK8rtx_insn @5562
    _Z15insn_min_lengthP8rtx_insn @5563
    _Z15insn_sched_costP8rtx_insn @5564
    _Z15int_const_binop9tree_codePK9tree_nodeS2_i @5565
    _Z15int_fits_type_pPK9tree_nodeS1_ @5566
    _Z15ipa_print_orderP6_iobufPKcPP11cgraph_nodei @5567
    _Z15ira_create_copyP11ira_allocnoS0_ibP8rtx_insnP18ira_loop_tree_node @5568
    _Z15ira_create_prefP11ira_allocnoii @5569
    _Z15ira_debug_prefsv @5570
    _Z15ira_free_bitmapP11bitmap_head @5571
    _Z15ira_remove_prefP16ira_allocno_pref @5572
    _Z15is_named_call_pPK9tree_nodePKc @5573
    _Z15is_named_call_pPK9tree_nodePKcPK5gcallj @5574
    _Z15is_typedef_declPK9tree_node @5575
    _Z15iv_analyze_exprP8rtx_insn15scalar_int_modeP7rtx_defP6rtx_iv @5576
    _Z15ix86_emit_binop8rtx_code12machine_modeP7rtx_defS2_ @5577
    _Z15ix86_issue_ratev @5578
    _Z15ix86_split_ashlPP7rtx_defS0_12machine_mode @5579
    _Z15ix86_split_ashrPP7rtx_defS0_12machine_mode @5580
    _Z15ix86_split_lshrPP7rtx_defS0_12machine_mode @5581
    _Z15jump_target_rtxP9tree_node @5582
    _Z15jump_to_label_pPK8rtx_insn @5583
    _Z15known_alignmentP9tree_node @5584
    _Z15leaf_function_pv @5585
    _Z15lhd_append_dataPKvyPv @5586
    _Z15lhd_end_sectionv @5587
    _Z15likely_target_pP11cgraph_node @5588
    _Z15line_table_dumpP6_iobufP9line_mapsjj @5589
    _Z15lookup_decl_dieP9tree_node @5590
    _Z15lookup_type_dieP9tree_node @5591
    _Z15loop_latch_edgePK4loop @5592
    _Z15low_bitmask_len12machine_modey @5593
    _Z15lra_constraintsb @5594
    _Z15lra_create_copyiii @5595
    _Z15lra_finish_oncev @5596
    _Z15lra_free_copiesv @5597
    _Z15lra_inheritancev @5598
    _Z15lra_update_dupsP19lra_insn_recog_dataPa @5599
    _Z15lto_end_sectionv @5600
    _Z15lto_output_treeP12output_blockP9tree_nodebb @5601
    _Z15lto_reader_initv @5602
    _Z15make_accum_typeiii @5603
    _Z15make_dummy_typei @5604
    _Z15make_fract_typeiii @5605
    _Z15make_label_textbPKcz @5606
    _Z15make_pass_finalPN3gcc7contextE @5607
    _Z15make_pass_gcse2PN3gcc7contextE @5608
    _Z15make_pass_jump2PN3gcc7contextE @5609
    _Z15make_pass_loop2PN3gcc7contextE @5610
    _Z15make_pass_schedPN3gcc7contextE @5611
    _Z15make_pass_ubsanPN3gcc7contextE @5612
    _Z15make_range_stepj9tree_codeP9tree_nodeS1_S1_PS1_S2_PiPb @5613
    _Z15make_tree_binfoj @5614
    _Z15mark_jump_labelP7rtx_defP8rtx_insni @5615
    _Z15mark_referencedP9tree_node @5616
    _Z15mathfn_built_inP9tree_node11combined_fn @5617
    _Z15mathfn_built_inP9tree_node17built_in_function @5618
    _Z15max_object_sizev @5619
    _Z15maybe_gen_cmp_112machine_modeP7rtx_defS1_ @5620
    _Z15maybe_gen_leave12machine_mode @5621
    _Z15maybe_gen_rdssp12machine_modeP7rtx_defS1_ @5622
    _Z15maybe_gen_wruss12machine_modeP7rtx_defS1_ @5623
    _Z15merge_expr_dataP5_exprS0_P8rtx_insn @5624
    _Z15min_issue_delayPvP8rtx_insn @5625
    _Z15mmx_reg_operandP7rtx_def12machine_mode @5626
    _Z15mode_for_vector11scalar_mode8poly_intILj1EyE @5627
    _Z15negate_mathfn_p11combined_fn @5628
    _Z15no_real_insns_pPK8rtx_insnS1_ @5629
    _Z15num_delay_slotsP8rtx_insn @5630
    _Z15number_in_readyv @5631
    _Z15omp_find_clauseP9tree_node15omp_clause_code @5632
    _Z15omp_finish_filev @5633
    _Z15omp_max_simt_vfv @5634
    _Z15operand_equal_pPK9tree_nodeS1_j @5635
    _Z15operand_subwordP7rtx_def8poly_intILj1EyEi12machine_mode @5636
    _Z15option_flag_variP11gcc_options @5637
    _Z15output_asm_insnPKcPP7rtx_def @5638
    _Z15palignr_operandP7rtx_def12machine_mode @5639
    _Z15peep2_next_insni @5640
    _Z15peephole2_insnsP7rtx_defP8rtx_insnPi @5641
    _Z15pmovzx_parallelP7rtx_def12machine_mode @5642
    _Z15poly_int_tree_pPK9tree_nodeP12poly_int_podILj1EyE @5643
    _Z15pp_really_flushP14pretty_printer @5644
    _Z15pp_wide_integerILj1EtEvP14pretty_printerRK12poly_int_podIXT_ET0_E @5645
    _Z15pp_wide_integerILj1ExEvP14pretty_printerRK12poly_int_podIXT_ET0_E @5646
    _Z15pp_wide_integerILj1EyEvP14pretty_printerRK12poly_int_podIXT_ET0_E @5647
    _Z15pp_wide_integerP14pretty_printerx @5648
    _Z15prepare_operand9insn_codeP7rtx_defi12machine_modeS2_i @5649
    _Z15print_call_nameP14pretty_printerP9tree_node9dump_flag @5650
    _Z15print_edge_listP6_iobufP9edge_list @5651
    _Z15print_graph_cfgP6_iobufP8function @5652
    _Z15print_graph_cfgP6_iobufP8function9dump_flag @5653
    _Z15print_graph_cfgPKcP8function @5654
    _Z15propagate_valueP17ssa_use_operand_tP9tree_node @5655
    _Z15pt_solution_setP11pt_solutionP11bitmap_headb @5656
    _Z15pure_location_pP9line_mapsj @5657
    _Z15push_temp_slotsv @5658
    _Z15range_int_cst_pPK9int_rangeILj1EE @5659
    _Z15range_negativesP9tree_node @5660
    _Z15range_positivesP9tree_node @5661
    _Z15read_dependencePK7rtx_defS1_ @5662
    _Z15real_arithmeticP10real_valueiPKS_S2_ @5663
    _Z15real_minus_onepPK9tree_node @5664
    _Z15real_to_decimalPcPK10real_valueyyi @5665
    _Z15real_to_integerPK10real_value @5666
    _Z15real_to_integerPK10real_valuePbi @5667
    _Z15redirect_jump_1P8rtx_insnP7rtx_def @5668
    _Z15redirect_jump_2P13rtx_jump_insnP7rtx_defS2_ii @5669
    _Z15reg_mentioned_pPK7rtx_defS1_ @5670
    _Z15reg_or_subregnoPK7rtx_def @5671
    _Z15regstat_free_riv @5672
    _Z15relation_negate9tree_code @5673
    _Z15remove_edge_rawP8edge_def @5674
    _Z15remove_phi_argsP8edge_def @5675
    _Z15remove_phi_nodeP20gimple_stmt_iteratorb @5676
    _Z15replace_uses_byP9tree_nodeS0_ @5677
    _Z15resize_reg_infov @5678
    _Z15rli_size_so_farP20record_layout_info_s @5679
    _Z15rpo_vn_valueizeP9tree_node @5680
    _Z15run_fast_df_dcev @5681
    _Z15sbitmap_reallocP17simple_bitmap_defj @5682
    _Z15scev_initializev @5683
    _Z15scev_reset_htabv @5684
    _Z15sched_deps_initb @5685
    _Z15sched_emit_insnP7rtx_def @5686
    _Z15sched_free_depsP8rtx_insnS0_b @5687
    _Z15scratch_operandP7rtx_def12machine_mode @5688
    _Z15sel_debug_cfg_1i @5689
    _Z15sel_remove_insnP8rtx_insnbb @5690
    _Z15set_bb_originalP15basic_block_defS0_ @5691
    _Z15set_current_defP9tree_nodeS0_ @5692
    _Z15set_ptr_nonnullP9tree_node @5693
    _Z15set_random_seedPKc @5694
    _Z15setup_nop_vinsnv @5695
    _Z15shiftdi_operandP7rtx_def12machine_mode @5696
    _Z15signed_type_forP9tree_node @5697
    _Z15single_dom_exitP4loop @5698
    _Z15size_diffop_locjP9tree_nodeS0_ @5699
    _Z15size_of_sleb128x @5700
    _Z15size_of_uleb128y @5701
    _Z15sparseset_allocj @5702
    _Z15split_all_insnsv @5703
    _Z15ssa_default_defP8functionP9tree_node @5704
    _Z15sse_reg_operandP7rtx_def12machine_mode @5705
    _Z15statistics_finiv @5706
    _Z15statistics_initv @5707
    _Z15store_bit_fieldP7rtx_def8poly_intILj1EyES2_S2_S2_12machine_modeS0_b @5708
    _Z15store_by_piecesP7rtx_defyPFS0_PvS1_x15fixed_size_modeES1_jb9memop_ret @5709
    _Z15string_constantP9tree_nodePS0_S1_S1_ @5710
    _Z15subreg_get_infoj12machine_mode8poly_intILj1EyES_P11subreg_info @5711
    _Z15subreg_size_lsb8poly_intILj1EyES0_S0_ @5712
    _Z15sum_edge_countsP3vecIP8edge_def5va_gc8vl_embedE @5713
    _Z15tree_expr_nan_pPK9tree_node @5714
    _Z15tree_floor_log2PK9tree_node @5715
    _Z15tree_int_cst_lePK9tree_nodeS1_ @5716
    _Z15tree_int_cst_ltPK9tree_nodeS1_ @5717
    _Z15true_dependencePK7rtx_def12machine_modeS1_ @5718
    _Z15tsi_link_beforeP18tree_stmt_iteratorP9tree_node19tsi_iterator_update @5719
    _Z15type_hash_canonjP9tree_node @5720
    _Z15type_list_equalPK9tree_nodeS1_ @5721
    _Z15unionfind_unionP14web_entry_baseS0_ @5722
    _Z15unlink_bb_notesP15basic_block_defS0_ @5723
    _Z15unnest_functionP11cgraph_node @5724
    _Z15unshare_all_rtlv @5725
    _Z15valid_mem_ref_p12machine_modehP11mem_address @5726
    _Z15validate_changeP7rtx_defPS0_S0_b @5727
    _Z15validate_subreg12machine_modeS_PK7rtx_def8poly_intILj1EyE @5728
    _Z15vect_do_peelingP14_loop_vec_infoP9tree_nodeS2_PS2_S3_S3_ibbS3_ @5729
    _Z15verify_eh_edgesP6gimple @5730
    _Z15vn_reference_eqPK14vn_reference_sS1_ @5731
    _Z15volatile_insn_pPK7rtx_def @5732
    _Z15volatile_refs_pPK7rtx_def @5733
    _Z15walk_gimple_seqP6gimplePFP9tree_nodeP20gimple_stmt_iteratorPbP14walk_stmt_infoEPFS2_PS2_PiPvES7_ @5734
    _Z15warn_if_pluginsv @5735
    _Z15warning_for_asmPK8rtx_insnPKcz @5736
    _Z16HONOR_INFINITIES12machine_mode @5737
    _Z16HONOR_INFINITIESPK7rtx_def @5738
    _Z16HONOR_INFINITIESPK9tree_node @5739
    _Z16add_builtin_typePKcP9tree_node @5740
    _Z16add_decl_warningRKP9tree_nodeRK15decl_warn_countP3vecIPS4_7va_heap6vl_ptrE @5741
    _Z16add_int_reg_noteP8rtx_insn8reg_notei @5742
    _Z16addr_for_mem_refP11mem_addresshb @5743
    _Z16addr_for_mem_refP9tree_nodehb @5744
    _Z16adjust_address_1P7rtx_def12machine_mode8poly_intILj1ExEiiiS3_ @5745
    _Z16any_uncondjump_pPK8rtx_insn @5746
    _Z16ao_ref_alias_setP6ao_ref @5747
    _Z16ao_ref_alignmentP6ao_refPjPy @5748
    _Z16array_type_neltsPK9tree_node @5749
    _Z16asan_finish_filev @5750
    _Z16assemble_integerP7rtx_defjji @5751
    _Z16auto_var_in_fn_pPK9tree_nodeS1_ @5752
    _Z16bb_loop_header_pP15basic_block_def @5753
    _Z16bcst_mem_operandP7rtx_def12machine_mode @5754
    _Z16bitmap_and_complP11bitmap_headPKS_S2_ @5755
    _Z16bitmap_and_complP17simple_bitmap_defPKS_S2_ @5756
    _Z16bitmap_clear_bitP11bitmap_headi @5757
    _Z16bitmap_list_viewP11bitmap_head @5758
    _Z16bitmap_set_rangeP11bitmap_headjj @5759
    _Z16bitmap_set_rangeP17simple_bitmap_defjj @5760
    _Z16bitmap_tree_viewP11bitmap_head @5761
    _Z16bp_unpack_stringP7data_inP9bitpack_d @5762
    _Z16build_array_typeP9tree_nodeS0_b @5763
    _Z16build_call_raiseiic @5764
    _Z16build_case_labelP9tree_nodeS0_S0_ @5765
    _Z16build_cmp_resultP9tree_nodei @5766
    _Z16build_empty_stmtj @5767
    _Z16build_index_typeP9tree_node @5768
    _Z16build_omp_clausej15omp_clause_code @5769
    _Z16build_range_typeP9tree_nodeS0_S0_ @5770
    _Z16build_vec_seriesP9tree_nodeS0_S0_ @5771
    _Z16builtin_decl_forP9tree_node @5772
    _Z16by_pieces_ninsnsyjj19by_pieces_operation @5773
    _Z16cached_make_edgeP17simple_bitmap_defP15basic_block_defS2_i @5774
    _Z16cancel_loop_treeP4loop @5775
    _Z16check_bool_attrsP8rtx_insn @5776
    _Z16chrec_fold_minusP9tree_nodeS0_S0_ @5777
    _Z16cleanup_tree_cfgj @5778
    _Z16clear_mem_offsetP7rtx_def @5779
    _Z16clobber_reg_modePP7rtx_defS0_12machine_mode @5780
    _Z16combined_fn_name11combined_fn @5781
    _Z16compare_operatorP7rtx_def12machine_mode @5782
    _Z16compare_tree_intPK9tree_nodey @5783
    _Z16concat_INSN_LISTP13rtx_insn_listS0_ @5784
    _Z16const123_operandP7rtx_def12machine_mode @5785
    _Z16const128_operandP7rtx_def12machine_mode @5786
    _Z16const248_operandP7rtx_def12machine_mode @5787
    _Z16const359_operandP7rtx_def12machine_mode @5788
    _Z16const_32bit_maskP7rtx_def12machine_mode @5789
    _Z16const_vector_eltPK7rtx_defj @5790
    _Z16convert_to_fixedP9tree_nodeS0_ @5791
    _Z16copy_addr_to_regP7rtx_def @5792
    _Z16copy_decl_to_varP9tree_nodeP14copy_body_data @5793
    _Z16copy_expr_onsideP5_exprS0_ @5794
    _Z16copy_ssa_name_fnP8functionP9tree_nodeP6gimple @5795
    _Z16copy_to_mode_reg12machine_modeP7rtx_def @5796
    _Z16copy_tree_body_rPP9tree_nodePiPv @5797
    _Z16cpp_get_commentsP10cpp_reader @5798
    _Z16cpp_output_tokenPK9cpp_tokenP6_iobuf @5799
    _Z16cpp_post_optionsP10cpp_reader @5800
    _Z16cpp_push_includeP10cpp_readerPKc @5801
    _Z16cpp_quote_stringPhPKhj @5802
    _Z16cpp_set_line_mapP10cpp_readerP9line_maps @5803
    _Z16crc32_unsigned_njjj @5804
    _Z16create_edge_listv @5805
    _Z16create_preheaderP4loopi @5806
    _Z16create_type_declP9tree_nodeS0_bbi @5807
    _Z16ctf_add_functionP13ctf_containerjPKcPK12ctf_funcinfoP10die_structb @5808
    _Z16ctf_add_variableP13ctf_containerPKcyP10die_structjS4_ @5809
    _Z16ctf_debug_finishPKc @5810
    _Z16ctor_for_foldingP9tree_node @5811
    _Z16dbxout_reg_parmsP9tree_node @5812
    _Z16dconst_ninth_ptrv @5813
    _Z16dconst_sixth_ptrv @5814
    _Z16dconst_sqrt2_ptrv @5815
    _Z16dconst_third_ptrv @5816
    _Z16debug_alias_infov @5817
    _Z16debug_bitmap_setP10bitmap_set @5818
    _Z16debug_candidatesi @5819
    _Z16debug_constraintP10constraint @5820
    _Z16debug_defs_stacki @5821
    _Z16debug_gimple_seqP6gimple @5822
    _Z16debug_omp_regionP10omp_region @5823
    _Z16debug_ops_vector3vecIP13operand_entry7va_heap6vl_ptrE @5824
    _Z16debug_pbb_domainP7poly_bb @5825
    _Z16debug_propertiesj @5826
    _Z16debug_rdg_vertexP5graphi @5827
    _Z16debug_tree_chainP9tree_node @5828
    _Z16debug_update_ssav @5829
    _Z16debug_value_dataP10value_data @5830
    _Z16decode_decimal32PK11real_formatP10real_valuePKl @5831
    _Z16decode_decimal64PK11real_formatP10real_valuePKl @5832
    _Z16df_dump_insn_topPK8rtx_insnP6_iobuf @5833
    _Z16df_get_postorder11df_flow_dir @5834
    _Z16df_grow_reg_infov @5835
    _Z16df_hard_reg_initv @5836
    _Z16df_simulate_defsP8rtx_insnP11bitmap_head @5837
    _Z16df_simulate_usesP8rtx_insnP11bitmap_head @5838
    _Z16dfs_find_deadendP15basic_block_def @5839
    _Z16diagnose_optionsP11gcc_optionsS0_j @5840
    _Z16dump_alias_statsP6_iobuf @5841
    _Z16dump_assert_infoP6_iobufRK11assert_info @5842
    _Z16dump_basic_block9dump_flagP15basic_block_defi @5843
    _Z16dump_begin_scopePKcRK20dump_user_location_tRK20dump_impl_location_t @5844
    _Z16dump_bitmap_fileP6_iobufPK17simple_bitmap_def @5845
    _Z16dump_gimple_exprRK15dump_metadata_t9dump_flagP6gimplei @5846
    _Z16dump_gimple_stmtRK15dump_metadata_t9dump_flagP6gimplei @5847
    _Z16dump_insn_vector3vecIP8rtx_insn7va_heap6vl_ptrE @5848
    _Z16dump_mem_addressP6_iobufP11mem_address @5849
    _Z16dump_omp_clausesP14pretty_printerP9tree_nodei9dump_flagb @5850
    _Z16dump_range_entryP6_iobufP11range_entryb @5851
    _Z16dump_strlen_infoP6_iobufP6gimpleP11range_query @5852
    _Z16dump_symtab_nodeRK15dump_metadata_tP11symtab_node @5853
    _Z16dump_value_rangeP6_iobufPK17value_range_equiv @5854
    _Z16dump_value_rangeP6_iobufPK6irange @5855
    _Z16dw_get_die_childP10die_struct @5856
    _Z16elaborate_entityi @5857
    _Z16emit_group_storeP7rtx_defS0_P9tree_node8poly_intILj1ExE @5858
    _Z16emit_insn_beforeP7rtx_defP8rtx_insn @5859
    _Z16emit_label_afterP8rtx_insnS0_ @5860
    _Z16emit_move_insn_1P7rtx_defS0_ @5861
    _Z16emit_note_before9insn_noteP8rtx_insn @5862
    _Z16emit_stack_probeP7rtx_def @5863
    _Z16encode_decimal32PK11real_formatPlPK10real_value @5864
    _Z16encode_decimal64PK11real_formatPlPK10real_value @5865
    _Z16end_auto_profilev @5866
    _Z16end_subprog_bodyP9tree_node @5867
    _Z16execute_one_passP8opt_pass @5868
    _Z16expand_RAWMEMCHR11internal_fnP5gcall @5869
    _Z16expand_SPACESHIP11internal_fnP5gcall @5870
    _Z16expand_ccmp_exprP6gimple12machine_mode @5871
    _Z16expand_eh_returnv @5872
    _Z16expand_expr_realP9tree_nodeP7rtx_def12machine_mode15expand_modifierPS2_b @5873
    _Z16expand_jump_insn9insn_codejP14expand_operand @5874
    _Z16expand_phi_nodesP9ssaexpand @5875
    _Z16extract_low_bits12machine_modeS_P7rtx_def @5876
    _Z16finalize_pluginsv @5877
    _Z16find_common_loopP4loopS0_ @5878
    _Z16find_dummy_typesRKPKcP16godump_container @5879
    _Z16find_replacementPP7rtx_def @5880
    _Z16fixed_arithmeticP11fixed_valueiPKS_S2_b @5881
    _Z16fixed_to_decimalPcPK11fixed_valuey @5882
    _Z16fixup_partitionsv @5883
    _Z16fixup_tail_callsv @5884
    _Z16fold_builtin_cpuP9tree_nodePS0_ @5885
    _Z16fold_convert_locjP9tree_nodeS0_ @5886
    _Z16fold_div_compare9tree_codeP9tree_nodeS1_PS1_S2_Pb @5887
    _Z16fold_ternary_locj9tree_codeP9tree_nodeS1_S1_S1_ @5888
    _Z16for_each_inc_decP7rtx_defPFiS0_S0_S0_S0_S0_PvES1_ @5889
    _Z16for_each_scev_opPP9tree_nodePFbS1_PvES2_ @5890
    _Z16free_bb_for_insnv @5891
    _Z16free_delay_pairsv @5892
    _Z16free_regset_poolv @5893
    _Z16free_sched_poolsv @5894
    _Z16function_sectionP9tree_node @5895
    _Z16gcc_stablesort_rPvyyPFiPKvS1_S_ES_ @5896
    _Z16gcond_edge_rangeR6irangeP8edge_def @5897
    _Z16gcov_read_stringv @5898
    _Z16gcse_cc_finalizev @5899
    _Z16gen_addcarrydi_0P7rtx_defS0_S0_ @5900
    _Z16gen_addcarrysi_0P7rtx_defS0_S0_ @5901
    _Z16gen_adddi3_carryP7rtx_defS0_S0_S0_S0_ @5902
    _Z16gen_addhi3_carryP7rtx_defS0_S0_S0_S0_ @5903
    _Z16gen_addptr3_insnP7rtx_defS0_S0_ @5904
    _Z16gen_addqi3_carryP7rtx_defS0_S0_S0_S0_ @5905
    _Z16gen_addsi3_carryP7rtx_defS0_S0_S0_S0_ @5906
    _Z16gen_addsi_1_zextP7rtx_defS0_S0_ @5907
    _Z16gen_atomic_adddiP7rtx_defS0_S0_ @5908
    _Z16gen_atomic_addhiP7rtx_defS0_S0_ @5909
    _Z16gen_atomic_addqiP7rtx_defS0_S0_ @5910
    _Z16gen_atomic_addsiP7rtx_defS0_S0_ @5911
    _Z16gen_atomic_anddiP7rtx_defS0_S0_ @5912
    _Z16gen_atomic_andhiP7rtx_defS0_S0_ @5913
    _Z16gen_atomic_andqiP7rtx_defS0_S0_ @5914
    _Z16gen_atomic_andsiP7rtx_defS0_S0_ @5915
    _Z16gen_atomic_subdiP7rtx_defS0_S0_ @5916
    _Z16gen_atomic_subhiP7rtx_defS0_S0_ @5917
    _Z16gen_atomic_subqiP7rtx_defS0_S0_ @5918
    _Z16gen_atomic_subsiP7rtx_defS0_S0_ @5919
    _Z16gen_atomic_xordiP7rtx_defS0_S0_ @5920
    _Z16gen_atomic_xorhiP7rtx_defS0_S0_ @5921
    _Z16gen_atomic_xorqiP7rtx_defS0_S0_ @5922
    _Z16gen_atomic_xorsiP7rtx_defS0_S0_ @5923
    _Z16gen_avx2_gtv4di3P7rtx_defS0_S0_ @5924
    _Z16gen_avx2_gtv8si3P7rtx_defS0_S0_ @5925
    _Z16gen_avx2_mpsadbwP7rtx_defS0_S0_S0_ @5926
    _Z16gen_avx2_pblendwP7rtx_defS0_S0_S0_ @5927
    _Z16gen_avx2_pmaddwdP7rtx_defS0_S0_ @5928
    _Z16gen_avx_cmpv2df3P7rtx_defS0_S0_S0_ @5929
    _Z16gen_avx_cmpv4df3P7rtx_defS0_S0_S0_ @5930
    _Z16gen_avx_cmpv4sf3P7rtx_defS0_S0_S0_ @5931
    _Z16gen_avx_cmpv8sf3P7rtx_defS0_S0_S0_ @5932
    _Z16gen_avx_divv4df3P7rtx_defS0_S0_ @5933
    _Z16gen_avx_divv8sf3P7rtx_defS0_S0_ @5934
    _Z16gen_avx_lddqu256P7rtx_defS0_ @5935
    _Z16gen_avx_pd256_pdP7rtx_defS0_ @5936
    _Z16gen_avx_ps256_psP7rtx_defS0_ @5937
    _Z16gen_avx_rcpv8sf2P7rtx_defS0_ @5938
    _Z16gen_avx_si256_siP7rtx_defS0_ @5939
    _Z16gen_avx_vzeroallv @5940
    _Z16gen_bmi_bextr_diP7rtx_defS0_S0_ @5941
    _Z16gen_bmi_bextr_siP7rtx_defS0_S0_ @5942
    _Z16gen_cbranchv2di4P7rtx_defS0_S0_S0_ @5943
    _Z16gen_cbranchv4di4P7rtx_defS0_S0_S0_ @5944
    _Z16gen_cbranchv4si4P7rtx_defS0_S0_S0_ @5945
    _Z16gen_cbranchv8si4P7rtx_defS0_S0_S0_ @5946
    _Z16gen_clzdi2_lzcntP7rtx_defS0_ @5947
    _Z16gen_clzsi2_lzcntP7rtx_defS0_ @5948
    _Z16gen_cond_addv2dfP7rtx_defS0_S0_S0_S0_ @5949
    _Z16gen_cond_addv2diP7rtx_defS0_S0_S0_S0_ @5950
    _Z16gen_cond_addv4dfP7rtx_defS0_S0_S0_S0_ @5951
    _Z16gen_cond_addv4diP7rtx_defS0_S0_S0_S0_ @5952
    _Z16gen_cond_addv4sfP7rtx_defS0_S0_S0_S0_ @5953
    _Z16gen_cond_addv4siP7rtx_defS0_S0_S0_S0_ @5954
    _Z16gen_cond_addv8dfP7rtx_defS0_S0_S0_S0_ @5955
    _Z16gen_cond_addv8diP7rtx_defS0_S0_S0_S0_ @5956
    _Z16gen_cond_addv8hfP7rtx_defS0_S0_S0_S0_ @5957
    _Z16gen_cond_addv8hiP7rtx_defS0_S0_S0_S0_ @5958
    _Z16gen_cond_addv8sfP7rtx_defS0_S0_S0_S0_ @5959
    _Z16gen_cond_addv8siP7rtx_defS0_S0_S0_S0_ @5960
    _Z16gen_cond_andv2diP7rtx_defS0_S0_S0_S0_ @5961
    _Z16gen_cond_andv4diP7rtx_defS0_S0_S0_S0_ @5962
    _Z16gen_cond_andv4siP7rtx_defS0_S0_S0_S0_ @5963
    _Z16gen_cond_andv8diP7rtx_defS0_S0_S0_S0_ @5964
    _Z16gen_cond_andv8siP7rtx_defS0_S0_S0_S0_ @5965
    _Z16gen_cond_divv2dfP7rtx_defS0_S0_S0_S0_ @5966
    _Z16gen_cond_divv4dfP7rtx_defS0_S0_S0_S0_ @5967
    _Z16gen_cond_divv4sfP7rtx_defS0_S0_S0_S0_ @5968
    _Z16gen_cond_divv8dfP7rtx_defS0_S0_S0_S0_ @5969
    _Z16gen_cond_divv8hfP7rtx_defS0_S0_S0_S0_ @5970
    _Z16gen_cond_divv8sfP7rtx_defS0_S0_S0_S0_ @5971
    _Z16gen_cond_fmav2dfP7rtx_defS0_S0_S0_S0_S0_ @5972
    _Z16gen_cond_fmav4dfP7rtx_defS0_S0_S0_S0_S0_ @5973
    _Z16gen_cond_fmav4sfP7rtx_defS0_S0_S0_S0_S0_ @5974
    _Z16gen_cond_fmav8dfP7rtx_defS0_S0_S0_S0_S0_ @5975
    _Z16gen_cond_fmav8hfP7rtx_defS0_S0_S0_S0_S0_ @5976
    _Z16gen_cond_fmav8sfP7rtx_defS0_S0_S0_S0_S0_ @5977
    _Z16gen_cond_fmsv2dfP7rtx_defS0_S0_S0_S0_S0_ @5978
    _Z16gen_cond_fmsv4dfP7rtx_defS0_S0_S0_S0_S0_ @5979
    _Z16gen_cond_fmsv4sfP7rtx_defS0_S0_S0_S0_S0_ @5980
    _Z16gen_cond_fmsv8dfP7rtx_defS0_S0_S0_S0_S0_ @5981
    _Z16gen_cond_fmsv8hfP7rtx_defS0_S0_S0_S0_S0_ @5982
    _Z16gen_cond_fmsv8sfP7rtx_defS0_S0_S0_S0_S0_ @5983
    _Z16gen_cond_iorv2diP7rtx_defS0_S0_S0_S0_ @5984
    _Z16gen_cond_iorv4diP7rtx_defS0_S0_S0_S0_ @5985
    _Z16gen_cond_iorv4siP7rtx_defS0_S0_S0_S0_ @5986
    _Z16gen_cond_iorv8diP7rtx_defS0_S0_S0_S0_ @5987
    _Z16gen_cond_iorv8siP7rtx_defS0_S0_S0_S0_ @5988
    _Z16gen_cond_mulv2dfP7rtx_defS0_S0_S0_S0_ @5989
    _Z16gen_cond_mulv2diP7rtx_defS0_S0_S0_S0_ @5990
    _Z16gen_cond_mulv4dfP7rtx_defS0_S0_S0_S0_ @5991
    _Z16gen_cond_mulv4diP7rtx_defS0_S0_S0_S0_ @5992
    _Z16gen_cond_mulv4sfP7rtx_defS0_S0_S0_S0_ @5993
    _Z16gen_cond_mulv4siP7rtx_defS0_S0_S0_S0_ @5994
    _Z16gen_cond_mulv8dfP7rtx_defS0_S0_S0_S0_ @5995
    _Z16gen_cond_mulv8diP7rtx_defS0_S0_S0_S0_ @5996
    _Z16gen_cond_mulv8hfP7rtx_defS0_S0_S0_S0_ @5997
    _Z16gen_cond_mulv8hiP7rtx_defS0_S0_S0_S0_ @5998
    _Z16gen_cond_mulv8sfP7rtx_defS0_S0_S0_S0_ @5999
    _Z16gen_cond_mulv8siP7rtx_defS0_S0_S0_S0_ @6000
    _Z16gen_cond_subv2dfP7rtx_defS0_S0_S0_S0_ @6001
    _Z16gen_cond_subv2diP7rtx_defS0_S0_S0_S0_ @6002
    _Z16gen_cond_subv4dfP7rtx_defS0_S0_S0_S0_ @6003
    _Z16gen_cond_subv4diP7rtx_defS0_S0_S0_S0_ @6004
    _Z16gen_cond_subv4sfP7rtx_defS0_S0_S0_S0_ @6005
    _Z16gen_cond_subv4siP7rtx_defS0_S0_S0_S0_ @6006
    _Z16gen_cond_subv8dfP7rtx_defS0_S0_S0_S0_ @6007
    _Z16gen_cond_subv8diP7rtx_defS0_S0_S0_S0_ @6008
    _Z16gen_cond_subv8hfP7rtx_defS0_S0_S0_S0_ @6009
    _Z16gen_cond_subv8hiP7rtx_defS0_S0_S0_S0_ @6010
    _Z16gen_cond_subv8sfP7rtx_defS0_S0_S0_S0_ @6011
    _Z16gen_cond_subv8siP7rtx_defS0_S0_S0_S0_ @6012
    _Z16gen_cond_xorv2diP7rtx_defS0_S0_S0_S0_ @6013
    _Z16gen_cond_xorv4diP7rtx_defS0_S0_S0_S0_ @6014
    _Z16gen_cond_xorv4siP7rtx_defS0_S0_S0_S0_ @6015
    _Z16gen_cond_xorv8diP7rtx_defS0_S0_S0_S0_ @6016
    _Z16gen_cond_xorv8siP7rtx_defS0_S0_S0_S0_ @6017
    _Z16gen_fistdi2_ceilP7rtx_defS0_S0_S0_ @6018
    _Z16gen_fisthi2_ceilP7rtx_defS0_S0_S0_ @6019
    _Z16gen_fistsi2_ceilP7rtx_defS0_S0_S0_ @6020
    _Z16gen_fxamdf2_i387P7rtx_defS0_ @6021
    _Z16gen_fxamsf2_i387P7rtx_defS0_ @6022
    _Z16gen_fxamxf2_i387P7rtx_defS0_ @6023
    _Z16gen_lwp_llwpcbdiP7rtx_def @6024
    _Z16gen_lwp_llwpcbsiP7rtx_def @6025
    _Z16gen_lwp_lwpinsdiP7rtx_defS0_S0_ @6026
    _Z16gen_lwp_lwpinssiP7rtx_defS0_S0_ @6027
    _Z16gen_lwp_lwpvaldiP7rtx_defS0_S0_ @6028
    _Z16gen_lwp_lwpvalsiP7rtx_defS0_S0_ @6029
    _Z16gen_lwp_slwpcbdiP7rtx_def @6030
    _Z16gen_lwp_slwpcbsiP7rtx_def @6031
    _Z16gen_mfence_nosseP7rtx_def @6032
    _Z16gen_mmx_addv1di3P7rtx_defS0_S0_ @6033
    _Z16gen_mmx_addv2sf3P7rtx_defS0_S0_ @6034
    _Z16gen_mmx_addv2si3P7rtx_defS0_S0_ @6035
    _Z16gen_mmx_addv4hi3P7rtx_defS0_S0_ @6036
    _Z16gen_mmx_addv8qi3P7rtx_defS0_S0_ @6037
    _Z16gen_mmx_andv2si3P7rtx_defS0_S0_ @6038
    _Z16gen_mmx_andv4hi3P7rtx_defS0_S0_ @6039
    _Z16gen_mmx_andv8qi3P7rtx_defS0_S0_ @6040
    _Z16gen_mmx_blendvpsP7rtx_defS0_S0_S0_ @6041
    _Z16gen_mmx_iorv2si3P7rtx_defS0_S0_ @6042
    _Z16gen_mmx_iorv4hi3P7rtx_defS0_S0_ @6043
    _Z16gen_mmx_iorv8qi3P7rtx_defS0_S0_ @6044
    _Z16gen_mmx_maskmovqP7rtx_defS0_S0_ @6045
    _Z16gen_mmx_mulv2sf3P7rtx_defS0_S0_ @6046
    _Z16gen_mmx_mulv4hi3P7rtx_defS0_S0_ @6047
    _Z16gen_mmx_packssdwP7rtx_defS0_S0_ @6048
    _Z16gen_mmx_packsswbP7rtx_defS0_S0_ @6049
    _Z16gen_mmx_packusdwP7rtx_defS0_S0_ @6050
    _Z16gen_mmx_packuswbP7rtx_defS0_S0_ @6051
    _Z16gen_mmx_pmovmskbP7rtx_defS0_ @6052
    _Z16gen_mmx_ppermv32P7rtx_defS0_S0_S0_ @6053
    _Z16gen_mmx_ppermv64P7rtx_defS0_S0_S0_ @6054
    _Z16gen_mmx_pshufw_1P7rtx_defS0_S0_S0_S0_S0_ @6055
    _Z16gen_mmx_rcpv2sf2P7rtx_defS0_ @6056
    _Z16gen_mmx_subv1di3P7rtx_defS0_S0_ @6057
    _Z16gen_mmx_subv2sf3P7rtx_defS0_S0_ @6058
    _Z16gen_mmx_subv2si3P7rtx_defS0_S0_ @6059
    _Z16gen_mmx_subv4hi3P7rtx_defS0_S0_ @6060
    _Z16gen_mmx_subv8qi3P7rtx_defS0_S0_ @6061
    _Z16gen_mmx_xorv2si3P7rtx_defS0_S0_ @6062
    _Z16gen_mmx_xorv4hi3P7rtx_defS0_S0_ @6063
    _Z16gen_mmx_xorv8qi3P7rtx_defS0_S0_ @6064
    _Z16gen_movdi_to_sseP7rtx_defS0_ @6065
    _Z16gen_movdir64b_diP7rtx_defS0_ @6066
    _Z16gen_movdir64b_siP7rtx_defS0_ @6067
    _Z16gen_nearbyintdf2P7rtx_defS0_ @6068
    _Z16gen_nearbyinthf2P7rtx_defS0_ @6069
    _Z16gen_nearbyintsf2P7rtx_defS0_ @6070
    _Z16gen_nearbyintxf2P7rtx_defS0_ @6071
    _Z16gen_peephole2_10P8rtx_insnPP7rtx_def @6072
    _Z16gen_peephole2_11P8rtx_insnPP7rtx_def @6073
    _Z16gen_peephole2_12P8rtx_insnPP7rtx_def @6074
    _Z16gen_peephole2_13P8rtx_insnPP7rtx_def @6075
    _Z16gen_peephole2_14P8rtx_insnPP7rtx_def @6076
    _Z16gen_peephole2_15P8rtx_insnPP7rtx_def @6077
    _Z16gen_peephole2_16P8rtx_insnPP7rtx_def @6078
    _Z16gen_peephole2_17P8rtx_insnPP7rtx_def @6079
    _Z16gen_peephole2_18P8rtx_insnPP7rtx_def @6080
    _Z16gen_peephole2_19P8rtx_insnPP7rtx_def @6081
    _Z16gen_peephole2_20P8rtx_insnPP7rtx_def @6082
    _Z16gen_peephole2_21P8rtx_insnPP7rtx_def @6083
    _Z16gen_peephole2_22P8rtx_insnPP7rtx_def @6084
    _Z16gen_peephole2_23P8rtx_insnPP7rtx_def @6085
    _Z16gen_peephole2_24P8rtx_insnPP7rtx_def @6086
    _Z16gen_peephole2_25P8rtx_insnPP7rtx_def @6087
    _Z16gen_peephole2_26P8rtx_insnPP7rtx_def @6088
    _Z16gen_peephole2_27P8rtx_insnPP7rtx_def @6089
    _Z16gen_peephole2_28P8rtx_insnPP7rtx_def @6090
    _Z16gen_peephole2_29P8rtx_insnPP7rtx_def @6091
    _Z16gen_peephole2_30P8rtx_insnPP7rtx_def @6092
    _Z16gen_peephole2_31P8rtx_insnPP7rtx_def @6093
    _Z16gen_peephole2_32P8rtx_insnPP7rtx_def @6094
    _Z16gen_peephole2_33P8rtx_insnPP7rtx_def @6095
    _Z16gen_peephole2_34P8rtx_insnPP7rtx_def @6096
    _Z16gen_peephole2_35P8rtx_insnPP7rtx_def @6097
    _Z16gen_peephole2_36P8rtx_insnPP7rtx_def @6098
    _Z16gen_peephole2_37P8rtx_insnPP7rtx_def @6099
    _Z16gen_peephole2_38P8rtx_insnPP7rtx_def @6100
    _Z16gen_peephole2_39P8rtx_insnPP7rtx_def @6101
    _Z16gen_peephole2_40P8rtx_insnPP7rtx_def @6102
    _Z16gen_peephole2_41P8rtx_insnPP7rtx_def @6103
    _Z16gen_peephole2_42P8rtx_insnPP7rtx_def @6104
    _Z16gen_peephole2_43P8rtx_insnPP7rtx_def @6105
    _Z16gen_peephole2_44P8rtx_insnPP7rtx_def @6106
    _Z16gen_peephole2_45P8rtx_insnPP7rtx_def @6107
    _Z16gen_peephole2_46P8rtx_insnPP7rtx_def @6108
    _Z16gen_peephole2_47P8rtx_insnPP7rtx_def @6109
    _Z16gen_peephole2_48P8rtx_insnPP7rtx_def @6110
    _Z16gen_peephole2_49P8rtx_insnPP7rtx_def @6111
    _Z16gen_peephole2_50P8rtx_insnPP7rtx_def @6112
    _Z16gen_peephole2_51P8rtx_insnPP7rtx_def @6113
    _Z16gen_peephole2_52P8rtx_insnPP7rtx_def @6114
    _Z16gen_peephole2_53P8rtx_insnPP7rtx_def @6115
    _Z16gen_peephole2_54P8rtx_insnPP7rtx_def @6116
    _Z16gen_peephole2_55P8rtx_insnPP7rtx_def @6117
    _Z16gen_peephole2_56P8rtx_insnPP7rtx_def @6118
    _Z16gen_peephole2_57P8rtx_insnPP7rtx_def @6119
    _Z16gen_peephole2_58P8rtx_insnPP7rtx_def @6120
    _Z16gen_peephole2_59P8rtx_insnPP7rtx_def @6121
    _Z16gen_peephole2_60P8rtx_insnPP7rtx_def @6122
    _Z16gen_peephole2_61P8rtx_insnPP7rtx_def @6123
    _Z16gen_peephole2_62P8rtx_insnPP7rtx_def @6124
    _Z16gen_peephole2_63P8rtx_insnPP7rtx_def @6125
    _Z16gen_peephole2_64P8rtx_insnPP7rtx_def @6126
    _Z16gen_peephole2_65P8rtx_insnPP7rtx_def @6127
    _Z16gen_peephole2_66P8rtx_insnPP7rtx_def @6128
    _Z16gen_peephole2_67P8rtx_insnPP7rtx_def @6129
    _Z16gen_peephole2_68P8rtx_insnPP7rtx_def @6130
    _Z16gen_peephole2_69P8rtx_insnPP7rtx_def @6131
    _Z16gen_peephole2_70P8rtx_insnPP7rtx_def @6132
    _Z16gen_peephole2_71P8rtx_insnPP7rtx_def @6133
    _Z16gen_peephole2_72P8rtx_insnPP7rtx_def @6134
    _Z16gen_peephole2_73P8rtx_insnPP7rtx_def @6135
    _Z16gen_peephole2_74P8rtx_insnPP7rtx_def @6136
    _Z16gen_peephole2_75P8rtx_insnPP7rtx_def @6137
    _Z16gen_peephole2_76P8rtx_insnPP7rtx_def @6138
    _Z16gen_peephole2_77P8rtx_insnPP7rtx_def @6139
    _Z16gen_peephole2_78P8rtx_insnPP7rtx_def @6140
    _Z16gen_peephole2_79P8rtx_insnPP7rtx_def @6141
    _Z16gen_peephole2_80P8rtx_insnPP7rtx_def @6142
    _Z16gen_peephole2_81P8rtx_insnPP7rtx_def @6143
    _Z16gen_peephole2_82P8rtx_insnPP7rtx_def @6144
    _Z16gen_peephole2_83P8rtx_insnPP7rtx_def @6145
    _Z16gen_peephole2_84P8rtx_insnPP7rtx_def @6146
    _Z16gen_peephole2_85P8rtx_insnPP7rtx_def @6147
    _Z16gen_peephole2_86P8rtx_insnPP7rtx_def @6148
    _Z16gen_peephole2_87P8rtx_insnPP7rtx_def @6149
    _Z16gen_peephole2_88P8rtx_insnPP7rtx_def @6150
    _Z16gen_peephole2_89P8rtx_insnPP7rtx_def @6151
    _Z16gen_peephole2_90P8rtx_insnPP7rtx_def @6152
    _Z16gen_peephole2_91P8rtx_insnPP7rtx_def @6153
    _Z16gen_peephole2_92P8rtx_insnPP7rtx_def @6154
    _Z16gen_peephole2_93P8rtx_insnPP7rtx_def @6155
    _Z16gen_peephole2_94P8rtx_insnPP7rtx_def @6156
    _Z16gen_peephole2_95P8rtx_insnPP7rtx_def @6157
    _Z16gen_peephole2_96P8rtx_insnPP7rtx_def @6158
    _Z16gen_peephole2_97P8rtx_insnPP7rtx_def @6159
    _Z16gen_peephole2_98P8rtx_insnPP7rtx_def @6160
    _Z16gen_peephole2_99P8rtx_insnPP7rtx_def @6161
    _Z16gen_prologue_useP7rtx_def @6162
    _Z16gen_rdtscp_rex64P7rtx_defS0_S0_ @6163
    _Z16gen_remainderdf3P7rtx_defS0_S0_ @6164
    _Z16gen_remaindersf3P7rtx_defS0_S0_ @6165
    _Z16gen_remainderxf3P7rtx_defS0_S0_ @6166
    _Z16gen_roundevendf2P7rtx_defS0_ @6167
    _Z16gen_roundevenhf2P7rtx_defS0_ @6168
    _Z16gen_roundevensf2P7rtx_defS0_ @6169
    _Z16gen_roundevenxf2P7rtx_defS0_ @6170
    _Z16gen_setcc_df_sseP7rtx_defS0_S0_S0_ @6171
    _Z16gen_setcc_sf_sseP7rtx_defS0_S0_S0_ @6172
    _Z16gen_signbitv2sf2P7rtx_defS0_ @6173
    _Z16gen_signbitv4sf2P7rtx_defS0_ @6174
    _Z16gen_signbitv8sf2P7rtx_defS0_ @6175
    _Z16gen_smulhrsv2hi3P7rtx_defS0_S0_ @6176
    _Z16gen_smulhrsv4hi3P7rtx_defS0_S0_ @6177
    _Z16gen_smulhrsv8hi3P7rtx_defS0_S0_ @6178
    _Z16gen_spaceshipdf3P7rtx_defS0_S0_ @6179
    _Z16gen_spaceshipsf3P7rtx_defS0_S0_ @6180
    _Z16gen_spaceshipxf3P7rtx_defS0_S0_ @6181
    _Z16gen_sse2_clflushP7rtx_def @6182
    _Z16gen_sse2_loadhpdP7rtx_defS0_S0_ @6183
    _Z16gen_sse2_loadlpdP7rtx_defS0_S0_ @6184
    _Z16gen_sse2_movq128P7rtx_defS0_ @6185
    _Z16gen_sse2_pinsrphP7rtx_defS0_S0_S0_ @6186
    _Z16gen_sse2_pmaddwdP7rtx_defS0_S0_ @6187
    _Z16gen_sse2_pshufhwP7rtx_defS0_S0_ @6188
    _Z16gen_sse2_pshuflwP7rtx_defS0_S0_ @6189
    _Z16gen_sse4a_extrqiP7rtx_defS0_S0_S0_ @6190
    _Z16gen_sse_cvtpi2psP7rtx_defS0_S0_ @6191
    _Z16gen_sse_cvtps2piP7rtx_defS0_ @6192
    _Z16gen_sse_cvtsi2ssP7rtx_defS0_S0_ @6193
    _Z16gen_sse_cvtss2siP7rtx_defS0_ @6194
    _Z16gen_sse_divv4sf3P7rtx_defS0_S0_ @6195
    _Z16gen_sse_movmskpsP7rtx_defS0_ @6196
    _Z16gen_sse_rcpv4sf2P7rtx_defS0_ @6197
    _Z16gen_sse_storehpsP7rtx_defS0_ @6198
    _Z16gen_sse_storelpsP7rtx_defS0_ @6199
    _Z16gen_storentv16sfP7rtx_defS0_ @6200
    _Z16gen_subdi3_carryP7rtx_defS0_S0_S0_S0_ @6201
    _Z16gen_subhi3_carryP7rtx_defS0_S0_S0_S0_ @6202
    _Z16gen_subqi3_carryP7rtx_defS0_S0_S0_S0_ @6203
    _Z16gen_subsi3_carryP7rtx_defS0_S0_S0_S0_ @6204
    _Z16gen_testqi_ccz_1P7rtx_defS0_ @6205
    _Z16gen_tpause_rex64P7rtx_defS0_S0_ @6206
    _Z16gen_udivmoddi4_1P7rtx_defS0_S0_S0_ @6207
    _Z16gen_udivmodhiqi3P7rtx_defS0_S0_ @6208
    _Z16gen_udivmodsi4_1P7rtx_defS0_S0_S0_ @6209
    _Z16gen_umwait_rex64P7rtx_defS0_S0_ @6210
    _Z16gen_untyped_callP7rtx_defS0_S0_ @6211
    _Z16gen_vcvtph2ps256P7rtx_defS0_ @6212
    _Z16gen_vcvtps2ph256P7rtx_defS0_S0_ @6213
    _Z16gen_vec_permv2dfP7rtx_defS0_S0_S0_ @6214
    _Z16gen_vec_permv2diP7rtx_defS0_S0_S0_ @6215
    _Z16gen_vec_permv4dfP7rtx_defS0_S0_S0_ @6216
    _Z16gen_vec_permv4diP7rtx_defS0_S0_S0_ @6217
    _Z16gen_vec_permv4sfP7rtx_defS0_S0_S0_ @6218
    _Z16gen_vec_permv4siP7rtx_defS0_S0_S0_ @6219
    _Z16gen_vec_permv8dfP7rtx_defS0_S0_S0_ @6220
    _Z16gen_vec_permv8diP7rtx_defS0_S0_S0_ @6221
    _Z16gen_vec_permv8hfP7rtx_defS0_S0_S0_ @6222
    _Z16gen_vec_permv8hiP7rtx_defS0_S0_S0_ @6223
    _Z16gen_vec_permv8sfP7rtx_defS0_S0_S0_ @6224
    _Z16gen_vec_permv8siP7rtx_defS0_S0_S0_ @6225
    _Z16gen_vec_setv16hfP7rtx_defS0_S0_ @6226
    _Z16gen_vec_setv16hiP7rtx_defS0_S0_ @6227
    _Z16gen_vec_setv16qiP7rtx_defS0_S0_ @6228
    _Z16gen_vec_setv16sfP7rtx_defS0_S0_ @6229
    _Z16gen_vec_setv16siP7rtx_defS0_S0_ @6230
    _Z16gen_vec_setv32hfP7rtx_defS0_S0_ @6231
    _Z16gen_vec_setv32hiP7rtx_defS0_S0_ @6232
    _Z16gen_vec_setv32qiP7rtx_defS0_S0_ @6233
    _Z16gen_vec_setv64qiP7rtx_defS0_S0_ @6234
    _Z16gen_vec_shl_v2dfP7rtx_defS0_S0_ @6235
    _Z16gen_vec_shl_v2diP7rtx_defS0_S0_ @6236
    _Z16gen_vec_shl_v4sfP7rtx_defS0_S0_ @6237
    _Z16gen_vec_shl_v4siP7rtx_defS0_S0_ @6238
    _Z16gen_vec_shl_v8hiP7rtx_defS0_S0_ @6239
    _Z16gen_vec_shr_v2dfP7rtx_defS0_S0_ @6240
    _Z16gen_vec_shr_v2diP7rtx_defS0_S0_ @6241
    _Z16gen_vec_shr_v4sfP7rtx_defS0_S0_ @6242
    _Z16gen_vec_shr_v4siP7rtx_defS0_S0_ @6243
    _Z16gen_vec_shr_v8hiP7rtx_defS0_S0_ @6244
    _Z16gen_vpshld_v16hiP7rtx_defS0_S0_S0_ @6245
    _Z16gen_vpshld_v16siP7rtx_defS0_S0_S0_ @6246
    _Z16gen_vpshld_v32hiP7rtx_defS0_S0_S0_ @6247
    _Z16gen_vpshldv_v2diP7rtx_defS0_S0_S0_ @6248
    _Z16gen_vpshldv_v4diP7rtx_defS0_S0_S0_ @6249
    _Z16gen_vpshldv_v4siP7rtx_defS0_S0_S0_ @6250
    _Z16gen_vpshldv_v8diP7rtx_defS0_S0_S0_ @6251
    _Z16gen_vpshldv_v8hiP7rtx_defS0_S0_S0_ @6252
    _Z16gen_vpshldv_v8siP7rtx_defS0_S0_S0_ @6253
    _Z16gen_vpshrd_v16hiP7rtx_defS0_S0_S0_ @6254
    _Z16gen_vpshrd_v16siP7rtx_defS0_S0_S0_ @6255
    _Z16gen_vpshrd_v32hiP7rtx_defS0_S0_S0_ @6256
    _Z16gen_vpshrdv_v2diP7rtx_defS0_S0_S0_ @6257
    _Z16gen_vpshrdv_v4diP7rtx_defS0_S0_S0_ @6258
    _Z16gen_vpshrdv_v4siP7rtx_defS0_S0_S0_ @6259
    _Z16gen_vpshrdv_v8diP7rtx_defS0_S0_S0_ @6260
    _Z16gen_vpshrdv_v8hiP7rtx_defS0_S0_S0_ @6261
    _Z16gen_vpshrdv_v8siP7rtx_defS0_S0_S0_ @6262
    _Z16gen_x86_fnstcw_1P7rtx_def @6263
    _Z16gen_x86_fnstsw_1P7rtx_def @6264
    _Z16gen_xgetbv_rex64P7rtx_defS0_S0_ @6265
    _Z16gen_xop_phaddubdP7rtx_defS0_ @6266
    _Z16gen_xop_phaddubqP7rtx_defS0_ @6267
    _Z16gen_xop_phaddubwP7rtx_defS0_ @6268
    _Z16gen_xop_phaddudqP7rtx_defS0_ @6269
    _Z16gen_xop_phadduwdP7rtx_defS0_ @6270
    _Z16gen_xop_phadduwqP7rtx_defS0_ @6271
    _Z16gen_xop_pmacsdqhP7rtx_defS0_S0_S0_ @6272
    _Z16gen_xop_pmacsdqlP7rtx_defS0_S0_S0_ @6273
    _Z16gen_xop_pmacssddP7rtx_defS0_S0_S0_ @6274
    _Z16gen_xop_pmacsswdP7rtx_defS0_S0_S0_ @6275
    _Z16gen_xop_pmacsswwP7rtx_defS0_S0_S0_ @6276
    _Z16gen_xop_pmadcswdP7rtx_defS0_S0_S0_ @6277
    _Z16gen_xop_shav2di3P7rtx_defS0_S0_ @6278
    _Z16gen_xop_shav4si3P7rtx_defS0_S0_ @6279
    _Z16gen_xop_shav8hi3P7rtx_defS0_S0_ @6280
    _Z16gen_xop_shlv2di3P7rtx_defS0_S0_ @6281
    _Z16gen_xop_shlv4si3P7rtx_defS0_S0_ @6282
    _Z16gen_xop_shlv8hi3P7rtx_defS0_S0_ @6283
    _Z16gen_xorsignv2df3P7rtx_defS0_S0_ @6284
    _Z16gen_xorsignv2sf3P7rtx_defS0_S0_ @6285
    _Z16gen_xorsignv4df3P7rtx_defS0_S0_ @6286
    _Z16gen_xorsignv4sf3P7rtx_defS0_S0_ @6287
    _Z16gen_xorsignv8df3P7rtx_defS0_S0_ @6288
    _Z16gen_xorsignv8hf3P7rtx_defS0_S0_ @6289
    _Z16gen_xorsignv8sf3P7rtx_defS0_S0_ @6290
    _Z16gen_xrstor_rex64P7rtx_defS0_S0_ @6291
    _Z16gen_xsavec_rex64P7rtx_defS0_S0_ @6292
    _Z16gen_xsaves_rex64P7rtx_defS0_S0_ @6293
    _Z16gen_xsetbv_rex64P7rtx_defS0_S0_ @6294
    _Z16generic_simplifyj9tree_codeP9tree_nodeS1_ @6295
    _Z16generic_simplifyj9tree_codeP9tree_nodeS1_S1_ @6296
    _Z16generic_simplifyj9tree_codeP9tree_nodeS1_S1_S1_ @6297
    _Z16generic_simplifyj9tree_codeP9tree_nodeS1_S1_S1_S1_ @6298
    _Z16generic_simplifyj9tree_codeP9tree_nodeS1_S1_S1_S1_S1_ @6299
    _Z16get_address_modeP7rtx_def @6300
    _Z16get_attr_enabledP8rtx_insn @6301
    _Z16get_attr_i387_cwP8rtx_insn @6302
    _Z16get_attr_mmx_isaP8rtx_insn @6303
    _Z16get_base_addressP9tree_node @6304
    _Z16get_dominated_by13cdi_directionP15basic_block_def @6305
    _Z16get_integer_termPK7rtx_def @6306
    _Z16get_ix86_builtin13ix86_builtins @6307
    _Z16get_last_bb_insnP15basic_block_def @6308
    _Z16get_lsm_tmp_nameP9tree_nodejPKc @6309
    _Z16get_max_value_idv @6310
    _Z16get_node_of_insnP3ddgP8rtx_insn @6311
    _Z16get_nonnull_argsPK9tree_node @6312
    _Z16get_nonzero_bitsPK9tree_node @6313
    _Z16get_option_stateP11gcc_optionsiP15cl_option_state @6314
    _Z16get_range_strlenP9tree_nodeP13c_strlen_dataj @6315
    _Z16get_variant_partP9tree_node @6316
    _Z16ggc_alloc_stringPKci @6317
    _Z16gimple_build_nopv @6318
    _Z16gimple_build_tryP6gimpleS0_16gimple_try_flags @6319
    _Z16gimple_build_wceP6gimple @6320
    _Z16gimple_debug_cfg9dump_flag @6321
    _Z16gimple_max_valueP9tree_nodePFS0_S0_E @6322
    _Z16gimple_min_valueP9tree_nodePFS0_S0_E @6323
    _Z16gimple_move_vopsP6gimpleS0_ @6324
    _Z16gimplify_and_addP9tree_nodePP6gimple @6325
    _Z16gnat_init_gcc_ehv @6326
    _Z16gnat_init_gcc_fpv @6327
    _Z16gnat_to_gnu_typei @6328
    _Z16gsi_insert_afterP20gimple_stmt_iteratorP6gimple19gsi_iterator_update @6329
    _Z16gt_ggc_mx_gimplePv @6330
    _Z16gt_pch_nx_gimplePv @6331
    _Z16gt_pch_p_6gimplePvS_PFvS_S_S_ES_ @6332
    _Z16haifa_init_h_i_dRK3vecIP15basic_block_def7va_heap6vl_ptrE @6333
    _Z16haifa_sched_initv @6334
    _Z16has_dependence_pP5_exprP8rtx_insnPPj @6335
    _Z16hash_table_usagev @6336
    _Z16hook_uint_mode_012machine_mode @6337
    _Z16hook_uint_void_0v @6338
    _Z16hook_void_bitmapP11bitmap_head @6339
    _Z16hwasan_memintrinv @6340
    _Z16i386_pe_file_endv @6341
    _Z16i386_pe_seh_initP6_iobuf @6342
    _Z16if_test_bypass_pP8rtx_insnS0_ @6343
    _Z16indirect_operandP7rtx_def12machine_mode @6344
    _Z16init_branch_probv @6345
    _Z16init_caller_savev @6346
    _Z16init_deps_globalv @6347
    _Z16init_expr_targetv @6348
    _Z16init_inline_oncev @6349
    _Z16init_one_libfuncPKc @6350
    _Z16init_range_entryP11range_entryP9tree_nodeP6gimple @6351
    _Z16init_rtl_bb_infoP15basic_block_def @6352
    _Z16init_sched_attrsv @6353
    _Z16init_varasm_oncev @6354
    _Z16inline_transformP11cgraph_node @6355
    _Z16inlining_speedupP11cgraph_edge5srealS1_S1_ @6356
    _Z16insn_defines_regjjP8rtx_insn @6357
    _Z16instantiate_scevP8edge_defP4loopP9tree_node @6358
    _Z16integer_nonzeropPK9tree_node @6359
    _Z16ipa_analyze_nodeP11cgraph_node @6360
    _Z16ira_debug_copiesv @6361
    _Z16is_gimple_lvalueP9tree_node @6362
    _Z16is_setjmp_call_pPK5gcall @6363
    _Z16iv_analysis_donev @6364
    _Z16ix86_adjust_costP8rtx_insniS0_ij @6365
    _Z16ix86_expand_callP7rtx_defS0_S0_S0_S0_b @6366
    _Z16ix86_expand_move12machine_modePP7rtx_def @6367
    _Z16ix86_expand_rintP7rtx_defS0_ @6368
    _Z16ix86_get_callcvtPK9tree_node @6369
    _Z16keep_with_call_pPK8rtx_insn @6370
    _Z16known_subrange_pI8poly_intILj1ExES1_S1_S0_ILj1E16generic_wide_intI22fixed_wide_int_storageILi128EEEEEbRKT_RKT0_RKT1_RKT2_ @6371
    _Z16known_subrange_pI8poly_intILj1ExES1_S1_S1_EbRKT_RKT0_RKT1_RKT2_ @6372
    _Z16lang_GNU_Fortranv @6373
    _Z16later_of_the_two20gimple_stmt_iteratorS_ @6374
    _Z16lhd_do_nothing_fP8function @6375
    _Z16lhd_do_nothing_tP9tree_node @6376
    _Z16lhd_expr_to_declP9tree_nodePbS1_ @6377
    _Z16lhd_init_optionsjP17cl_decoded_option @6378
    _Z16lhd_omp_scalar_pP9tree_nodeb @6379
    _Z16lhd_post_optionsPPKc @6380
    _Z16line_map_new_rawP9line_mapsbj @6381
    _Z16loop_exit_edge_pPK4loopPK8edge_def @6382
    _Z16loop_only_exit_pPK4loopPP15basic_block_defPK8edge_def @6383
    _Z16lto_append_blockP17lto_output_stream @6384
    _Z16lto_input_tree_1P15lto_input_blockP7data_in8LTO_tagsj @6385
    _Z16lto_set_in_hooksPP18lto_file_decl_dataPFPKcS0_16lto_section_typeS3_iPyEPFvS0_S4_S3_S3_yE @6386
    _Z16lto_write_streamP17lto_output_stream @6387
    _Z16make_pass_cd_dcePN3gcc7contextE @6388
    _Z16make_pass_cselimPN3gcc7contextE @6389
    _Z16make_pass_expandPN3gcc7contextE @6390
    _Z16make_pass_ipa_cpPN3gcc7contextE @6391
    _Z16make_pass_ipa_tmPN3gcc7contextE @6392
    _Z16make_pass_modrefPN3gcc7contextE @6393
    _Z16make_pass_phioptPN3gcc7contextE @6394
    _Z16make_pass_reloadPN3gcc7contextE @6395
    _Z16make_pass_sancovPN3gcc7contextE @6396
    _Z16make_pass_sanoptPN3gcc7contextE @6397
    _Z16make_pass_sched2PN3gcc7contextE @6398
    _Z16make_pass_stdargPN3gcc7contextE @6399
    _Z16make_pass_strlenPN3gcc7contextE @6400
    _Z16make_pass_tracerPN3gcc7contextE @6401
    _Z16make_signed_typei @6402
    _Z16make_ssa_name_fnP8functionP9tree_nodeP6gimplej @6403
    _Z16mark_addressableP9tree_node @6404
    _Z16mark_eliminationii @6405
    _Z16mark_reg_pointerP7rtx_defi @6406
    _Z16mask_reg_operandP7rtx_def12machine_mode @6407
    _Z16masked_incrementRK16generic_wide_intI16wide_int_storageES3_S3_j @6408
    _Z16maybe_gen_clzero12machine_modeP7rtx_def @6409
    _Z16maybe_gen_enqcmdi12machine_modeP7rtx_defS1_ @6410
    _Z16maybe_gen_incssp12machine_modeP7rtx_def @6411
    _Z16maybe_gen_insv_112machine_modeP7rtx_defS1_ @6412
    _Z16maybe_gen_rdrand12machine_modeP7rtx_def @6413
    _Z16maybe_gen_rdseed12machine_modeP7rtx_def @6414
    _Z16maybe_hot_edge_pP8edge_def @6415
    _Z16maybe_in_range_pI8poly_intILj1E16generic_wide_intI22fixed_wide_int_storageILi128EEEES0_ILj1ExES6_EbRKT_RKT0_RKT1_ @6416
    _Z16maybe_in_range_pI8poly_intILj1E16generic_wide_intI22fixed_wide_int_storageILi128EEEES5_S0_ILj1ExEEbRKT_RKT0_RKT1_ @6417
    _Z16maybe_in_range_pI8poly_intILj1E16generic_wide_intI22fixed_wide_int_storageILi128EEEES5_S0_ILj1EyEEbRKT_RKT0_RKT1_ @6418
    _Z16mem_expr_equal_pPK9tree_nodeS1_ @6419
    _Z16memory_move_cost12machine_modeib @6420
    _Z16merge_attributesP9tree_nodeS0_ @6421
    _Z16mingw_ansi_fputsPKcP6_iobuf @6422
    _Z16move_block_afterP15basic_block_defS0_ @6423
    _Z16must_pass_by_refP9tree_node @6424
    _Z16nb_vars_in_chrecP9tree_node @6425
    _Z16next_active_insnP8rtx_insn @6426
    _Z16no_asm_to_streamP6_iobuf @6427
    _Z16normalize_offsetPP9tree_nodeS1_j @6428
    _Z16num_ending_zerosPK9tree_node @6429
    _Z16oacc_get_min_dimi @6430
    _Z16oacc_launch_packjP9tree_nodej @6431
    _Z16odr_based_tbaa_pPK9tree_node @6432
    _Z16omp_expand_localP15basic_block_def @6433
    _Z16omp_free_regionsv @6434
    _Z16operands_match_pP7rtx_defS0_ @6435
    _Z16output_asm_labelP7rtx_def @6436
    _Z16output_fix_truncP8rtx_insnPP7rtx_defb @6437
    _Z16peep2_reg_dead_piP7rtx_def @6438
    _Z16plugins_active_pv @6439
    _Z16pp_gimple_stmt_1P14pretty_printerPK6gimplei9dump_flag @6440
    _Z16pp_separate_withP14pretty_printerc @6441
    _Z16pre_edge_lcm_avsiPP17simple_bitmap_defS1_S1_S1_S1_S1_PS1_S2_ @6442
    _Z16pre_edge_rev_lcmiPP17simple_bitmap_defS1_S1_S1_PS1_S2_ @6443
    _Z16predict_edge_defP8edge_def12br_predictor10prediction @6444
    _Z16predict_insn_defP8rtx_insn12br_predictor10prediction @6445
    _Z16present_gnu_treei @6446
    _Z16prev_active_insnP8rtx_insn @6447
    _Z16print_gimple_seqP6_iobufP6gimplei9dump_flag @6448
    _Z16print_inline_rtxP6_iobufPK7rtx_defi @6449
    _Z16print_lto_reportPKc @6450
    _Z16print_node_briefP6_iobufPKcPK9tree_nodei @6451
    _Z16print_pbb_domainP6_iobufP7poly_bb @6452
    _Z16print_rtl_singleP6_iobufPK7rtx_def @6453
    _Z16print_simple_rtlP6_iobufPK7rtx_def @6454
    _Z16promote_ssa_modePK9tree_nodePi @6455
    _Z16purge_dead_edgesP15basic_block_def @6456
    _Z16push_to_sequenceP8rtx_insn @6457
    _Z16range_check_typeP9tree_node @6458
    _Z16range_op_handler9tree_codeP9tree_node @6459
    _Z16real_from_stringP10real_valuePKc @6460
    _Z16real_from_targetP10real_valuePKl13format_helper @6461
    _Z16record_stmt_costP3vecI18stmt_info_for_cost7va_heap6vl_ptrEi18vect_cost_for_stmt24vect_cost_model_location @6462
    _Z16record_stmt_costP3vecI18stmt_info_for_cost7va_heap6vl_ptrEi18vect_cost_for_stmtP14_stmt_vec_infoP9tree_nodei24vect_cost_model_location @6463
    _Z16record_stmt_costP3vecI18stmt_info_for_cost7va_heap6vl_ptrEi18vect_cost_for_stmtP9_slp_treeP9tree_nodei24vect_cost_model_location @6464
    _Z16record_vars_intoP9tree_nodeS0_ @6465
    _Z16recursive_call_pP9tree_nodeS0_ @6466
    _Z16redirect_eh_edgeP8edge_defP15basic_block_def @6467
    _Z16refs_may_alias_pP9tree_nodeS0_b @6468
    _Z16reg_fits_class_pPK7rtx_defii12machine_mode @6469
    _Z16reg_or_0_operandP7rtx_def12machine_mode @6470
    _Z16reg_referenced_pPK7rtx_defS1_ @6471
    _Z16register_operandP7rtx_def12machine_mode @6472
    _Z16regrename_finishv @6473
    _Z16remove_attributePKcP9tree_node @6474
    _Z16remove_from_depsP9deps_descP8rtx_insn @6475
    _Z16remove_list_elemP7rtx_defPS0_ @6476
    _Z16remove_phi_nodesP15basic_block_def @6477
    _Z16rescan_loop_exitP8edge_defbb @6478
    _Z16reset_debug_usesP6gimple @6479
    _Z16reset_node_cacheP11cgraph_node @6480
    _Z16reset_used_flagsP7rtx_def @6481
    _Z16restore_multipleP7rtx_def12machine_mode @6482
    _Z16rgn_setup_regioni @6483
    _Z16rtl_make_eh_edgeP17simple_bitmap_defP15basic_block_defP7rtx_def @6484
    _Z16rtl_predict_edgeP8edge_def12br_predictori @6485
    _Z16rtx_alloc_stat_v8rtx_codei @6486
    _Z16rtx_referenced_pPK7rtx_defS1_ @6487
    _Z16rtx_to_tree_code8rtx_code @6488
    _Z16sched_init_luidsRK3vecIP15basic_block_def7va_heap6vl_ptrE @6489
    _Z16sched_rgn_finishv @6490
    _Z16sd_lists_empty_pPK7rtx_defi @6491
    _Z16sd_unresolve_dep12_sd_iterator @6492
    _Z16sel_sched_regioni @6493
    _Z16set_comdat_groupP11symtab_nodePv @6494
    _Z16set_conv_libfunc9optab_tag12machine_modeS0_PKc @6495
    _Z16set_dst_reg_noteP7rtx_def8reg_noteS0_S0_ @6496
    _Z16set_insn_deletedP8rtx_insn @6497
    _Z16set_nonzero_bitsP9tree_nodeRK16generic_wide_intI20wide_int_ref_storageILb0ELb1EEE @6498
    _Z16set_readonly_bitP12varpool_nodePv @6499
    _Z16set_source_rangeP9tree_node12source_range @6500
    _Z16set_source_rangeP9tree_nodejj @6501
    _Z16set_strlen_rangeP9tree_node16generic_wide_intI16wide_int_storageES3_S0_ @6502
    _Z16setup_save_areasv @6503
    _Z16setup_sched_dumpv @6504
    _Z16shallow_copy_rtxPK7rtx_def @6505
    _Z16shorten_branchesP8rtx_insn @6506
    _Z16signed_condition8rtx_code @6507
    _Z16significand_size13format_helper @6508
    _Z16simple_cst_equalPK9tree_nodeS1_ @6509
    _Z16simple_regno_setP7rtx_defj @6510
    _Z16single_imm_use_1PK17ssa_use_operand_tPPS_PP6gimple @6511
    _Z16sort_case_labelsR3vecIP9tree_node7va_heap6vl_ptrE @6512
    _Z16split_comparison8rtx_code12machine_modePS_S1_ @6513
    _Z16start_stmt_groupv @6514
    _Z16state_transitionPvP7rtx_def @6515
    _Z16stmt_kills_ref_pP6gimpleP6ao_ref @6516
    _Z16stmt_kills_ref_pP6gimpleP9tree_node @6517
    _Z16str_pattern_slimPK7rtx_def @6518
    _Z16strip_off_endingPci @6519
    _Z16subreg_lowpart_pPK7rtx_def @6520
    _Z16suppress_warningP6gimple8opt_codeb @6521
    _Z16suppress_warningP9tree_node8opt_codeb @6522
    _Z16symbolic_operandP7rtx_def12machine_mode @6523
    _Z16tls_referenced_pPK7rtx_def @6524
    _Z16tree_cc_finalizev @6525
    _Z16tree_fits_shwi_pPK9tree_node @6526
    _Z16tree_fits_uhwi_pPK9tree_node @6527
    _Z16tree_int_cst_sgnPK9tree_node @6528
    _Z16tree_invariant_pP9tree_node @6529
    _Z16tree_map_base_eqPKvS0_ @6530
    _Z16tree_nop_convertP9tree_nodePS0_ @6531
    _Z16tree_unroll_loopP4loopjP15tree_niter_desc @6532
    _Z16tree_vec_extractP20gimple_stmt_iteratorP9tree_nodeS2_S2_S2_ @6533
    _Z16tsan_finish_filev @6534
    _Z16uniform_vector_pPK9tree_node @6535
    _Z16unlink_stmt_vdefP6gimple @6536
    _Z16unsplit_eh_edgesv @6537
    _Z16vect_analyze_slpP8vec_infoj @6538
    _Z16vect_init_vectorP8vec_infoP14_stmt_vec_infoP9tree_nodeS4_P20gimple_stmt_iterator @6539
    _Z16vector_type_modePK9tree_node @6540
    _Z16vectorizable_phiP8vec_infoP14_stmt_vec_infoPP6gimpleP9_slp_treeP3vecI18stmt_info_for_cost7va_heap6vl_ptrE @6541
    _Z16verify_edge_listP6_iobufP9edge_list @6542
    _Z16verify_flow_infov @6543
    _Z16verify_imm_linksP6_iobufP9tree_node @6544
    _Z16vn_get_stmt_kindP6gimple @6545
    _Z16vn_nary_may_trapP12vn_nary_op_s @6546
    _Z16vn_nary_simplifyP12vn_nary_op_s @6547
    _Z16vzeroall_patternP7rtx_def12machine_mode @6548
    _Z16walk_gimple_stmtP20gimple_stmt_iteratorPFP9tree_nodeS0_PbP14walk_stmt_infoEPFS2_PS2_PiPvES5_ @6549
    _Z16wide_int_to_treeP9tree_nodeRK8poly_intILj1E16generic_wide_intI20wide_int_ref_storageILb0ELb1EEEE @6550
    _Z17add_parallel_typeP9tree_nodeS0_ @6551
    _Z17add_stmt_to_eh_lpP6gimplei @6552
    _Z17aggregate_value_pPK9tree_nodeS1_ @6553
    _Z17alloc_sched_poolsv @6554
    _Z17allocate_decl_uidv @6555
    _Z17announce_functionP9tree_node @6556
    _Z17anti_adjust_stackP7rtx_def @6557
    _Z17any_QIreg_operandP7rtx_def12machine_mode @6558
    _Z17arg_size_in_bytesPK9tree_node @6559
    _Z17assemble_externalP9tree_node @6560
    _Z17assemble_name_rawP6_iobufPKc @6561
    _Z17assemble_variableP9tree_nodeiii @6562
    _Z17assign_stack_temp12machine_mode8poly_intILj1ExE @6563
    _Z17bitmap_count_bitsPK11bitmap_head @6564
    _Z17bitmap_count_bitsPK17simple_bitmap_def @6565
    _Z17break_superblocksv @6566
    _Z17bss_initializer_pPK9tree_nodeb @6567
    _Z17build_atomic_loadP9tree_nodeb @6568
    _Z17build_call_n_exprP9tree_nodeiz @6569
    _Z17build_call_valistP9tree_nodeS0_iPc @6570
    _Z17build_complex_infP9tree_nodeb @6571
    _Z17build_constructorP9tree_nodeP3vecI15constructor_elt5va_gc8vl_embedE @6572
    _Z17build_method_typeP9tree_nodeS0_ @6573
    _Z17build_nt_call_vecP9tree_nodeP3vecIS0_5va_gc8vl_embedE @6574
    _Z17build_offset_typeP9tree_nodeS0_ @6575
    _Z17build_range_checkjP9tree_nodeS0_iS0_S0_ @6576
    _Z17build_uniform_cstP9tree_nodeS0_ @6577
    _Z17build_vector_typeP9tree_node8poly_intILj1ExE @6578
    _Z17cache_integer_cstP9tree_nodeb @6579
    _Z17call_insn_operandP7rtx_def12machine_mode @6580
    _Z17can_atomic_load_p12machine_mode @6581
    _Z17can_nonlocal_gotoPK8rtx_insn @6582
    _Z17can_unroll_loop_pP4loopjP15tree_niter_desc @6583
    _Z17canon_list_insertP7rtx_defPKS_Pv @6584
    _Z17canonicalize_code11code_helperP9tree_node @6585
    _Z17check_for_inc_decP8rtx_insn @6586
    _Z17choose_multiplieryiiPyPiS0_ @6587
    _Z17chrec_convert_rhsP9tree_nodeS0_P6gimple @6588
    _Z17clean_symbol_namePc @6589
    _Z17clear_block_marksP9tree_node @6590
    _Z17coalesce_ssa_nameP8_var_map @6591
    _Z17compute_availablePP17simple_bitmap_defS1_S1_S1_ @6592
    _Z17compute_live_varsP8functionP8hash_mapI8int_hashIjLj4294967295ELj4294967295EEj21simple_hashmap_traitsI19default_hash_traitsIS3_EjEE @6593
    _Z17concat_note_listsP8rtx_insnPS0_ @6594
    _Z17cond_only_block_pP15basic_block_def @6595
    _Z17const1248_operandP7rtx_def12machine_mode @6596
    _Z17const2367_operandP7rtx_def12machine_mode @6597
    _Z17const_int_operandP7rtx_def12machine_mode @6598
    _Z17convert_to_vectorP9tree_nodeS0_ @6599
    _Z17copy_replacementsP7rtx_defS0_ @6600
    _Z17count_index_addrsPP16addr_table_entryPj @6601
    _Z17count_occurrencesPK7rtx_defS1_i @6602
    _Z17count_string_cstsPP24constant_descriptor_treePy @6603
    _Z17cpp_create_reader6c_langP2htP9line_maps @6604
    _Z17cpp_define_lazilyP10cpp_readerP12cpp_hashnodej @6605
    _Z17cpp_define_unusedP10cpp_readerPKc @6606
    _Z17cpp_get_callbacksP10cpp_reader @6607
    _Z17cpp_init_builtinsP10cpp_readeri @6608
    _Z17cpp_pedwarning_atP10cpp_reader18cpp_warning_reasonP13rich_locationPKcz @6609
    _Z17cpp_scan_nooutputP10cpp_reader @6610
    _Z17cpp_set_callbacksP10cpp_readerP13cpp_callbacks @6611
    _Z17cpp_token_as_textP10cpp_readerPK9cpp_token @6612
    _Z17create_field_declP9tree_nodeS0_S0_S0_S0_ii @6613
    _Z17create_index_typeP9tree_nodeS0_S0_i @6614
    _Z17create_label_declP9tree_nodei @6615
    _Z17create_param_declP9tree_nodeS0_ @6616
    _Z17create_preheadersi @6617
    _Z17create_range_typeP9tree_nodeS0_S0_ @6618
    _Z17create_tmp_reg_fnP8functionP9tree_nodePKc @6619
    _Z17cxx11_attribute_pPK9tree_node @6620
    _Z17debug_bitmap_fileP6_iobufPK11bitmap_head @6621
    _Z17debug_constraintsv @6622
    _Z17debug_gimple_stmtP6gimple @6623
    _Z17debug_nothing_intj @6624
    _Z17debug_range_entryP11range_entry @6625
    _Z17debug_scop_paramsP4scop @6626
    _Z17debug_scope_blockP9tree_node9dump_flag @6627
    _Z17debug_seed_rangerR13gimple_ranger @6628
    _Z17debug_var_infos_rPP8var_infoP6_iobuf @6629
    _Z17decl_comdat_groupPK9tree_node @6630
    _Z17decl_section_namePK9tree_node @6631
    _Z17decl_type_contextPK9tree_node @6632
    _Z17decode_decimal128PK11real_formatP10real_valuePKl @6633
    _Z17decompose_addressP12address_infoPP7rtx_def12machine_modeh8rtx_code @6634
    _Z17delete_insn_chainP7rtx_defP8rtx_insnb @6635
    _Z17delete_update_ssav @6636
    _Z17deps_analyze_insnP9deps_descP8rtx_insn @6637
    _Z17destroy_gnat_declv @6638
    _Z17destroy_live_varsR3vecI11bitmap_head7va_heap6vl_ptrE @6639
    _Z17df_bb_refs_recordib @6640
    _Z17df_compact_blocksv @6641
    _Z17df_grow_insn_infov @6642
    _Z17df_insn_change_bbP8rtx_insnP15basic_block_def @6643
    _Z17df_lr_add_problemv @6644
    _Z17df_md_add_problemv @6645
    _Z17df_print_bb_indexP15basic_block_defP6_iobuf @6646
    _Z17df_rd_add_problemv @6647
    _Z17df_remove_problemP8dataflow @6648
    _Z17diagnostic_finishP18diagnostic_context @6649
    _Z17do_assemble_aliasP9tree_nodeS0_ @6650
    _Z17dump_asserts_infoP6_iobufRK3vecI11assert_info7va_heap6vl_ptrE @6651
    _Z17dump_bb_for_graphP14pretty_printerP15basic_block_def @6652
    _Z17dump_cselib_tableP6_iobuf @6653
    _Z17dump_generic_exprRK15dump_metadata_t9dump_flagP9tree_node @6654
    _Z17dump_generic_nodeP14pretty_printerP9tree_nodei9dump_flagb @6655
    _Z17dump_go_spec_initPKcPK15gcc_debug_hooks @6656
    _Z17dump_hard_reg_setPKc12HARD_REG_SET @6657
    _Z17dump_part_var_mapP6_iobufP13partition_defP8_var_map @6658
    _Z17dump_scope_blocksP6_iobuf9dump_flag @6659
    _Z17dump_string_fieldP9dump_infoPKcS2_ @6660
    _Z17dwarf_debuginfo_pP11gcc_options @6661
    _Z17element_precisionPK9tree_node @6662
    _Z17emit_label_beforeP14rtx_code_labelP8rtx_insn @6663
    _Z17emit_storent_insnP7rtx_defS0_ @6664
    _Z17encode_decimal128PK11real_formatPlPK10real_value @6665
    _Z17entry_of_functionv @6666
    _Z17enum_value_to_argPK11cl_enum_argPPKcij @6667
    _Z17epilogue_containsPK8rtx_insn @6668
    _Z17estimate_dep_weakP7rtx_defS0_ @6669
    _Z17execute_fixup_cfgv @6670
    _Z17execute_pass_listP8functionP8opt_pass @6671
    _Z17expand_abs_nojump12machine_modeP7rtx_defS1_i @6672
    _Z17expand_assignmentP9tree_nodeS0_b @6673
    _Z17expand_sfix_optabP7rtx_defS0_9optab_tag @6674
    _Z17expand_ternary_op12machine_mode9optab_tagP7rtx_defS2_S2_S2_i @6675
    _Z17expr_not_equal_toP9tree_nodeRK16generic_wide_intI16wide_int_storageE @6676
    _Z17ext_QIreg_operandP7rtx_def12machine_mode @6677
    _Z17extract_bit_fieldP7rtx_def8poly_intILj1EyES2_iS0_12machine_modeS3_bPS0_ @6678
    _Z17file_name_acquirePP15dwarf_file_dataP22file_name_acquire_data @6679
    _Z17find_constant_srcPK8rtx_insn @6680
    _Z17find_predecessorsP17simple_bitmap_defP3ddgS0_ @6681
    _Z17find_regno_fusagePK7rtx_def8rtx_codej @6682
    _Z17fini_object_sizesv @6683
    _Z17fini_ssa_operandsP8function @6684
    _Z17finish_out_of_ssaP9ssaexpand @6685
    _Z17finite_function_pv @6686
    _Z17fis_get_conditionP8rtx_insn @6687
    _Z17fixed_from_stringP11fixed_valuePKc11scalar_mode @6688
    _Z17fixup_signed_typeP9tree_node @6689
    _Z17flags_reg_operandP7rtx_def12machine_mode @6690
    _Z17fold_bit_and_maskP9tree_nodeS0_9tree_codeS0_S1_S0_S0_S0_S1_S0_S0_PS0_ @6691
    _Z17fold_stmt_inplaceP20gimple_stmt_iterator @6692
    _Z17for_each_eh_labelPFvP7rtx_defE @6693
    _Z17force_nonfallthruP8edge_def @6694
    _Z17forwarder_block_pPK15basic_block_def @6695
    _Z17free_bb_note_poolv @6696
    _Z17free_ddg_all_sccsP12ddg_all_sccs @6697
    _Z17gcov_read_counterv @6698
    _Z17gcov_read_summaryP12gcov_summary @6699
    _Z17gcov_write_lengthj @6700
    _Z17gcov_write_stringPKc @6701
    _Z17gen_absv2di2_maskP7rtx_defS0_S0_S0_ @6702
    _Z17gen_absv4di2_maskP7rtx_defS0_S0_S0_ @6703
    _Z17gen_absv4si2_maskP7rtx_defS0_S0_S0_ @6704
    _Z17gen_absv8di2_maskP7rtx_defS0_S0_S0_ @6705
    _Z17gen_absv8hi2_maskP7rtx_defS0_S0_S0_ @6706
    _Z17gen_absv8si2_maskP7rtx_defS0_S0_S0_ @6707
    _Z17gen_addv2df3_maskP7rtx_defS0_S0_S0_S0_ @6708
    _Z17gen_addv2di3_maskP7rtx_defS0_S0_S0_S0_ @6709
    _Z17gen_addv4df3_maskP7rtx_defS0_S0_S0_S0_ @6710
    _Z17gen_addv4di3_maskP7rtx_defS0_S0_S0_S0_ @6711
    _Z17gen_addv4sf3_maskP7rtx_defS0_S0_S0_S0_ @6712
    _Z17gen_addv4si3_maskP7rtx_defS0_S0_S0_S0_ @6713
    _Z17gen_addv8df3_maskP7rtx_defS0_S0_S0_S0_ @6714
    _Z17gen_addv8di3_maskP7rtx_defS0_S0_S0_S0_ @6715
    _Z17gen_addv8hf3_maskP7rtx_defS0_S0_S0_S0_ @6716
    _Z17gen_addv8hi3_maskP7rtx_defS0_S0_S0_S0_ @6717
    _Z17gen_addv8sf3_maskP7rtx_defS0_S0_S0_S0_ @6718
    _Z17gen_addv8si3_maskP7rtx_defS0_S0_S0_S0_ @6719
    _Z17gen_aesdec128klu8P7rtx_defS0_S0_ @6720
    _Z17gen_aesdec256klu8P7rtx_defS0_S0_ @6721
    _Z17gen_aesenc128klu8P7rtx_defS0_S0_ @6722
    _Z17gen_aesenc256klu8P7rtx_defS0_S0_ @6723
    _Z17gen_andv2df3_maskP7rtx_defS0_S0_S0_S0_ @6724
    _Z17gen_andv2di3_maskP7rtx_defS0_S0_S0_S0_ @6725
    _Z17gen_andv4df3_maskP7rtx_defS0_S0_S0_S0_ @6726
    _Z17gen_andv4di3_maskP7rtx_defS0_S0_S0_S0_ @6727
    _Z17gen_andv4sf3_maskP7rtx_defS0_S0_S0_S0_ @6728
    _Z17gen_andv4si3_maskP7rtx_defS0_S0_S0_S0_ @6729
    _Z17gen_andv8df3_maskP7rtx_defS0_S0_S0_S0_ @6730
    _Z17gen_andv8di3_maskP7rtx_defS0_S0_S0_S0_ @6731
    _Z17gen_andv8sf3_maskP7rtx_defS0_S0_S0_S0_ @6732
    _Z17gen_andv8si3_maskP7rtx_defS0_S0_S0_S0_ @6733
    _Z17gen_atomic_loaddiP7rtx_defS0_S0_ @6734
    _Z17gen_atomic_loadhiP7rtx_defS0_S0_ @6735
    _Z17gen_atomic_loadqiP7rtx_defS0_S0_ @6736
    _Z17gen_atomic_loadsiP7rtx_defS0_S0_ @6737
    _Z17gen_avx2_gtv16hi3P7rtx_defS0_S0_ @6738
    _Z17gen_avx2_gtv32qi3P7rtx_defS0_S0_ @6739
    _Z17gen_avx2_movntdqaP7rtx_defS0_ @6740
    _Z17gen_avx2_packssdwP7rtx_defS0_S0_ @6741
    _Z17gen_avx2_packsswbP7rtx_defS0_S0_ @6742
    _Z17gen_avx2_packusdwP7rtx_defS0_S0_ @6743
    _Z17gen_avx2_packuswbP7rtx_defS0_S0_ @6744
    _Z17gen_avx2_pblendphP7rtx_defS0_S0_S0_ @6745
    _Z17gen_avx2_pblendvbP7rtx_defS0_S0_S0_ @6746
    _Z17gen_avx2_permv2tiP7rtx_defS0_S0_S0_ @6747
    _Z17gen_avx2_permv4dfP7rtx_defS0_S0_ @6748
    _Z17gen_avx2_permv4diP7rtx_defS0_S0_ @6749
    _Z17gen_avx2_pmovmskbP7rtx_defS0_ @6750
    _Z17gen_avx2_pshufd_1P7rtx_defS0_S0_S0_S0_S0_S0_S0_S0_S0_ @6751
    _Z17gen_avx2_pshufdv3P7rtx_defS0_S0_ @6752
    _Z17gen_avx_haddv4df3P7rtx_defS0_S0_ @6753
    _Z17gen_avx_haddv8sf3P7rtx_defS0_S0_ @6754
    _Z17gen_avx_hsubv4df3P7rtx_defS0_S0_ @6755
    _Z17gen_avx_hsubv8sf3P7rtx_defS0_S0_ @6756
    _Z17gen_avx_movntv4dfP7rtx_defS0_ @6757
    _Z17gen_avx_movntv4diP7rtx_defS0_ @6758
    _Z17gen_avx_movntv8sfP7rtx_defS0_ @6759
    _Z17gen_avx_ptestv4dfP7rtx_defS0_ @6760
    _Z17gen_avx_ptestv4diP7rtx_defS0_ @6761
    _Z17gen_avx_ptestv8sfP7rtx_defS0_ @6762
    _Z17gen_avx_ptestv8siP7rtx_defS0_ @6763
    _Z17gen_avx_shufpd256P7rtx_defS0_S0_S0_ @6764
    _Z17gen_avx_shufps256P7rtx_defS0_S0_S0_ @6765
    _Z17gen_avx_sqrtv4df2P7rtx_defS0_ @6766
    _Z17gen_avx_sqrtv8sf2P7rtx_defS0_ @6767
    _Z17gen_bmi2_bzhi_di3P7rtx_defS0_S0_ @6768
    _Z17gen_bmi2_bzhi_si3P7rtx_defS0_S0_ @6769
    _Z17gen_bmi2_pdep_di3P7rtx_defS0_S0_ @6770
    _Z17gen_bmi2_pdep_si3P7rtx_defS0_S0_ @6771
    _Z17gen_bmi2_pext_di3P7rtx_defS0_S0_ @6772
    _Z17gen_bmi2_pext_si3P7rtx_defS0_S0_ @6773
    _Z17gen_clzv2di2_maskP7rtx_defS0_S0_S0_ @6774
    _Z17gen_clzv4di2_maskP7rtx_defS0_S0_S0_ @6775
    _Z17gen_clzv4si2_maskP7rtx_defS0_S0_S0_ @6776
    _Z17gen_clzv8di2_maskP7rtx_defS0_S0_S0_ @6777
    _Z17gen_clzv8si2_maskP7rtx_defS0_S0_S0_ @6778
    _Z17gen_cond_addv16hfP7rtx_defS0_S0_S0_S0_ @6779
    _Z17gen_cond_addv16hiP7rtx_defS0_S0_S0_S0_ @6780
    _Z17gen_cond_addv16qiP7rtx_defS0_S0_S0_S0_ @6781
    _Z17gen_cond_addv16sfP7rtx_defS0_S0_S0_S0_ @6782
    _Z17gen_cond_addv16siP7rtx_defS0_S0_S0_S0_ @6783
    _Z17gen_cond_addv32hfP7rtx_defS0_S0_S0_S0_ @6784
    _Z17gen_cond_addv32hiP7rtx_defS0_S0_S0_S0_ @6785
    _Z17gen_cond_addv32qiP7rtx_defS0_S0_S0_S0_ @6786
    _Z17gen_cond_addv64qiP7rtx_defS0_S0_S0_S0_ @6787
    _Z17gen_cond_andv16siP7rtx_defS0_S0_S0_S0_ @6788
    _Z17gen_cond_ashlv2diP7rtx_defS0_S0_S0_S0_ @6789
    _Z17gen_cond_ashlv4diP7rtx_defS0_S0_S0_S0_ @6790
    _Z17gen_cond_ashlv4siP7rtx_defS0_S0_S0_S0_ @6791
    _Z17gen_cond_ashlv8diP7rtx_defS0_S0_S0_S0_ @6792
    _Z17gen_cond_ashlv8hiP7rtx_defS0_S0_S0_S0_ @6793
    _Z17gen_cond_ashlv8siP7rtx_defS0_S0_S0_S0_ @6794
    _Z17gen_cond_ashrv2diP7rtx_defS0_S0_S0_S0_ @6795
    _Z17gen_cond_ashrv4diP7rtx_defS0_S0_S0_S0_ @6796
    _Z17gen_cond_ashrv4siP7rtx_defS0_S0_S0_S0_ @6797
    _Z17gen_cond_ashrv8diP7rtx_defS0_S0_S0_S0_ @6798
    _Z17gen_cond_ashrv8hiP7rtx_defS0_S0_S0_S0_ @6799
    _Z17gen_cond_ashrv8siP7rtx_defS0_S0_S0_S0_ @6800
    _Z17gen_cond_divv16hfP7rtx_defS0_S0_S0_S0_ @6801
    _Z17gen_cond_divv16sfP7rtx_defS0_S0_S0_S0_ @6802
    _Z17gen_cond_divv32hfP7rtx_defS0_S0_S0_S0_ @6803
    _Z17gen_cond_fmav16hfP7rtx_defS0_S0_S0_S0_S0_ @6804
    _Z17gen_cond_fmav16sfP7rtx_defS0_S0_S0_S0_S0_ @6805
    _Z17gen_cond_fmav32hfP7rtx_defS0_S0_S0_S0_S0_ @6806
    _Z17gen_cond_fmsv16hfP7rtx_defS0_S0_S0_S0_S0_ @6807
    _Z17gen_cond_fmsv16sfP7rtx_defS0_S0_S0_S0_S0_ @6808
    _Z17gen_cond_fmsv32hfP7rtx_defS0_S0_S0_S0_S0_ @6809
    _Z17gen_cond_fnmav2dfP7rtx_defS0_S0_S0_S0_S0_ @6810
    _Z17gen_cond_fnmav4dfP7rtx_defS0_S0_S0_S0_S0_ @6811
    _Z17gen_cond_fnmav4sfP7rtx_defS0_S0_S0_S0_S0_ @6812
    _Z17gen_cond_fnmav8dfP7rtx_defS0_S0_S0_S0_S0_ @6813
    _Z17gen_cond_fnmav8hfP7rtx_defS0_S0_S0_S0_S0_ @6814
    _Z17gen_cond_fnmav8sfP7rtx_defS0_S0_S0_S0_S0_ @6815
    _Z17gen_cond_fnmsv2dfP7rtx_defS0_S0_S0_S0_S0_ @6816
    _Z17gen_cond_fnmsv4dfP7rtx_defS0_S0_S0_S0_S0_ @6817
    _Z17gen_cond_fnmsv4sfP7rtx_defS0_S0_S0_S0_S0_ @6818
    _Z17gen_cond_fnmsv8dfP7rtx_defS0_S0_S0_S0_S0_ @6819
    _Z17gen_cond_fnmsv8hfP7rtx_defS0_S0_S0_S0_S0_ @6820
    _Z17gen_cond_fnmsv8sfP7rtx_defS0_S0_S0_S0_S0_ @6821
    _Z17gen_cond_iorv16siP7rtx_defS0_S0_S0_S0_ @6822
    _Z17gen_cond_lshrv2diP7rtx_defS0_S0_S0_S0_ @6823
    _Z17gen_cond_lshrv4diP7rtx_defS0_S0_S0_S0_ @6824
    _Z17gen_cond_lshrv4siP7rtx_defS0_S0_S0_S0_ @6825
    _Z17gen_cond_lshrv8diP7rtx_defS0_S0_S0_S0_ @6826
    _Z17gen_cond_lshrv8hiP7rtx_defS0_S0_S0_S0_ @6827
    _Z17gen_cond_lshrv8siP7rtx_defS0_S0_S0_S0_ @6828
    _Z17gen_cond_mulv16hfP7rtx_defS0_S0_S0_S0_ @6829
    _Z17gen_cond_mulv16hiP7rtx_defS0_S0_S0_S0_ @6830
    _Z17gen_cond_mulv16sfP7rtx_defS0_S0_S0_S0_ @6831
    _Z17gen_cond_mulv16siP7rtx_defS0_S0_S0_S0_ @6832
    _Z17gen_cond_mulv32hfP7rtx_defS0_S0_S0_S0_ @6833
    _Z17gen_cond_mulv32hiP7rtx_defS0_S0_S0_S0_ @6834
    _Z17gen_cond_smaxv2dfP7rtx_defS0_S0_S0_S0_ @6835
    _Z17gen_cond_smaxv2diP7rtx_defS0_S0_S0_S0_ @6836
    _Z17gen_cond_smaxv4dfP7rtx_defS0_S0_S0_S0_ @6837
    _Z17gen_cond_smaxv4diP7rtx_defS0_S0_S0_S0_ @6838
    _Z17gen_cond_smaxv4sfP7rtx_defS0_S0_S0_S0_ @6839
    _Z17gen_cond_smaxv4siP7rtx_defS0_S0_S0_S0_ @6840
    _Z17gen_cond_smaxv8dfP7rtx_defS0_S0_S0_S0_ @6841
    _Z17gen_cond_smaxv8diP7rtx_defS0_S0_S0_S0_ @6842
    _Z17gen_cond_smaxv8hfP7rtx_defS0_S0_S0_S0_ @6843
    _Z17gen_cond_smaxv8hiP7rtx_defS0_S0_S0_S0_ @6844
    _Z17gen_cond_smaxv8sfP7rtx_defS0_S0_S0_S0_ @6845
    _Z17gen_cond_smaxv8siP7rtx_defS0_S0_S0_S0_ @6846
    _Z17gen_cond_sminv2dfP7rtx_defS0_S0_S0_S0_ @6847
    _Z17gen_cond_sminv2diP7rtx_defS0_S0_S0_S0_ @6848
    _Z17gen_cond_sminv4dfP7rtx_defS0_S0_S0_S0_ @6849
    _Z17gen_cond_sminv4diP7rtx_defS0_S0_S0_S0_ @6850
    _Z17gen_cond_sminv4sfP7rtx_defS0_S0_S0_S0_ @6851
    _Z17gen_cond_sminv4siP7rtx_defS0_S0_S0_S0_ @6852
    _Z17gen_cond_sminv8dfP7rtx_defS0_S0_S0_S0_ @6853
    _Z17gen_cond_sminv8diP7rtx_defS0_S0_S0_S0_ @6854
    _Z17gen_cond_sminv8hfP7rtx_defS0_S0_S0_S0_ @6855
    _Z17gen_cond_sminv8hiP7rtx_defS0_S0_S0_S0_ @6856
    _Z17gen_cond_sminv8sfP7rtx_defS0_S0_S0_S0_ @6857
    _Z17gen_cond_sminv8siP7rtx_defS0_S0_S0_S0_ @6858
    _Z17gen_cond_subv16hfP7rtx_defS0_S0_S0_S0_ @6859
    _Z17gen_cond_subv16hiP7rtx_defS0_S0_S0_S0_ @6860
    _Z17gen_cond_subv16qiP7rtx_defS0_S0_S0_S0_ @6861
    _Z17gen_cond_subv16sfP7rtx_defS0_S0_S0_S0_ @6862
    _Z17gen_cond_subv16siP7rtx_defS0_S0_S0_S0_ @6863
    _Z17gen_cond_subv32hfP7rtx_defS0_S0_S0_S0_ @6864
    _Z17gen_cond_subv32hiP7rtx_defS0_S0_S0_S0_ @6865
    _Z17gen_cond_subv32qiP7rtx_defS0_S0_S0_S0_ @6866
    _Z17gen_cond_subv64qiP7rtx_defS0_S0_S0_S0_ @6867
    _Z17gen_cond_umaxv2diP7rtx_defS0_S0_S0_S0_ @6868
    _Z17gen_cond_umaxv4diP7rtx_defS0_S0_S0_S0_ @6869
    _Z17gen_cond_umaxv4siP7rtx_defS0_S0_S0_S0_ @6870
    _Z17gen_cond_umaxv8diP7rtx_defS0_S0_S0_S0_ @6871
    _Z17gen_cond_umaxv8hiP7rtx_defS0_S0_S0_S0_ @6872
    _Z17gen_cond_umaxv8siP7rtx_defS0_S0_S0_S0_ @6873
    _Z17gen_cond_uminv2diP7rtx_defS0_S0_S0_S0_ @6874
    _Z17gen_cond_uminv4diP7rtx_defS0_S0_S0_S0_ @6875
    _Z17gen_cond_uminv4siP7rtx_defS0_S0_S0_S0_ @6876
    _Z17gen_cond_uminv8diP7rtx_defS0_S0_S0_S0_ @6877
    _Z17gen_cond_uminv8hiP7rtx_defS0_S0_S0_S0_ @6878
    _Z17gen_cond_uminv8siP7rtx_defS0_S0_S0_S0_ @6879
    _Z17gen_cond_xorv16siP7rtx_defS0_S0_S0_S0_ @6880
    _Z17gen_copysignv2df3P7rtx_defS0_S0_ @6881
    _Z17gen_copysignv2sf3P7rtx_defS0_S0_ @6882
    _Z17gen_copysignv4df3P7rtx_defS0_S0_ @6883
    _Z17gen_copysignv4sf3P7rtx_defS0_S0_ @6884
    _Z17gen_copysignv8df3P7rtx_defS0_S0_ @6885
    _Z17gen_copysignv8hf3P7rtx_defS0_S0_ @6886
    _Z17gen_copysignv8sf3P7rtx_defS0_S0_ @6887
    _Z17gen_eh_region_tryP11eh_region_d @6888
    _Z17gen_extendsidi2_1P7rtx_defS0_ @6889
    _Z17gen_fistdi2_floorP7rtx_defS0_S0_S0_ @6890
    _Z17gen_fisthi2_floorP7rtx_defS0_S0_S0_ @6891
    _Z17gen_fistsi2_floorP7rtx_defS0_S0_S0_ @6892
    _Z17gen_fixed_libfunc9optab_tagPKcc12machine_mode @6893
    _Z17gen_floatunsdidf2P7rtx_defS0_ @6894
    _Z17gen_floatunsdihf2P7rtx_defS0_ @6895
    _Z17gen_floatunsdisf2P7rtx_defS0_ @6896
    _Z17gen_floatunshidf2P7rtx_defS0_ @6897
    _Z17gen_floatunshisf2P7rtx_defS0_ @6898
    _Z17gen_floatunsqidf2P7rtx_defS0_ @6899
    _Z17gen_floatunsqisf2P7rtx_defS0_ @6900
    _Z17gen_floatunssidf2P7rtx_defS0_ @6901
    _Z17gen_floatunssihf2P7rtx_defS0_ @6902
    _Z17gen_floatunssisf2P7rtx_defS0_ @6903
    _Z17gen_floatunssixf2P7rtx_defS0_ @6904
    _Z17gen_fmaddsub_v2dfP7rtx_defS0_S0_S0_ @6905
    _Z17gen_fmaddsub_v4dfP7rtx_defS0_S0_S0_ @6906
    _Z17gen_fmaddsub_v4sfP7rtx_defS0_S0_S0_ @6907
    _Z17gen_fmaddsub_v8dfP7rtx_defS0_S0_S0_ @6908
    _Z17gen_fmaddsub_v8sfP7rtx_defS0_S0_S0_ @6909
    _Z17gen_fpremxf4_i387P7rtx_defS0_S0_S0_ @6910
    _Z17gen_fptanxf4_i387P7rtx_defS0_S0_S0_ @6911
    _Z17gen_fyl2xxf3_i387P7rtx_defS0_S0_ @6912
    _Z17gen_highpart_mode12machine_modeS_P7rtx_def @6913
    _Z17gen_ieee_maxv2df3P7rtx_defS0_S0_ @6914
    _Z17gen_ieee_maxv4df3P7rtx_defS0_S0_ @6915
    _Z17gen_ieee_maxv4sf3P7rtx_defS0_S0_ @6916
    _Z17gen_ieee_maxv8df3P7rtx_defS0_S0_ @6917
    _Z17gen_ieee_maxv8hf3P7rtx_defS0_S0_ @6918
    _Z17gen_ieee_maxv8sf3P7rtx_defS0_S0_ @6919
    _Z17gen_ieee_minv2df3P7rtx_defS0_S0_ @6920
    _Z17gen_ieee_minv4df3P7rtx_defS0_S0_ @6921
    _Z17gen_ieee_minv4sf3P7rtx_defS0_S0_ @6922
    _Z17gen_ieee_minv8df3P7rtx_defS0_S0_ @6923
    _Z17gen_ieee_minv8hf3P7rtx_defS0_S0_ @6924
    _Z17gen_ieee_minv8sf3P7rtx_defS0_S0_ @6925
    _Z17gen_indirect_jumpP7rtx_def @6926
    _Z17gen_iorv2df3_maskP7rtx_defS0_S0_S0_S0_ @6927
    _Z17gen_iorv2di3_maskP7rtx_defS0_S0_S0_S0_ @6928
    _Z17gen_iorv4df3_maskP7rtx_defS0_S0_S0_S0_ @6929
    _Z17gen_iorv4di3_maskP7rtx_defS0_S0_S0_S0_ @6930
    _Z17gen_iorv4sf3_maskP7rtx_defS0_S0_S0_S0_ @6931
    _Z17gen_iorv4si3_maskP7rtx_defS0_S0_S0_S0_ @6932
    _Z17gen_iorv8df3_maskP7rtx_defS0_S0_S0_S0_ @6933
    _Z17gen_iorv8di3_maskP7rtx_defS0_S0_S0_S0_ @6934
    _Z17gen_iorv8sf3_maskP7rtx_defS0_S0_S0_S0_ @6935
    _Z17gen_iorv8si3_maskP7rtx_defS0_S0_S0_S0_ @6936
    _Z17gen_mmx_ashlv1di3P7rtx_defS0_S0_ @6937
    _Z17gen_mmx_ashlv1si3P7rtx_defS0_S0_ @6938
    _Z17gen_mmx_ashlv2si3P7rtx_defS0_S0_ @6939
    _Z17gen_mmx_ashlv4hi3P7rtx_defS0_S0_ @6940
    _Z17gen_mmx_ashrv2si3P7rtx_defS0_S0_ @6941
    _Z17gen_mmx_ashrv4hi3P7rtx_defS0_S0_ @6942
    _Z17gen_mmx_haddv2sf3P7rtx_defS0_S0_ @6943
    _Z17gen_mmx_hsubv2sf3P7rtx_defS0_S0_ @6944
    _Z17gen_mmx_lshrv1di3P7rtx_defS0_S0_ @6945
    _Z17gen_mmx_lshrv1si3P7rtx_defS0_S0_ @6946
    _Z17gen_mmx_lshrv2si3P7rtx_defS0_S0_ @6947
    _Z17gen_mmx_lshrv4hi3P7rtx_defS0_S0_ @6948
    _Z17gen_mmx_punpckhbwP7rtx_defS0_S0_ @6949
    _Z17gen_mmx_punpckhdqP7rtx_defS0_S0_ @6950
    _Z17gen_mmx_punpckhwdP7rtx_defS0_S0_ @6951
    _Z17gen_mmx_punpcklbwP7rtx_defS0_S0_ @6952
    _Z17gen_mmx_punpckldqP7rtx_defS0_S0_ @6953
    _Z17gen_mmx_punpcklwdP7rtx_defS0_S0_ @6954
    _Z17gen_mmx_smaxv2sf3P7rtx_defS0_S0_ @6955
    _Z17gen_mmx_smaxv4hi3P7rtx_defS0_S0_ @6956
    _Z17gen_mmx_sminv2sf3P7rtx_defS0_S0_ @6957
    _Z17gen_mmx_sminv4hi3P7rtx_defS0_S0_ @6958
    _Z17gen_mmx_subrv2sf3P7rtx_defS0_S0_ @6959
    _Z17gen_mmx_uavgv4hi3P7rtx_defS0_S0_ @6960
    _Z17gen_mmx_uavgv8qi3P7rtx_defS0_S0_ @6961
    _Z17gen_mmx_umaxv8qi3P7rtx_defS0_S0_ @6962
    _Z17gen_mmx_uminv8qi3P7rtx_defS0_S0_ @6963
    _Z17gen_mulv2df3_maskP7rtx_defS0_S0_S0_S0_ @6964
    _Z17gen_mulv4df3_maskP7rtx_defS0_S0_S0_S0_ @6965
    _Z17gen_mulv4sf3_maskP7rtx_defS0_S0_S0_S0_ @6966
    _Z17gen_mulv4si3_maskP7rtx_defS0_S0_S0_S0_ @6967
    _Z17gen_mulv8df3_maskP7rtx_defS0_S0_S0_S0_ @6968
    _Z17gen_mulv8hf3_maskP7rtx_defS0_S0_S0_S0_ @6969
    _Z17gen_mulv8hi3_maskP7rtx_defS0_S0_S0_S0_ @6970
    _Z17gen_mulv8sf3_maskP7rtx_defS0_S0_S0_S0_ @6971
    _Z17gen_mulv8si3_maskP7rtx_defS0_S0_S0_S0_ @6972
    _Z17gen_one_cmplv1ti2P7rtx_defS0_ @6973
    _Z17gen_one_cmplv2di2P7rtx_defS0_ @6974
    _Z17gen_one_cmplv2hi2P7rtx_defS0_ @6975
    _Z17gen_one_cmplv2qi2P7rtx_defS0_ @6976
    _Z17gen_one_cmplv2si2P7rtx_defS0_ @6977
    _Z17gen_one_cmplv4di2P7rtx_defS0_ @6978
    _Z17gen_one_cmplv4hi2P7rtx_defS0_ @6979
    _Z17gen_one_cmplv4qi2P7rtx_defS0_ @6980
    _Z17gen_one_cmplv4si2P7rtx_defS0_ @6981
    _Z17gen_one_cmplv8di2P7rtx_defS0_ @6982
    _Z17gen_one_cmplv8hi2P7rtx_defS0_ @6983
    _Z17gen_one_cmplv8qi2P7rtx_defS0_ @6984
    _Z17gen_one_cmplv8si2P7rtx_defS0_ @6985
    _Z17gen_parityhi2_cmpP7rtx_def @6986
    _Z17gen_parityqi2_cmpP7rtx_def @6987
    _Z17gen_peephole2_100P8rtx_insnPP7rtx_def @6988
    _Z17gen_peephole2_101P8rtx_insnPP7rtx_def @6989
    _Z17gen_peephole2_102P8rtx_insnPP7rtx_def @6990
    _Z17gen_peephole2_103P8rtx_insnPP7rtx_def @6991
    _Z17gen_peephole2_104P8rtx_insnPP7rtx_def @6992
    _Z17gen_peephole2_105P8rtx_insnPP7rtx_def @6993
    _Z17gen_peephole2_106P8rtx_insnPP7rtx_def @6994
    _Z17gen_peephole2_107P8rtx_insnPP7rtx_def @6995
    _Z17gen_peephole2_108P8rtx_insnPP7rtx_def @6996
    _Z17gen_peephole2_109P8rtx_insnPP7rtx_def @6997
    _Z17gen_peephole2_110P8rtx_insnPP7rtx_def @6998
    _Z17gen_peephole2_111P8rtx_insnPP7rtx_def @6999
    _Z17gen_peephole2_112P8rtx_insnPP7rtx_def @7000
    _Z17gen_peephole2_113P8rtx_insnPP7rtx_def @7001
    _Z17gen_peephole2_114P8rtx_insnPP7rtx_def @7002
    _Z17gen_peephole2_115P8rtx_insnPP7rtx_def @7003
    _Z17gen_peephole2_116P8rtx_insnPP7rtx_def @7004
    _Z17gen_peephole2_117P8rtx_insnPP7rtx_def @7005
    _Z17gen_peephole2_118P8rtx_insnPP7rtx_def @7006
    _Z17gen_peephole2_119P8rtx_insnPP7rtx_def @7007
    _Z17gen_peephole2_120P8rtx_insnPP7rtx_def @7008
    _Z17gen_peephole2_121P8rtx_insnPP7rtx_def @7009
    _Z17gen_peephole2_122P8rtx_insnPP7rtx_def @7010
    _Z17gen_peephole2_123P8rtx_insnPP7rtx_def @7011
    _Z17gen_peephole2_124P8rtx_insnPP7rtx_def @7012
    _Z17gen_peephole2_125P8rtx_insnPP7rtx_def @7013
    _Z17gen_peephole2_126P8rtx_insnPP7rtx_def @7014
    _Z17gen_peephole2_127P8rtx_insnPP7rtx_def @7015
    _Z17gen_peephole2_128P8rtx_insnPP7rtx_def @7016
    _Z17gen_peephole2_129P8rtx_insnPP7rtx_def @7017
    _Z17gen_peephole2_130P8rtx_insnPP7rtx_def @7018
    _Z17gen_peephole2_131P8rtx_insnPP7rtx_def @7019
    _Z17gen_peephole2_132P8rtx_insnPP7rtx_def @7020
    _Z17gen_peephole2_133P8rtx_insnPP7rtx_def @7021
    _Z17gen_peephole2_134P8rtx_insnPP7rtx_def @7022
    _Z17gen_peephole2_135P8rtx_insnPP7rtx_def @7023
    _Z17gen_peephole2_136P8rtx_insnPP7rtx_def @7024
    _Z17gen_peephole2_137P8rtx_insnPP7rtx_def @7025
    _Z17gen_peephole2_138P8rtx_insnPP7rtx_def @7026
    _Z17gen_peephole2_139P8rtx_insnPP7rtx_def @7027
    _Z17gen_peephole2_140P8rtx_insnPP7rtx_def @7028
    _Z17gen_peephole2_141P8rtx_insnPP7rtx_def @7029
    _Z17gen_peephole2_142P8rtx_insnPP7rtx_def @7030
    _Z17gen_peephole2_143P8rtx_insnPP7rtx_def @7031
    _Z17gen_peephole2_144P8rtx_insnPP7rtx_def @7032
    _Z17gen_peephole2_145P8rtx_insnPP7rtx_def @7033
    _Z17gen_peephole2_146P8rtx_insnPP7rtx_def @7034
    _Z17gen_peephole2_147P8rtx_insnPP7rtx_def @7035
    _Z17gen_peephole2_148P8rtx_insnPP7rtx_def @7036
    _Z17gen_peephole2_149P8rtx_insnPP7rtx_def @7037
    _Z17gen_peephole2_150P8rtx_insnPP7rtx_def @7038
    _Z17gen_peephole2_151P8rtx_insnPP7rtx_def @7039
    _Z17gen_peephole2_152P8rtx_insnPP7rtx_def @7040
    _Z17gen_peephole2_153P8rtx_insnPP7rtx_def @7041
    _Z17gen_peephole2_154P8rtx_insnPP7rtx_def @7042
    _Z17gen_peephole2_155P8rtx_insnPP7rtx_def @7043
    _Z17gen_peephole2_156P8rtx_insnPP7rtx_def @7044
    _Z17gen_peephole2_157P8rtx_insnPP7rtx_def @7045
    _Z17gen_peephole2_158P8rtx_insnPP7rtx_def @7046
    _Z17gen_peephole2_159P8rtx_insnPP7rtx_def @7047
    _Z17gen_peephole2_160P8rtx_insnPP7rtx_def @7048
    _Z17gen_peephole2_161P8rtx_insnPP7rtx_def @7049
    _Z17gen_peephole2_162P8rtx_insnPP7rtx_def @7050
    _Z17gen_peephole2_163P8rtx_insnPP7rtx_def @7051
    _Z17gen_peephole2_164P8rtx_insnPP7rtx_def @7052
    _Z17gen_peephole2_165P8rtx_insnPP7rtx_def @7053
    _Z17gen_peephole2_166P8rtx_insnPP7rtx_def @7054
    _Z17gen_peephole2_167P8rtx_insnPP7rtx_def @7055
    _Z17gen_peephole2_168P8rtx_insnPP7rtx_def @7056
    _Z17gen_peephole2_169P8rtx_insnPP7rtx_def @7057
    _Z17gen_peephole2_170P8rtx_insnPP7rtx_def @7058
    _Z17gen_peephole2_171P8rtx_insnPP7rtx_def @7059
    _Z17gen_peephole2_172P8rtx_insnPP7rtx_def @7060
    _Z17gen_peephole2_173P8rtx_insnPP7rtx_def @7061
    _Z17gen_peephole2_174P8rtx_insnPP7rtx_def @7062
    _Z17gen_peephole2_175P8rtx_insnPP7rtx_def @7063
    _Z17gen_peephole2_176P8rtx_insnPP7rtx_def @7064
    _Z17gen_peephole2_177P8rtx_insnPP7rtx_def @7065
    _Z17gen_peephole2_178P8rtx_insnPP7rtx_def @7066
    _Z17gen_peephole2_179P8rtx_insnPP7rtx_def @7067
    _Z17gen_peephole2_180P8rtx_insnPP7rtx_def @7068
    _Z17gen_peephole2_181P8rtx_insnPP7rtx_def @7069
    _Z17gen_peephole2_182P8rtx_insnPP7rtx_def @7070
    _Z17gen_peephole2_183P8rtx_insnPP7rtx_def @7071
    _Z17gen_peephole2_184P8rtx_insnPP7rtx_def @7072
    _Z17gen_peephole2_185P8rtx_insnPP7rtx_def @7073
    _Z17gen_peephole2_186P8rtx_insnPP7rtx_def @7074
    _Z17gen_peephole2_187P8rtx_insnPP7rtx_def @7075
    _Z17gen_peephole2_188P8rtx_insnPP7rtx_def @7076
    _Z17gen_peephole2_189P8rtx_insnPP7rtx_def @7077
    _Z17gen_peephole2_190P8rtx_insnPP7rtx_def @7078
    _Z17gen_peephole2_191P8rtx_insnPP7rtx_def @7079
    _Z17gen_peephole2_192P8rtx_insnPP7rtx_def @7080
    _Z17gen_peephole2_193P8rtx_insnPP7rtx_def @7081
    _Z17gen_peephole2_194P8rtx_insnPP7rtx_def @7082
    _Z17gen_peephole2_195P8rtx_insnPP7rtx_def @7083
    _Z17gen_peephole2_196P8rtx_insnPP7rtx_def @7084
    _Z17gen_peephole2_197P8rtx_insnPP7rtx_def @7085
    _Z17gen_peephole2_198P8rtx_insnPP7rtx_def @7086
    _Z17gen_peephole2_199P8rtx_insnPP7rtx_def @7087
    _Z17gen_peephole2_200P8rtx_insnPP7rtx_def @7088
    _Z17gen_peephole2_201P8rtx_insnPP7rtx_def @7089
    _Z17gen_peephole2_202P8rtx_insnPP7rtx_def @7090
    _Z17gen_peephole2_203P8rtx_insnPP7rtx_def @7091
    _Z17gen_peephole2_204P8rtx_insnPP7rtx_def @7092
    _Z17gen_peephole2_205P8rtx_insnPP7rtx_def @7093
    _Z17gen_peephole2_206P8rtx_insnPP7rtx_def @7094
    _Z17gen_peephole2_207P8rtx_insnPP7rtx_def @7095
    _Z17gen_peephole2_208P8rtx_insnPP7rtx_def @7096
    _Z17gen_peephole2_209P8rtx_insnPP7rtx_def @7097
    _Z17gen_peephole2_210P8rtx_insnPP7rtx_def @7098
    _Z17gen_peephole2_211P8rtx_insnPP7rtx_def @7099
    _Z17gen_peephole2_212P8rtx_insnPP7rtx_def @7100
    _Z17gen_peephole2_213P8rtx_insnPP7rtx_def @7101
    _Z17gen_peephole2_214P8rtx_insnPP7rtx_def @7102
    _Z17gen_peephole2_215P8rtx_insnPP7rtx_def @7103
    _Z17gen_peephole2_216P8rtx_insnPP7rtx_def @7104
    _Z17gen_peephole2_217P8rtx_insnPP7rtx_def @7105
    _Z17gen_peephole2_218P8rtx_insnPP7rtx_def @7106
    _Z17gen_peephole2_219P8rtx_insnPP7rtx_def @7107
    _Z17gen_peephole2_220P8rtx_insnPP7rtx_def @7108
    _Z17gen_peephole2_221P8rtx_insnPP7rtx_def @7109
    _Z17gen_peephole2_222P8rtx_insnPP7rtx_def @7110
    _Z17gen_peephole2_223P8rtx_insnPP7rtx_def @7111
    _Z17gen_peephole2_224P8rtx_insnPP7rtx_def @7112
    _Z17gen_peephole2_225P8rtx_insnPP7rtx_def @7113
    _Z17gen_peephole2_226P8rtx_insnPP7rtx_def @7114
    _Z17gen_peephole2_227P8rtx_insnPP7rtx_def @7115
    _Z17gen_peephole2_228P8rtx_insnPP7rtx_def @7116
    _Z17gen_peephole2_229P8rtx_insnPP7rtx_def @7117
    _Z17gen_peephole2_230P8rtx_insnPP7rtx_def @7118
    _Z17gen_peephole2_231P8rtx_insnPP7rtx_def @7119
    _Z17gen_peephole2_232P8rtx_insnPP7rtx_def @7120
    _Z17gen_peephole2_233P8rtx_insnPP7rtx_def @7121
    _Z17gen_peephole2_234P8rtx_insnPP7rtx_def @7122
    _Z17gen_peephole2_235P8rtx_insnPP7rtx_def @7123
    _Z17gen_peephole2_236P8rtx_insnPP7rtx_def @7124
    _Z17gen_peephole2_237P8rtx_insnPP7rtx_def @7125
    _Z17gen_peephole2_238P8rtx_insnPP7rtx_def @7126
    _Z17gen_peephole2_239P8rtx_insnPP7rtx_def @7127
    _Z17gen_peephole2_240P8rtx_insnPP7rtx_def @7128
    _Z17gen_peephole2_241P8rtx_insnPP7rtx_def @7129
    _Z17gen_peephole2_242P8rtx_insnPP7rtx_def @7130
    _Z17gen_peephole2_243P8rtx_insnPP7rtx_def @7131
    _Z17gen_peephole2_244P8rtx_insnPP7rtx_def @7132
    _Z17gen_peephole2_245P8rtx_insnPP7rtx_def @7133
    _Z17gen_peephole2_246P8rtx_insnPP7rtx_def @7134
    _Z17gen_peephole2_247P8rtx_insnPP7rtx_def @7135
    _Z17gen_peephole2_248P8rtx_insnPP7rtx_def @7136
    _Z17gen_peephole2_249P8rtx_insnPP7rtx_def @7137
    _Z17gen_peephole2_250P8rtx_insnPP7rtx_def @7138
    _Z17gen_peephole2_251P8rtx_insnPP7rtx_def @7139
    _Z17gen_peephole2_252P8rtx_insnPP7rtx_def @7140
    _Z17gen_peephole2_253P8rtx_insnPP7rtx_def @7141
    _Z17gen_peephole2_254P8rtx_insnPP7rtx_def @7142
    _Z17gen_peephole2_255P8rtx_insnPP7rtx_def @7143
    _Z17gen_peephole2_256P8rtx_insnPP7rtx_def @7144
    _Z17gen_peephole2_257P8rtx_insnPP7rtx_def @7145
    _Z17gen_peephole2_258P8rtx_insnPP7rtx_def @7146
    _Z17gen_peephole2_259P8rtx_insnPP7rtx_def @7147
    _Z17gen_peephole2_260P8rtx_insnPP7rtx_def @7148
    _Z17gen_peephole2_261P8rtx_insnPP7rtx_def @7149
    _Z17gen_peephole2_262P8rtx_insnPP7rtx_def @7150
    _Z17gen_peephole2_263P8rtx_insnPP7rtx_def @7151
    _Z17gen_peephole2_264P8rtx_insnPP7rtx_def @7152
    _Z17gen_peephole2_265P8rtx_insnPP7rtx_def @7153
    _Z17gen_peephole2_266P8rtx_insnPP7rtx_def @7154
    _Z17gen_peephole2_267P8rtx_insnPP7rtx_def @7155
    _Z17gen_peephole2_268P8rtx_insnPP7rtx_def @7156
    _Z17gen_peephole2_269P8rtx_insnPP7rtx_def @7157
    _Z17gen_peephole2_270P8rtx_insnPP7rtx_def @7158
    _Z17gen_peephole2_271P8rtx_insnPP7rtx_def @7159
    _Z17gen_peephole2_272P8rtx_insnPP7rtx_def @7160
    _Z17gen_peephole2_273P8rtx_insnPP7rtx_def @7161
    _Z17gen_peephole2_274P8rtx_insnPP7rtx_def @7162
    _Z17gen_peephole2_275P8rtx_insnPP7rtx_def @7163
    _Z17gen_peephole2_276P8rtx_insnPP7rtx_def @7164
    _Z17gen_peephole2_277P8rtx_insnPP7rtx_def @7165
    _Z17gen_peephole2_278P8rtx_insnPP7rtx_def @7166
    _Z17gen_peephole2_279P8rtx_insnPP7rtx_def @7167
    _Z17gen_peephole2_280P8rtx_insnPP7rtx_def @7168
    _Z17gen_peephole2_281P8rtx_insnPP7rtx_def @7169
    _Z17gen_peephole2_282P8rtx_insnPP7rtx_def @7170
    _Z17gen_peephole2_283P8rtx_insnPP7rtx_def @7171
    _Z17gen_peephole2_284P8rtx_insnPP7rtx_def @7172
    _Z17gen_peephole2_285P8rtx_insnPP7rtx_def @7173
    _Z17gen_peephole2_286P8rtx_insnPP7rtx_def @7174
    _Z17gen_peephole2_287P8rtx_insnPP7rtx_def @7175
    _Z17gen_peephole2_288P8rtx_insnPP7rtx_def @7176
    _Z17gen_peephole2_289P8rtx_insnPP7rtx_def @7177
    _Z17gen_peephole2_290P8rtx_insnPP7rtx_def @7178
    _Z17gen_peephole2_291P8rtx_insnPP7rtx_def @7179
    _Z17gen_peephole2_292P8rtx_insnPP7rtx_def @7180
    _Z17gen_peephole2_293P8rtx_insnPP7rtx_def @7181
    _Z17gen_peephole2_294P8rtx_insnPP7rtx_def @7182
    _Z17gen_peephole2_295P8rtx_insnPP7rtx_def @7183
    _Z17gen_peephole2_296P8rtx_insnPP7rtx_def @7184
    _Z17gen_peephole2_297P8rtx_insnPP7rtx_def @7185
    _Z17gen_peephole2_298P8rtx_insnPP7rtx_def @7186
    _Z17gen_peephole2_299P8rtx_insnPP7rtx_def @7187
    _Z17gen_peephole2_300P8rtx_insnPP7rtx_def @7188
    _Z17gen_peephole2_301P8rtx_insnPP7rtx_def @7189
    _Z17gen_peephole2_302P8rtx_insnPP7rtx_def @7190
    _Z17gen_peephole2_303P8rtx_insnPP7rtx_def @7191
    _Z17gen_peephole2_304P8rtx_insnPP7rtx_def @7192
    _Z17gen_peephole2_305P8rtx_insnPP7rtx_def @7193
    _Z17gen_peephole2_306P8rtx_insnPP7rtx_def @7194
    _Z17gen_peephole2_307P8rtx_insnPP7rtx_def @7195
    _Z17gen_peephole2_308P8rtx_insnPP7rtx_def @7196
    _Z17gen_peephole2_309P8rtx_insnPP7rtx_def @7197
    _Z17gen_peephole2_310P8rtx_insnPP7rtx_def @7198
    _Z17gen_peephole2_311P8rtx_insnPP7rtx_def @7199
    _Z17gen_peephole2_312P8rtx_insnPP7rtx_def @7200
    _Z17gen_peephole2_313P8rtx_insnPP7rtx_def @7201
    _Z17gen_peephole2_314P8rtx_insnPP7rtx_def @7202
    _Z17gen_peephole2_315P8rtx_insnPP7rtx_def @7203
    _Z17gen_peephole2_316P8rtx_insnPP7rtx_def @7204
    _Z17gen_peephole2_317P8rtx_insnPP7rtx_def @7205
    _Z17gen_peephole2_318P8rtx_insnPP7rtx_def @7206
    _Z17gen_peephole2_319P8rtx_insnPP7rtx_def @7207
    _Z17gen_popcountv2di2P7rtx_defS0_ @7208
    _Z17gen_popcountv4di2P7rtx_defS0_ @7209
    _Z17gen_popcountv4si2P7rtx_defS0_ @7210
    _Z17gen_popcountv8di2P7rtx_defS0_ @7211
    _Z17gen_popcountv8hi2P7rtx_defS0_ @7212
    _Z17gen_popcountv8si2P7rtx_defS0_ @7213
    _Z17gen_rtx_CONST_INT12machine_modex @7214
    _Z17gen_rtx_EXPR_LIST12machine_modeP7rtx_defS1_ @7215
    _Z17gen_rtx_INSN_LIST12machine_modeP7rtx_defS1_ @7216
    _Z17gen_sdot_prodv4siP7rtx_defS0_S0_S0_ @7217
    _Z17gen_sdot_prodv8hiP7rtx_defS0_S0_S0_ @7218
    _Z17gen_set_got_rex64P7rtx_def @7219
    _Z17gen_set_rip_rex64P7rtx_defS0_ @7220
    _Z17gen_setcc_hf_maskP7rtx_defS0_S0_S0_ @7221
    _Z17gen_sibcall_valueP7rtx_defS0_S0_S0_ @7222
    _Z17gen_signbitv16sf2P7rtx_defS0_ @7223
    _Z17gen_simple_returnv @7224
    _Z17gen_smulhrsv16hi3P7rtx_defS0_S0_ @7225
    _Z17gen_smulhrsv32hi3P7rtx_defS0_S0_ @7226
    _Z17gen_sse2_cvtdq2pdP7rtx_defS0_ @7227
    _Z17gen_sse2_cvtpd2dqP7rtx_defS0_ @7228
    _Z17gen_sse2_cvtpd2piP7rtx_defS0_ @7229
    _Z17gen_sse2_cvtpd2psP7rtx_defS0_ @7230
    _Z17gen_sse2_cvtpi2pdP7rtx_defS0_ @7231
    _Z17gen_sse2_cvtps2pdP7rtx_defS0_ @7232
    _Z17gen_sse2_cvtsd2siP7rtx_defS0_ @7233
    _Z17gen_sse2_cvtsd2ssP7rtx_defS0_S0_ @7234
    _Z17gen_sse2_cvtsi2sdP7rtx_defS0_S0_ @7235
    _Z17gen_sse2_cvtss2sdP7rtx_defS0_S0_ @7236
    _Z17gen_sse2_divv2df3P7rtx_defS0_S0_ @7237
    _Z17gen_sse2_movmskpdP7rtx_defS0_ @7238
    _Z17gen_sse2_movntidiP7rtx_defS0_ @7239
    _Z17gen_sse2_movntisiP7rtx_defS0_ @7240
    _Z17gen_sse2_packssdwP7rtx_defS0_S0_ @7241
    _Z17gen_sse2_packsswbP7rtx_defS0_S0_ @7242
    _Z17gen_sse2_packuswbP7rtx_defS0_S0_ @7243
    _Z17gen_sse2_pmovmskbP7rtx_defS0_ @7244
    _Z17gen_sse2_pshufd_1P7rtx_defS0_S0_S0_S0_S0_ @7245
    _Z17gen_sse2_storehpdP7rtx_defS0_ @7246
    _Z17gen_sse2_storelpdP7rtx_defS0_ @7247
    _Z17gen_sse3_movshdupP7rtx_defS0_ @7248
    _Z17gen_sse3_movsldupP7rtx_defS0_ @7249
    _Z17gen_sse4_1_pinsrbP7rtx_defS0_S0_S0_ @7250
    _Z17gen_sse4_1_pinsrdP7rtx_defS0_S0_S0_ @7251
    _Z17gen_sse4_1_pinsrqP7rtx_defS0_S0_S0_ @7252
    _Z17gen_sse4a_insertqP7rtx_defS0_S0_ @7253
    _Z17gen_sse4a_movntdfP7rtx_defS0_ @7254
    _Z17gen_sse4a_movntsfP7rtx_defS0_ @7255
    _Z17gen_sse_cvtsi2ssqP7rtx_defS0_S0_ @7256
    _Z17gen_sse_cvtss2siqP7rtx_defS0_ @7257
    _Z17gen_sse_cvttps2piP7rtx_defS0_ @7258
    _Z17gen_sse_cvttss2siP7rtx_defS0_ @7259
    _Z17gen_sse_movntv4sfP7rtx_defS0_ @7260
    _Z17gen_sse_sqrtv4sf2P7rtx_defS0_ @7261
    _Z17gen_subborrowdi_0P7rtx_defS0_S0_ @7262
    _Z17gen_subborrowsi_0P7rtx_defS0_S0_ @7263
    _Z17gen_subv2df3_maskP7rtx_defS0_S0_S0_S0_ @7264
    _Z17gen_subv2di3_maskP7rtx_defS0_S0_S0_S0_ @7265
    _Z17gen_subv4df3_maskP7rtx_defS0_S0_S0_S0_ @7266
    _Z17gen_subv4di3_maskP7rtx_defS0_S0_S0_S0_ @7267
    _Z17gen_subv4sf3_maskP7rtx_defS0_S0_S0_S0_ @7268
    _Z17gen_subv4si3_maskP7rtx_defS0_S0_S0_S0_ @7269
    _Z17gen_subv8df3_maskP7rtx_defS0_S0_S0_S0_ @7270
    _Z17gen_subv8di3_maskP7rtx_defS0_S0_S0_S0_ @7271
    _Z17gen_subv8hf3_maskP7rtx_defS0_S0_S0_S0_ @7272
    _Z17gen_subv8hi3_maskP7rtx_defS0_S0_S0_S0_ @7273
    _Z17gen_subv8sf3_maskP7rtx_defS0_S0_S0_S0_ @7274
    _Z17gen_subv8si3_maskP7rtx_defS0_S0_S0_S0_ @7275
    _Z17gen_tbm_bextri_diP7rtx_defS0_S0_S0_ @7276
    _Z17gen_tbm_bextri_siP7rtx_defS0_S0_S0_ @7277
    _Z17gen_testdi_ccno_1P7rtx_defS0_ @7278
    _Z17gen_testsi_ccno_1P7rtx_defS0_ @7279
    _Z17gen_tmp_stack_mem12machine_modeP7rtx_def @7280
    _Z17gen_vaesdec_v16qiP7rtx_defS0_S0_ @7281
    _Z17gen_vaesdec_v32qiP7rtx_defS0_S0_ @7282
    _Z17gen_vaesdec_v64qiP7rtx_defS0_S0_ @7283
    _Z17gen_vaesenc_v16qiP7rtx_defS0_S0_ @7284
    _Z17gen_vaesenc_v32qiP7rtx_defS0_S0_ @7285
    _Z17gen_vaesenc_v64qiP7rtx_defS0_S0_ @7286
    _Z17gen_vcondv2dfv2dfP7rtx_defS0_S0_S0_S0_S0_ @7287
    _Z17gen_vcondv2dfv2diP7rtx_defS0_S0_S0_S0_S0_ @7288
    _Z17gen_vcondv2dfv4sfP7rtx_defS0_S0_S0_S0_S0_ @7289
    _Z17gen_vcondv2dfv4siP7rtx_defS0_S0_S0_S0_S0_ @7290
    _Z17gen_vcondv2dfv8hiP7rtx_defS0_S0_S0_S0_S0_ @7291
    _Z17gen_vcondv2div2dfP7rtx_defS0_S0_S0_S0_S0_ @7292
    _Z17gen_vcondv2div2diP7rtx_defS0_S0_S0_S0_S0_ @7293
    _Z17gen_vcondv2div4sfP7rtx_defS0_S0_S0_S0_S0_ @7294
    _Z17gen_vcondv2div4siP7rtx_defS0_S0_S0_S0_S0_ @7295
    _Z17gen_vcondv2div8hiP7rtx_defS0_S0_S0_S0_S0_ @7296
    _Z17gen_vcondv2hiv2hiP7rtx_defS0_S0_S0_S0_S0_ @7297
    _Z17gen_vcondv2qiv2qiP7rtx_defS0_S0_S0_S0_S0_ @7298
    _Z17gen_vcondv2sfv2sfP7rtx_defS0_S0_S0_S0_S0_ @7299
    _Z17gen_vcondv2sfv2siP7rtx_defS0_S0_S0_S0_S0_ @7300
    _Z17gen_vcondv2sfv4hiP7rtx_defS0_S0_S0_S0_S0_ @7301
    _Z17gen_vcondv2sfv8qiP7rtx_defS0_S0_S0_S0_S0_ @7302
    _Z17gen_vcondv2siv2sfP7rtx_defS0_S0_S0_S0_S0_ @7303
    _Z17gen_vcondv2siv2siP7rtx_defS0_S0_S0_S0_S0_ @7304
    _Z17gen_vcondv2siv4hiP7rtx_defS0_S0_S0_S0_S0_ @7305
    _Z17gen_vcondv2siv8qiP7rtx_defS0_S0_S0_S0_S0_ @7306
    _Z17gen_vcondv4dfv4dfP7rtx_defS0_S0_S0_S0_S0_ @7307
    _Z17gen_vcondv4dfv4diP7rtx_defS0_S0_S0_S0_S0_ @7308
    _Z17gen_vcondv4dfv8sfP7rtx_defS0_S0_S0_S0_S0_ @7309
    _Z17gen_vcondv4dfv8siP7rtx_defS0_S0_S0_S0_S0_ @7310
    _Z17gen_vcondv4div4dfP7rtx_defS0_S0_S0_S0_S0_ @7311
    _Z17gen_vcondv4div4diP7rtx_defS0_S0_S0_S0_S0_ @7312
    _Z17gen_vcondv4div8sfP7rtx_defS0_S0_S0_S0_S0_ @7313
    _Z17gen_vcondv4div8siP7rtx_defS0_S0_S0_S0_S0_ @7314
    _Z17gen_vcondv4hiv2siP7rtx_defS0_S0_S0_S0_S0_ @7315
    _Z17gen_vcondv4hiv4hiP7rtx_defS0_S0_S0_S0_S0_ @7316
    _Z17gen_vcondv4hiv8qiP7rtx_defS0_S0_S0_S0_S0_ @7317
    _Z17gen_vcondv4qiv4qiP7rtx_defS0_S0_S0_S0_S0_ @7318
    _Z17gen_vcondv4sfv2dfP7rtx_defS0_S0_S0_S0_S0_ @7319
    _Z17gen_vcondv4sfv4sfP7rtx_defS0_S0_S0_S0_S0_ @7320
    _Z17gen_vcondv4sfv4siP7rtx_defS0_S0_S0_S0_S0_ @7321
    _Z17gen_vcondv4sfv8hiP7rtx_defS0_S0_S0_S0_S0_ @7322
    _Z17gen_vcondv4siv2dfP7rtx_defS0_S0_S0_S0_S0_ @7323
    _Z17gen_vcondv4siv4sfP7rtx_defS0_S0_S0_S0_S0_ @7324
    _Z17gen_vcondv4siv4siP7rtx_defS0_S0_S0_S0_S0_ @7325
    _Z17gen_vcondv4siv8hiP7rtx_defS0_S0_S0_S0_S0_ @7326
    _Z17gen_vcondv8dfv8dfP7rtx_defS0_S0_S0_S0_S0_ @7327
    _Z17gen_vcondv8dfv8diP7rtx_defS0_S0_S0_S0_S0_ @7328
    _Z17gen_vcondv8div8dfP7rtx_defS0_S0_S0_S0_S0_ @7329
    _Z17gen_vcondv8div8diP7rtx_defS0_S0_S0_S0_S0_ @7330
    _Z17gen_vcondv8hfv8hfP7rtx_defS0_S0_S0_S0_S0_ @7331
    _Z17gen_vcondv8hfv8hiP7rtx_defS0_S0_S0_S0_S0_ @7332
    _Z17gen_vcondv8hiv2dfP7rtx_defS0_S0_S0_S0_S0_ @7333
    _Z17gen_vcondv8hiv4sfP7rtx_defS0_S0_S0_S0_S0_ @7334
    _Z17gen_vcondv8hiv4siP7rtx_defS0_S0_S0_S0_S0_ @7335
    _Z17gen_vcondv8hiv8hfP7rtx_defS0_S0_S0_S0_S0_ @7336
    _Z17gen_vcondv8hiv8hiP7rtx_defS0_S0_S0_S0_S0_ @7337
    _Z17gen_vcondv8qiv2siP7rtx_defS0_S0_S0_S0_S0_ @7338
    _Z17gen_vcondv8qiv4hiP7rtx_defS0_S0_S0_S0_S0_ @7339
    _Z17gen_vcondv8qiv8qiP7rtx_defS0_S0_S0_S0_S0_ @7340
    _Z17gen_vcondv8sfv4dfP7rtx_defS0_S0_S0_S0_S0_ @7341
    _Z17gen_vcondv8sfv4diP7rtx_defS0_S0_S0_S0_S0_ @7342
    _Z17gen_vcondv8sfv8sfP7rtx_defS0_S0_S0_S0_S0_ @7343
    _Z17gen_vcondv8sfv8siP7rtx_defS0_S0_S0_S0_S0_ @7344
    _Z17gen_vcondv8siv4dfP7rtx_defS0_S0_S0_S0_S0_ @7345
    _Z17gen_vcondv8siv4diP7rtx_defS0_S0_S0_S0_S0_ @7346
    _Z17gen_vcondv8siv8sfP7rtx_defS0_S0_S0_S0_S0_ @7347
    _Z17gen_vcondv8siv8siP7rtx_defS0_S0_S0_S0_S0_ @7348
    _Z17gen_vec_cmpv2dfqiP7rtx_defS0_S0_S0_ @7349
    _Z17gen_vec_cmpv2diqiP7rtx_defS0_S0_S0_ @7350
    _Z17gen_vec_cmpv4dfqiP7rtx_defS0_S0_S0_ @7351
    _Z17gen_vec_cmpv4diqiP7rtx_defS0_S0_S0_ @7352
    _Z17gen_vec_cmpv4sfqiP7rtx_defS0_S0_S0_ @7353
    _Z17gen_vec_cmpv4siqiP7rtx_defS0_S0_S0_ @7354
    _Z17gen_vec_cmpv8dfqiP7rtx_defS0_S0_S0_ @7355
    _Z17gen_vec_cmpv8diqiP7rtx_defS0_S0_S0_ @7356
    _Z17gen_vec_cmpv8hfqiP7rtx_defS0_S0_S0_ @7357
    _Z17gen_vec_cmpv8hiqiP7rtx_defS0_S0_S0_ @7358
    _Z17gen_vec_cmpv8sfqiP7rtx_defS0_S0_S0_ @7359
    _Z17gen_vec_cmpv8siqiP7rtx_defS0_S0_S0_ @7360
    _Z17gen_vec_duplicate12machine_modeP7rtx_def @7361
    _Z17gen_vec_permv16hfP7rtx_defS0_S0_S0_ @7362
    _Z17gen_vec_permv16hiP7rtx_defS0_S0_S0_ @7363
    _Z17gen_vec_permv16qiP7rtx_defS0_S0_S0_ @7364
    _Z17gen_vec_permv16sfP7rtx_defS0_S0_S0_ @7365
    _Z17gen_vec_permv16siP7rtx_defS0_S0_S0_ @7366
    _Z17gen_vec_permv32hfP7rtx_defS0_S0_S0_ @7367
    _Z17gen_vec_permv32hiP7rtx_defS0_S0_S0_ @7368
    _Z17gen_vec_permv32qiP7rtx_defS0_S0_S0_ @7369
    _Z17gen_vec_permv64qiP7rtx_defS0_S0_S0_ @7370
    _Z17gen_vec_setv2df_0P7rtx_defS0_S0_ @7371
    _Z17gen_vec_setv4df_0P7rtx_defS0_S0_ @7372
    _Z17gen_vec_setv4di_0P7rtx_defS0_S0_ @7373
    _Z17gen_vec_setv4sf_0P7rtx_defS0_S0_ @7374
    _Z17gen_vec_setv4si_0P7rtx_defS0_S0_ @7375
    _Z17gen_vec_setv8df_0P7rtx_defS0_S0_ @7376
    _Z17gen_vec_setv8di_0P7rtx_defS0_S0_ @7377
    _Z17gen_vec_setv8hf_0P7rtx_defS0_S0_ @7378
    _Z17gen_vec_setv8hi_0P7rtx_defS0_S0_ @7379
    _Z17gen_vec_setv8sf_0P7rtx_defS0_S0_ @7380
    _Z17gen_vec_setv8si_0P7rtx_defS0_S0_ @7381
    _Z17gen_vec_shl_v16qiP7rtx_defS0_S0_ @7382
    _Z17gen_vec_shr_v16qiP7rtx_defS0_S0_ @7383
    _Z17gen_vpdpbusd_v4siP7rtx_defS0_S0_S0_ @7384
    _Z17gen_vpdpbusd_v8siP7rtx_defS0_S0_S0_ @7385
    _Z17gen_vpdpwssd_v4siP7rtx_defS0_S0_S0_ @7386
    _Z17gen_vpdpwssd_v8siP7rtx_defS0_S0_S0_ @7387
    _Z17gen_vpopcountv2diP7rtx_defS0_ @7388
    _Z17gen_vpopcountv4diP7rtx_defS0_ @7389
    _Z17gen_vpopcountv4siP7rtx_defS0_ @7390
    _Z17gen_vpopcountv8diP7rtx_defS0_ @7391
    _Z17gen_vpopcountv8hiP7rtx_defS0_ @7392
    _Z17gen_vpopcountv8siP7rtx_defS0_ @7393
    _Z17gen_vpshldv_v16hiP7rtx_defS0_S0_S0_ @7394
    _Z17gen_vpshldv_v16siP7rtx_defS0_S0_S0_ @7395
    _Z17gen_vpshldv_v32hiP7rtx_defS0_S0_S0_ @7396
    _Z17gen_vpshrdv_v16hiP7rtx_defS0_S0_S0_ @7397
    _Z17gen_vpshrdv_v16siP7rtx_defS0_S0_S0_ @7398
    _Z17gen_vpshrdv_v32hiP7rtx_defS0_S0_S0_ @7399
    _Z17gen_xop_frczv2df2P7rtx_defS0_ @7400
    _Z17gen_xop_frczv4df2P7rtx_defS0_ @7401
    _Z17gen_xop_frczv4sf2P7rtx_defS0_ @7402
    _Z17gen_xop_frczv8sf2P7rtx_defS0_ @7403
    _Z17gen_xop_pmacssdqhP7rtx_defS0_S0_S0_ @7404
    _Z17gen_xop_pmacssdqlP7rtx_defS0_S0_S0_ @7405
    _Z17gen_xop_pmadcsswdP7rtx_defS0_S0_S0_ @7406
    _Z17gen_xop_rotlv2di3P7rtx_defS0_S0_ @7407
    _Z17gen_xop_rotlv4si3P7rtx_defS0_S0_ @7408
    _Z17gen_xop_rotlv8hi3P7rtx_defS0_S0_ @7409
    _Z17gen_xop_rotrv2di3P7rtx_defS0_S0_ @7410
    _Z17gen_xop_rotrv4si3P7rtx_defS0_S0_ @7411
    _Z17gen_xop_rotrv8hi3P7rtx_defS0_S0_ @7412
    _Z17gen_xop_shav16qi3P7rtx_defS0_S0_ @7413
    _Z17gen_xop_shlv16qi3P7rtx_defS0_S0_ @7414
    _Z17gen_xorsignv16hf3P7rtx_defS0_S0_ @7415
    _Z17gen_xorsignv16sf3P7rtx_defS0_S0_ @7416
    _Z17gen_xorsignv32hf3P7rtx_defS0_S0_ @7417
    _Z17gen_xorv2df3_maskP7rtx_defS0_S0_S0_S0_ @7418
    _Z17gen_xorv2di3_maskP7rtx_defS0_S0_S0_S0_ @7419
    _Z17gen_xorv4df3_maskP7rtx_defS0_S0_S0_S0_ @7420
    _Z17gen_xorv4di3_maskP7rtx_defS0_S0_S0_S0_ @7421
    _Z17gen_xorv4sf3_maskP7rtx_defS0_S0_S0_S0_ @7422
    _Z17gen_xorv4si3_maskP7rtx_defS0_S0_S0_S0_ @7423
    _Z17gen_xorv8df3_maskP7rtx_defS0_S0_S0_S0_ @7424
    _Z17gen_xorv8di3_maskP7rtx_defS0_S0_S0_S0_ @7425
    _Z17gen_xorv8sf3_maskP7rtx_defS0_S0_S0_S0_ @7426
    _Z17gen_xorv8si3_maskP7rtx_defS0_S0_S0_S0_ @7427
    _Z17gen_xrstors_rex64P7rtx_defS0_S0_ @7428
    _Z17get_attr_imm_dispP8rtx_insn @7429
    _Z17get_call_rtx_fromPK8rtx_insn @7430
    _Z17get_callee_fndeclPK9tree_node @7431
    _Z17get_compare_partsP9tree_nodePiP8rtx_codePS0_S4_ @7432
    _Z17get_dest_and_modeP7rtx_defPS0_P12machine_mode @7433
    _Z17get_ebb_head_tailP15basic_block_defS0_PP8rtx_insnS3_ @7434
    _Z17get_edit_distancePKcS0_ @7435
    _Z17get_edit_distancePKciS0_i @7436
    _Z17get_full_rtx_costP7rtx_def12machine_mode8rtx_codeiP14full_rtx_costs @7437
    _Z17get_insn_templateiP8rtx_insn @7438
    _Z17get_lang_specificP9tree_node @7439
    _Z17get_loop_hot_pathPK4loop @7440
    _Z17get_loop_locationP4loop @7441
    _Z17get_named_sectionP9tree_nodePKci @7442
    _Z17get_next_value_idv @7443
    _Z17get_nop_from_poolP8rtx_insn @7444
    _Z17get_pool_constantPK7rtx_def @7445
    _Z17get_pure_locationP9line_mapsj @7446
    _Z17get_range_pos_negP9tree_node @7447
    _Z17get_ready_elementi @7448
    _Z17get_related_valuePK7rtx_def @7449
    _Z17get_secondary_memP7rtx_def12machine_modei11reload_type @7450
    _Z17get_single_symbolP9tree_nodePbPS0_ @7451
    _Z17get_tm_clone_pairP9tree_node @7452
    _Z17get_unpadded_typei @7453
    _Z17ggc_free_overheadPv @7454
    _Z17ggc_pch_this_baseP12ggc_pch_dataPv @7455
    _Z17gimple_build_bindP9tree_nodeP6gimpleS0_ @7456
    _Z17gimple_build_callP9tree_nodejz @7457
    _Z17gimple_build_cond9tree_codeP9tree_nodeS1_S1_S1_ @7458
    _Z17gimple_build_gotoP9tree_node @7459
    _Z17gimple_build_resxi @7460
    _Z17gimple_call_flagsPK6gimple @7461
    _Z17gimple_debug_bb_ni @7462
    _Z17gimple_extract_opP6gimpleP15gimple_match_op @7463
    _Z17gimple_has_body_pP9tree_node @7464
    _Z17global_bindings_pv @7465
    _Z17gnat_protect_exprP9tree_node @7466
    _Z17group_case_labelsv @7467
    _Z17growth_positive_pP11cgraph_nodeP11cgraph_edgei @7468
    _Z17gsi_insert_beforeP20gimple_stmt_iteratorP6gimple19gsi_iterator_update @7469
    _Z17gt_ggc_mx_rtx_defPv @7470
    _Z17gt_ggc_mx_sectionPv @7471
    _Z17gt_pch_nx_rtx_defPv @7472
    _Z17gt_pch_nx_sectionPv @7473
    _Z17gt_pch_p_7rtx_defPvS_PFvS_S_S_ES_ @7474
    _Z17gt_pch_p_7sectionPvS_PFvS_S_S_ES_ @7475
    _Z17hashtab_chk_errorv @7476
    _Z17have_addptr3_insnP7rtx_defS0_S0_ @7477
    _Z17have_global_bss_pv @7478
    _Z17hook_rtx_rtx_nullP7rtx_def @7479
    _Z17hook_void_int_intii @7480
    _Z17hwasan_frame_basev @7481
    _Z17hwasan_sanitize_pv @7482
    _Z17identify_verticesP5graphii @7483
    _Z17immediate_operandP7rtx_def12machine_mode @7484
    _Z17infer_value_rangeP6gimpleP9tree_nodeP9tree_codePS2_ @7485
    _Z17init_alias_targetv @7486
    _Z17init_btf_sectionsv @7487
    _Z17init_ctf_sectionsv @7488
    _Z17init_insn_lengthsv @7489
    _Z17init_internal_fnsv @7490
    _Z17init_lower_subregv @7491
    _Z17init_object_sizesv @7492
    _Z17init_options_oncev @7493
    _Z17init_opts_obstackv @7494
    _Z17init_ssa_operandsP8function @7495
    _Z17init_target_charsv @7496
    _Z17initial_conditionP9tree_node @7497
    _Z17initializer_zeropPK9tree_nodePb @7498
    _Z17int_byte_positionPK9tree_node @7499
    _Z17int_mode_for_mode12machine_mode @7500
    _Z17int_mode_for_size8poly_intILj1EyEi @7501
    _Z17int_size_in_bytesPK9tree_node @7502
    _Z17integer_all_onespPK9tree_node @7503
    _Z17integer_each_onepPK9tree_node @7504
    _Z17integral_argumentPKcPib @7505
    _Z17ira_finish_assignv @7506
    _Z17ira_soft_conflictP11ira_allocnoS0_ @7507
    _Z17is_gimple_addressPK9tree_node @7508
    _Z17is_gimple_asm_valP9tree_node @7509
    _Z17is_gimple_reg_rhsP9tree_node @7510
    _Z17is_longjmp_call_pPK5gcall @7511
    _Z17is_simple_builtinP9tree_node @7512
    _Z17is_truth_type_forP9tree_nodeS0_ @7513
    _Z17iv_analyze_resultP8rtx_insnP7rtx_defP6rtx_iv @7514
    _Z17iv_can_overflow_pP4loopP9tree_nodeS2_S2_ @7515
    _Z17ix86_builtin_decljb @7516
    _Z17ix86_check_movabsP7rtx_defi @7517
    _Z17ix86_emit_swdivsfP7rtx_defS0_S0_12machine_mode @7518
    _Z17ix86_expand_clearP7rtx_def @7519
    _Z17ix86_expand_pextrPP7rtx_def @7520
    _Z17ix86_expand_pinsrPP7rtx_def @7521
    _Z17ix86_expand_reducPFP7rtx_defS0_S0_S0_ES0_S0_ @7522
    _Z17ix86_expand_roundP7rtx_defS0_ @7523
    _Z17ix86_expand_setccP7rtx_def8rtx_codeS0_S0_ @7524
    _Z17ix86_expand_truncP7rtx_defS0_ @7525
    _Z17ix86_function_abiPK9tree_node @7526
    _Z17ix86_match_ccmodeP7rtx_def12machine_mode @7527
    _Z17lhd_begin_sectionPKc @7528
    _Z17lhd_get_alias_setP9tree_node @7529
    _Z17lhd_gimplify_exprPP9tree_nodePP6gimpleS4_ @7530
    _Z17lhd_handle_optionyPKcxijPK18cl_option_handlers @7531
    _Z17lhd_type_for_sizeji @7532
    _Z17live_vars_at_stmtR3vecI11bitmap_head7va_heap6vl_ptrEP8hash_mapI8int_hashIjLj4294967295ELj4294967295EEj21simple_hashmap_traitsI19default_hash_traitsIS7_EjEEP6gimple @7533
    _Z17loc_descr_equal_pP17dw_loc_descr_nodeS0_ @7534
    _Z17lookup_stmt_eh_lpPK6gimple @7535
    _Z17lra_get_insn_regsi @7536
    _Z17lto_begin_sectionPKcb @7537
    _Z17lto_check_versioniiPKc @7538
    _Z17lto_streamer_initv @7539
    _Z17lto_tag_check_set8LTO_tagsiz @7540
    _Z17lto_write_optionsv @7541
    _Z17make_pass_asan_O0PN3gcc7contextE @7542
    _Z17make_pass_ch_vectPN3gcc7contextE @7543
    _Z17make_pass_combinePN3gcc7contextE @7544
    _Z17make_pass_inc_decPN3gcc7contextE @7545
    _Z17make_pass_ipa_icfPN3gcc7contextE @7546
    _Z17make_pass_ipa_odrPN3gcc7contextE @7547
    _Z17make_pass_ipa_ptaPN3gcc7contextE @7548
    _Z17make_pass_ipa_sraPN3gcc7contextE @7549
    _Z17make_pass_nothrowPN3gcc7contextE @7550
    _Z17make_pass_phipropPN3gcc7contextE @7551
    _Z17make_pass_predcomPN3gcc7contextE @7552
    _Z17make_pass_profilePN3gcc7contextE @7553
    _Z17make_pass_reassocPN3gcc7contextE @7554
    _Z17make_pass_rtl_prePN3gcc7contextE @7555
    _Z17make_pass_tm_initPN3gcc7contextE @7556
    _Z17make_pass_tm_markPN3gcc7contextE @7557
    _Z17make_pass_tsan_O0PN3gcc7contextE @7558
    _Z17make_pass_uncpropPN3gcc7contextE @7559
    _Z17make_pass_wallocaPN3gcc7contextE @7560
    _Z17may_be_sp_based_pP7rtx_def @7561
    _Z17maybe_expand_insn9insn_codejP14expand_operand @7562
    _Z17maybe_hot_count_pP8function13profile_count @7563
    _Z17min_align_of_typeP9tree_node @7564
    _Z17move_block_to_regiP7rtx_defi12machine_mode @7565
    _Z17move_replacementsPP7rtx_defS1_ @7566
    _Z17native_decode_rtx12machine_modeRK3vecIh7va_heap6vl_ptrEj @7567
    _Z17native_encode_rtx12machine_modeP7rtx_defR3vecIh7va_heap6vl_ptrEjj @7568
    _Z17need_ssa_update_pP8function @7569
    _Z17next_nonnote_insnP8rtx_insn @7570
    _Z17no_side_effect_bbP15basic_block_def @7571
    _Z17nonbarrier_call_pP6gimple @7572
    _Z17nonfreeing_call_pP6gimple @7573
    _Z17nonmemory_operandP7rtx_def12machine_mode @7574
    _Z17nonzero_address_pPK7rtx_def @7575
    _Z17num_loop_branchesPK4loop @7576
    _Z17omp_build_barrierP9tree_node @7577
    _Z17opt_info_switch_pPKc @7578
    _Z17output_addr_constP6_iobufP7rtx_def @7579
    _Z17output_dependencePK7rtx_defS1_ @7580
    _Z17output_fp_compareP8rtx_insnPP7rtx_defbb @7581
    _Z17parse_dump_optionPKcPS0_ @7582
    _Z17pass_by_referenceP9ix86_args17function_arg_info @7583
    _Z17pic_32bit_operandP7rtx_def12machine_mode @7584
    _Z17post_error_ne_numPKciii @7585
    _Z17pp_destroy_prefixP14pretty_printer @7586
    _Z17pp_formatted_textP14pretty_printer @7587
    _Z17prepare_copy_insnP7rtx_defS0_ @7588
    _Z17prev_nonnote_insnP8rtx_insn @7589
    _Z17print_declarationP14pretty_printerP9tree_nodei9dump_flag @7590
    _Z17print_dir_vectorsP6_iobuf3vecIPx7va_heap6vl_ptrEi @7591
    _Z17print_gimple_exprP6_iobufP6gimplei9dump_flag @7592
    _Z17print_gimple_stmtP6_iobufP6gimplei9dump_flag @7593
    _Z17print_reservationP6_iobufP8rtx_insn @7594
    _Z17print_rtl_with_bbP6_iobufPK8rtx_insn9dump_flag @7595
    _Z17print_scop_paramsP6_iobufP4scop @7596
    _Z17probe_stack_rangexP7rtx_def @7597
    _Z17prologue_containsPK8rtx_insn @7598
    _Z17promote_decl_modePK9tree_nodePi @7599
    _Z17pt_solution_resetP11pt_solution @7600
    _Z17push_to_sequence2P8rtx_insnS0_ @7601
    _Z17range_fits_type_pPK9int_rangeILj1EEj6signop @7602
    _Z17raw_optab_handlerj @7603
    _Z17read_autofdo_filev @7604
    _Z17read_complex_partP7rtx_defb @7605
    _Z17real_from_integerP10real_value13format_helperRK16generic_wide_intI20wide_int_ref_storageILb0ELb1EEE6signop @7606
    _Z17real_from_string2PKc13format_helper @7607
    _Z17real_from_string3P10real_valuePKc13format_helper @7608
    _Z17real_value_negatePK10real_value @7609
    _Z17really_constant_pPK9tree_node @7610
    _Z17record_conditionsP3vecI16cond_equivalence7va_heap6vl_ptrEP9tree_nodeS6_ @7611
    _Z17record_final_callP9tree_nodej @7612
    _Z17record_loop_exitsv @7613
    _Z17refers_to_regno_pjjPK7rtx_defPPS_ @7614
    _Z17reg_allocno_classi @7615
    _Z17reg_set_between_pPK7rtx_defPK8rtx_insnS4_ @7616
    _Z17register_odr_enumP9tree_node @7617
    _Z17register_odr_typeP9tree_node @7618
    _Z17regno_clobbered_pjP8rtx_insn12machine_modei @7619
    _Z17regrename_analyzeP11bitmap_headb @7620
    _Z17relate_alias_setsP9tree_nodeS0_12alias_set_op @7621
    _Z17remove_eh_handlerP11eh_region_d @7622
    _Z17remove_fake_edgesv @7623
    _Z17reverse_condition8rtx_code @7624
    _Z17rhs_predicate_forP9tree_node @7625
    _Z17rtvec_all_equal_pPK9rtvec_def @7626
    _Z17rtx_addr_varies_pPK7rtx_defb @7627
    _Z17scev_analyzable_pP9tree_nodeR6sese_l @7628
    _Z17sched_deps_finishv @7629
    _Z17sd_copy_back_depsP8rtx_insnS0_b @7630
    _Z17set_for_reg_notesP7rtx_def @7631
    _Z17set_mem_alias_setP7rtx_defi @7632
    _Z17set_modulo_paramsiiii @7633
    _Z17set_optab_libfunc9optab_tag12machine_modePKc @7634
    _Z17set_writeonly_bitP12varpool_nodePv @7635
    _Z17setup_reg_classesi9reg_classS_S_ @7636
    _Z17sign_expand_binop12machine_mode9optab_tagS0_P7rtx_defS2_S2_i13optab_methods @7637
    _Z17simple_edge_hintsP11cgraph_edge @7638
    _Z17size_in_bytes_locjPK9tree_node @7639
    _Z17sparseset_equal_pP13sparseset_defS0_ @7640
    _Z17split_double_mode12machine_modePP7rtx_defiS2_S2_ @7641
    _Z17split_edge_bb_locP8edge_def @7642
    _Z17ssa_redirect_edgeP8edge_defP15basic_block_def @7643
    _Z17state_dead_lock_pPv @7644
    _Z17statistics_fini_1PP18statistics_counterP8opt_pass @7645
    _Z17streamer_read_hwiP15lto_input_block @7646
    _Z17strip_array_typesP9tree_node @7647
    _Z17supports_one_onlyv @7648
    _Z17swap_optab_enable9optab_tag12machine_modeb @7649
    _Z17swap_ssa_operandsP6gimplePP9tree_nodeS3_ @7650
    _Z17switch_to_sectionP7sectionP9tree_node @7651
    _Z17target_char_cst_pP9tree_nodePc @7652
    _Z17tidy_control_flowP15basic_block_defb @7653
    _Z17timevar_cond_stop12timevar_id_tb @7654
    _Z17tree_could_trap_pP9tree_node @7655
    _Z17tree_mem_ref_addrP9tree_nodeS0_ @7656
    _Z17tree_nonzero_bitsPK9tree_node @7657
    _Z17truncated_to_mode12machine_modePK7rtx_def @7658
    _Z17typedef_variant_pPK9tree_node @7659
    _Z17ubsan_create_dataPKciPKjz @7660
    _Z17unchecked_convertP9tree_nodeS0_b @7661
    _Z17unlink_insn_chainP8rtx_insnS0_ @7662
    _Z17unsigned_type_forP9tree_node @7663
    _Z17update_alignmentsR3vecIP7rtx_def7va_heap6vl_ptrE @7664
    _Z17update_pointer_toP9tree_nodeS0_ @7665
    _Z17used_types_insertP9tree_node @7666
    _Z17vect_analyze_loopP4loopP15vec_info_shared @7667
    _Z17vect_analyze_stmtP8vec_infoP14_stmt_vec_infoPbP9_slp_treeP13_slp_instanceP3vecI18stmt_info_for_cost7va_heap6vl_ptrE @7668
    _Z17vect_get_loop_lenP14_loop_vec_infoP8auto_vecI15rgroup_controlsLy0EEjj @7669
    _Z17vect_get_slp_defsP8vec_infoP9_slp_treeP3vecIS3_IP9tree_node7va_heap6vl_ptrES6_S7_Ej @7670
    _Z17vect_get_slp_defsP9_slp_treeP3vecIP9tree_node7va_heap6vl_ptrE @7671
    _Z17vect_get_vec_defsP8vec_infoP14_stmt_vec_infoP9_slp_treejP9tree_nodeP3vecIS6_7va_heap6vl_ptrES6_S6_SB_S6_S6_SB_S6_S6_SB_S6_ @7672
    _Z17vect_get_vec_defsP8vec_infoP14_stmt_vec_infoP9_slp_treejP9tree_nodeP3vecIS6_7va_heap6vl_ptrES6_SB_S6_SB_S6_SB_ @7673
    _Z17vect_optimize_slpP8vec_info @7674
    _Z17vect_schedule_slpP8vec_infoRK3vecIP13_slp_instance7va_heap6vl_ptrE @7675
    _Z17vect_slp_functionP8function @7676
    _Z17verify_dominators13cdi_direction @7677
    _Z17verify_histogramsv @7678
    _Z17verify_insn_chainv @7679
    _Z17vsib_mem_operatorP7rtx_def12machine_mode @7680
    _Z17vtbl_map_get_nodeP9tree_node @7681
    _Z17x86_emit_floatunsPP7rtx_def @7682
    _Z18GOT_memory_operandP7rtx_def12machine_mode @7683
    _Z18HONOR_SIGNED_ZEROS12machine_mode @7684
    _Z18HONOR_SIGNED_ZEROSPK7rtx_def @7685
    _Z18HONOR_SIGNED_ZEROSPK9tree_node @7686
    _Z18_cpp_backup_tokensP10cpp_readerj @7687
    _Z18add_args_size_noteP8rtx_insn8poly_intILj1ExE @7688
    _Z18add_auto_inc_notesP8rtx_insnP7rtx_def @7689
    _Z18add_field_for_namePP16name_to_copy_eltP9tree_node @7690
    _Z18add_name_attributeP10die_structPKc @7691
    _Z18add_phi_node_to_bbP4gphiP15basic_block_def @7692
    _Z18add_stmt_with_nodeP9tree_nodei @7693
    _Z18addsub_vm_operatorP7rtx_def12machine_mode @7694
    _Z18addsub_vs_operatorP7rtx_def12machine_mode @7695
    _Z18addsub_vs_parallelP7rtx_def12machine_mode @7696
    _Z18alloc_aux_for_edgeP8edge_defi @7697
    _Z18apply_change_groupv @7698
    _Z18arith_overflowed_p9tree_codePK9tree_nodeS2_S2_ @7699
    _Z18array_ref_up_boundP9tree_node @7700
    _Z18assign_stack_local12machine_mode8poly_intILj1ExEi @7701
    _Z18av_set_iter_removeP14_list_iterator @7702
    _Z18begin_subprog_bodyP9tree_node @7703
    _Z18binary_fp_operatorP7rtx_def12machine_mode @7704
    _Z18bitmap_clear_rangeP11bitmap_headjj @7705
    _Z18bitmap_clear_rangeP17simple_bitmap_defjj @7706
    _Z18bitmap_intersect_pPK11bitmap_headS1_ @7707
    _Z18bitmap_intersect_pPK17simple_bitmap_defS1_ @7708
    _Z18bitmap_vector_onesPP17simple_bitmap_defj @7709
    _Z18block_may_fallthruPK9tree_node @7710
    _Z18build_aligned_typeP9tree_nodej @7711
    _Z18build_all_ones_cstP9tree_node @7712
    _Z18build_array_type_1P9tree_nodeS0_bbb @7713
    _Z18build_atomic_storeP9tree_nodeS0_b @7714
    _Z18build_complex_typeP9tree_nodeb @7715
    _Z18build_each_one_cstP9tree_node @7716
    _Z18build_index_vectorP9tree_node8poly_intILj1EyES2_ @7717
    _Z18build_int_cst_typeP9tree_node8poly_intILj1ExE @7718
    _Z18build_pointer_typeP9tree_node @7719
    _Z18build_poly_int_cstP9tree_nodeRK8poly_intILj1E16generic_wide_intI20wide_int_ref_storageILb0ELb1EEEE @7720
    _Z18build_predict_expr12br_predictor10prediction @7721
    _Z18build_sinatan_realP10real_valueP9tree_node @7722
    _Z18called_as_built_inP9tree_node @7723
    _Z18can_merge_blocks_pP15basic_block_defS0_ @7724
    _Z18can_move_by_piecesyj @7725
    _Z18can_throw_externalPK7rtx_def @7726
    _Z18can_throw_internalPK7rtx_def @7727
    _Z18can_vec_perm_var_p12machine_mode @7728
    _Z18cgraph_cc_finalizev @7729
    _Z18check_asm_operandsP7rtx_def @7730
    _Z18compare_base_declsP9tree_nodeS0_ @7731
    _Z18compatible_calls_pP5gcallS0_ @7732
    _Z18component_ref_sizeP9tree_nodeP20special_array_member @7733
    _Z18compute_alignmentsv @7734
    _Z18compute_fn_summaryP11cgraph_nodeb @7735
    _Z18compute_prioritiesv @7736
    _Z18compute_succs_infoP8rtx_insns @7737
    _Z18constant_address_pP7rtx_def @7738
    _Z18constant_pool_htabv @7739
    _Z18constrain_operandsiy @7740
    _Z18contains_mem_rtx_pP7rtx_def @7741
    _Z18convert_to_complexP9tree_nodeS0_ @7742
    _Z18convert_to_integerP9tree_nodeS0_ @7743
    _Z18convert_to_pointerP9tree_nodeS0_ @7744
    _Z18copy_rtx_if_sharedP7rtx_def @7745
    _Z18cpp_check_utf8_bomPKcy @7746
    _Z18cpp_compare_macrosPK9cpp_macroS1_ @7747
    _Z18cpp_errno_filenameP10cpp_reader20cpp_diagnostic_levelPKcj @7748
    _Z18cpp_read_main_fileP10cpp_readerPKcb @7749
    _Z18cpp_userdef_char_p9cpp_ttype @7750
    _Z18cpp_warning_syshdrP10cpp_reader18cpp_warning_reasonPKcz @7751
    _Z18create_basic_blockP6gimpleP15basic_block_def @7752
    _Z18create_basic_blockP7rtx_defS0_P15basic_block_def @7753
    _Z18create_concat_nameiPKc @7754
    _Z18create_new_def_forP9tree_nodeP6gimplePS0_ @7755
    _Z18create_tmp_var_rawP9tree_nodePKc @7756
    _Z18cselib_clear_tablev @7757
    _Z18cselib_reset_tablej @7758
    _Z18ctf_add_enumeratorP13ctf_containeryPKcxP10die_struct @7759
    _Z18ctfc_delete_strtabP12ctf_strtable @7760
    _Z18curr_insn_locationv @7761
    _Z18dbxout_begin_stabni @7762
    _Z18dconst_quarter_ptrv @7763
    _Z18debug_dependenciesP8rtx_insnS0_ @7764
    _Z18debug_generic_exprP9tree_node @7765
    _Z18debug_generic_stmtP9tree_node @7766
    _Z18debug_hard_reg_set12HARD_REG_SET @7767
    _Z18debug_isl_scheduleP12isl_schedule @7768
    _Z18debug_nothing_treeP9tree_node @7769
    _Z18debug_nothing_voidv @7770
    _Z18debug_schedule_astP12isl_scheduleP4scop @7771
    _Z18debug_scop_contextP4scop @7772
    _Z18debug_scope_blocks9dump_flag @7773
    _Z18decimal_do_comparePK10real_valueS1_i @7774
    _Z18decl_replaceable_pP9tree_nodeb @7775
    _Z18default_file_startv @7776
    _Z18delete_basic_blockP15basic_block_def @7777
    _Z18delete_insns_sinceP8rtx_insn @7778
    _Z18destroy_gnat_utilsv @7779
    _Z18df_analyze_problemP8dataflowP11bitmap_headPii @7780
    _Z18df_epilogue_uses_pj @7781
    _Z18df_hard_reg_used_pj @7782
    _Z18df_insn_rescan_allv @7783
    _Z18df_mir_add_problemv @7784
    _Z18df_recompute_luidsP15basic_block_def @7785
    _Z18df_refs_chain_dumpP8df_ref_dbP6_iobuf @7786
    _Z18df_regs_chain_dumpP8df_ref_dP6_iobuf @7787
    _Z18df_simple_dataflow11df_flow_dirPFvP11bitmap_headEPFvP15basic_block_defEPFbP8edge_defEPFbiES1_Pii @7788
    _Z18dfs_enumerate_fromP15basic_block_defiPFbPKS_PKvEPS0_iS4_ @7789
    _Z18do_assemble_symverP9tree_nodeS0_ @7790
    _Z18double_int_to_treeP9tree_node10double_int @7791
    _Z18dr_equal_offsets_pP14data_referenceS0_ @7792
    _Z18drop_tree_overflowP9tree_node @7793
    _Z18dse_classify_storeP6ao_refP6gimplebP17simple_bitmap_defPbP9tree_node @7794
    _Z18dump_bitmap_vectorP6_iobufPKcS2_PP17simple_bitmap_defi @7795
    _Z18dump_combine_statsP6_iobuf @7796
    _Z18dump_location_infoP6_iobuf @7797
    _Z18dump_memory_reportPKc @7798
    _Z18dump_recorded_exitPP9loop_exitP6_iobuf @7799
    _Z18duplicate_reg_noteP7rtx_def @7800
    _Z18duplicate_subloopsP4loopS0_ @7801
    _Z18dw_cfi_oprnd1_desc21dwarf_call_frame_info @7802
    _Z18dw_cfi_oprnd2_desc21dwarf_call_frame_info @7803
    _Z18dwarf2out_do_framev @7804
    _Z18dwarf2out_emit_cfiP11dw_cfi_node @7805
    _Z18eligible_for_delayP8rtx_insniS0_i @7806
    _Z18emit_barrier_afterP8rtx_insn @7807
    _Z18emit_indirect_jumpP7rtx_def @7808
    _Z18emit_insn_at_entryP7rtx_def @7809
    _Z18emit_libcall_blockP8rtx_insnP7rtx_defS2_S2_ @7810
    _Z18emit_stack_restore10save_levelP7rtx_def @7811
    _Z18end_alias_analysisv @7812
    _Z18enqueue_referencesPP11symtab_nodeS0_ @7813
    _Z18estimate_move_costP9tree_nodeb @7814
    _Z18estimate_num_insnsP6gimpleP11eni_weights @7815
    _Z18exact_real_inverse13format_helperP10real_value @7816
    _Z18exchange_data_setsP15basic_block_defS0_ @7817
    _Z18execute_ranger_vrpP8functionb @7818
    _Z18expand_atomic_loadP7rtx_defS0_8memmodel @7819
    _Z18expand_expr_real_1P9tree_nodeP7rtx_def12machine_mode15expand_modifierPS2_b @7820
    _Z18expand_expr_real_2P12separate_opsP7rtx_def12machine_mode15expand_modifier @7821
    _Z18expand_null_returnv @7822
    _Z18expand_simd_clonesP11cgraph_node @7823
    _Z18expand_simple_unop12machine_mode8rtx_codeP7rtx_defS2_i @7824
    _Z18expand_twoval_unop9optab_tagP7rtx_defS1_S1_i @7825
    _Z18final_end_functionv @7826
    _Z18find_all_hard_regsPK7rtx_defP12HARD_REG_SET @7827
    _Z18find_loop_locationP4loop @7828
    _Z18finish_deps_globalv @7829
    _Z18finish_record_typeP9tree_nodeS0_ib @7830
    _Z18fix_loop_structureP11bitmap_head @7831
    _Z18flip_storage_order12machine_modeP7rtx_def @7832
    _Z18flow_loop_nested_pPK4loopS1_ @7833
    _Z18fold_convertible_pPK9tree_nodeS1_ @7834
    _Z18force_expand_binop12machine_mode9optab_tagP7rtx_defS2_S2_i13optab_methods @7835
    _Z18free_after_parsingP8function @7836
    _Z18free_aux_for_edgesv @7837
    _Z18free_dom_edge_infoP8edge_def @7838
    _Z18free_growth_cachesv @7839
    _Z18free_stmt_operandsP8functionP6gimple @7840
    _Z18gcov_read_unsignedv @7841
    _Z18gen_absv16hi2_maskP7rtx_defS0_S0_S0_ @7842
    _Z18gen_absv16qi2_maskP7rtx_defS0_S0_S0_ @7843
    _Z18gen_absv16si2_maskP7rtx_defS0_S0_S0_ @7844
    _Z18gen_absv32hi2_maskP7rtx_defS0_S0_S0_ @7845
    _Z18gen_absv32qi2_maskP7rtx_defS0_S0_S0_ @7846
    _Z18gen_absv64qi2_maskP7rtx_defS0_S0_S0_ @7847
    _Z18gen_addv16hf3_maskP7rtx_defS0_S0_S0_S0_ @7848
    _Z18gen_addv16hi3_maskP7rtx_defS0_S0_S0_S0_ @7849
    _Z18gen_addv16qi3_maskP7rtx_defS0_S0_S0_S0_ @7850
    _Z18gen_addv16sf3_maskP7rtx_defS0_S0_S0_S0_ @7851
    _Z18gen_addv16si3_maskP7rtx_defS0_S0_S0_S0_ @7852
    _Z18gen_addv32hf3_maskP7rtx_defS0_S0_S0_S0_ @7853
    _Z18gen_addv32hi3_maskP7rtx_defS0_S0_S0_S0_ @7854
    _Z18gen_addv32qi3_maskP7rtx_defS0_S0_S0_S0_ @7855
    _Z18gen_addv64qi3_maskP7rtx_defS0_S0_S0_S0_ @7856
    _Z18gen_addv8df3_roundP7rtx_defS0_S0_S0_ @7857
    _Z18gen_allocate_stackP7rtx_defS0_ @7858
    _Z18gen_andv16sf3_maskP7rtx_defS0_S0_S0_S0_ @7859
    _Z18gen_andv16si3_maskP7rtx_defS0_S0_S0_S0_ @7860
    _Z18gen_ashlv2di3_maskP7rtx_defS0_S0_S0_S0_ @7861
    _Z18gen_ashlv4di3_maskP7rtx_defS0_S0_S0_S0_ @7862
    _Z18gen_ashlv4si3_maskP7rtx_defS0_S0_S0_S0_ @7863
    _Z18gen_ashlv8di3_maskP7rtx_defS0_S0_S0_S0_ @7864
    _Z18gen_ashlv8hi3_maskP7rtx_defS0_S0_S0_S0_ @7865
    _Z18gen_ashlv8si3_maskP7rtx_defS0_S0_S0_S0_ @7866
    _Z18gen_ashrv2di3_maskP7rtx_defS0_S0_S0_S0_ @7867
    _Z18gen_ashrv4di3_maskP7rtx_defS0_S0_S0_S0_ @7868
    _Z18gen_ashrv4si3_maskP7rtx_defS0_S0_S0_S0_ @7869
    _Z18gen_ashrv8di3_maskP7rtx_defS0_S0_S0_S0_ @7870
    _Z18gen_ashrv8hi3_maskP7rtx_defS0_S0_S0_S0_ @7871
    _Z18gen_ashrv8si3_maskP7rtx_defS0_S0_S0_S0_ @7872
    _Z18gen_atomic_storediP7rtx_defS0_S0_ @7873
    _Z18gen_atomic_storehiP7rtx_defS0_S0_ @7874
    _Z18gen_atomic_storeqiP7rtx_defS0_S0_ @7875
    _Z18gen_atomic_storesiP7rtx_defS0_S0_ @7876
    _Z18gen_avx2_ashlv2ti3P7rtx_defS0_S0_ @7877
    _Z18gen_avx2_ashlvv2diP7rtx_defS0_S0_ @7878
    _Z18gen_avx2_ashlvv4diP7rtx_defS0_S0_ @7879
    _Z18gen_avx2_ashlvv4siP7rtx_defS0_S0_ @7880
    _Z18gen_avx2_ashlvv8siP7rtx_defS0_S0_ @7881
    _Z18gen_avx2_ashrvv2diP7rtx_defS0_S0_ @7882
    _Z18gen_avx2_ashrvv4diP7rtx_defS0_S0_ @7883
    _Z18gen_avx2_ashrvv4siP7rtx_defS0_S0_ @7884
    _Z18gen_avx2_ashrvv8siP7rtx_defS0_S0_ @7885
    _Z18gen_avx2_lshrv2ti3P7rtx_defS0_S0_ @7886
    _Z18gen_avx2_lshrvv2diP7rtx_defS0_S0_ @7887
    _Z18gen_avx2_lshrvv4diP7rtx_defS0_S0_ @7888
    _Z18gen_avx2_lshrvv4siP7rtx_defS0_S0_ @7889
    _Z18gen_avx2_lshrvv8siP7rtx_defS0_S0_ @7890
    _Z18gen_avx2_maskloaddP7rtx_defS0_S0_ @7891
    _Z18gen_avx2_maskloadqP7rtx_defS0_S0_ @7892
    _Z18gen_avx2_pblendw_1P7rtx_defS0_S0_S0_ @7893
    _Z18gen_avx2_pshufhw_1P7rtx_defS0_S0_S0_S0_S0_S0_S0_S0_S0_ @7894
    _Z18gen_avx2_pshufhwv3P7rtx_defS0_S0_ @7895
    _Z18gen_avx2_pshuflw_1P7rtx_defS0_S0_S0_S0_S0_S0_S0_S0_S0_ @7896
    _Z18gen_avx2_pshuflwv3P7rtx_defS0_S0_ @7897
    _Z18gen_avx512f_psadbwP7rtx_defS0_S0_ @7898
    _Z18gen_avx_blendpd256P7rtx_defS0_S0_S0_ @7899
    _Z18gen_avx_blendps256P7rtx_defS0_S0_S0_ @7900
    _Z18gen_avx_maskloadpdP7rtx_defS0_S0_ @7901
    _Z18gen_avx_maskloadpsP7rtx_defS0_S0_ @7902
    _Z18gen_avx_movddup256P7rtx_defS0_ @7903
    _Z18gen_avx_ptestv16hiP7rtx_defS0_ @7904
    _Z18gen_avx_ptestv32qiP7rtx_defS0_ @7905
    _Z18gen_avx_roundpd256P7rtx_defS0_S0_ @7906
    _Z18gen_avx_roundps256P7rtx_defS0_S0_ @7907
    _Z18gen_avx_rsqrtv8sf2P7rtx_defS0_ @7908
    _Z18gen_avx_vmcmpv2df3P7rtx_defS0_S0_S0_ @7909
    _Z18gen_avx_vmcmpv4sf3P7rtx_defS0_S0_S0_ @7910
    _Z18gen_avx_vtestpd256P7rtx_defS0_ @7911
    _Z18gen_avx_vtestps256P7rtx_defS0_ @7912
    _Z18gen_avx_vzeroupperv @7913
    _Z18gen_call_value_popP7rtx_defS0_S0_S0_S0_ @7914
    _Z18gen_clzv16si2_maskP7rtx_defS0_S0_S0_ @7915
    _Z18gen_cmla_conjv8hf4P7rtx_defS0_S0_S0_ @7916
    _Z18gen_cmpstrnqi_nz_1P7rtx_defS0_S0_S0_S0_S0_ @7917
    _Z18gen_cmul_conjv8hf3P7rtx_defS0_S0_ @7918
    _Z18gen_cond_ashlv16hiP7rtx_defS0_S0_S0_S0_ @7919
    _Z18gen_cond_ashlv16siP7rtx_defS0_S0_S0_S0_ @7920
    _Z18gen_cond_ashlv32hiP7rtx_defS0_S0_S0_S0_ @7921
    _Z18gen_cond_ashrv16hiP7rtx_defS0_S0_S0_S0_ @7922
    _Z18gen_cond_ashrv16siP7rtx_defS0_S0_S0_S0_ @7923
    _Z18gen_cond_ashrv32hiP7rtx_defS0_S0_S0_S0_ @7924
    _Z18gen_cond_fnmav16hfP7rtx_defS0_S0_S0_S0_S0_ @7925
    _Z18gen_cond_fnmav16sfP7rtx_defS0_S0_S0_S0_S0_ @7926
    _Z18gen_cond_fnmav32hfP7rtx_defS0_S0_S0_S0_S0_ @7927
    _Z18gen_cond_fnmsv16hfP7rtx_defS0_S0_S0_S0_S0_ @7928
    _Z18gen_cond_fnmsv16sfP7rtx_defS0_S0_S0_S0_S0_ @7929
    _Z18gen_cond_fnmsv32hfP7rtx_defS0_S0_S0_S0_S0_ @7930
    _Z18gen_cond_lshrv16hiP7rtx_defS0_S0_S0_S0_ @7931
    _Z18gen_cond_lshrv16siP7rtx_defS0_S0_S0_S0_ @7932
    _Z18gen_cond_lshrv32hiP7rtx_defS0_S0_S0_S0_ @7933
    _Z18gen_cond_smaxv16hfP7rtx_defS0_S0_S0_S0_ @7934
    _Z18gen_cond_smaxv16hiP7rtx_defS0_S0_S0_S0_ @7935
    _Z18gen_cond_smaxv16qiP7rtx_defS0_S0_S0_S0_ @7936
    _Z18gen_cond_smaxv16sfP7rtx_defS0_S0_S0_S0_ @7937
    _Z18gen_cond_smaxv16siP7rtx_defS0_S0_S0_S0_ @7938
    _Z18gen_cond_smaxv32hfP7rtx_defS0_S0_S0_S0_ @7939
    _Z18gen_cond_smaxv32hiP7rtx_defS0_S0_S0_S0_ @7940
    _Z18gen_cond_smaxv32qiP7rtx_defS0_S0_S0_S0_ @7941
    _Z18gen_cond_smaxv64qiP7rtx_defS0_S0_S0_S0_ @7942
    _Z18gen_cond_sminv16hfP7rtx_defS0_S0_S0_S0_ @7943
    _Z18gen_cond_sminv16hiP7rtx_defS0_S0_S0_S0_ @7944
    _Z18gen_cond_sminv16qiP7rtx_defS0_S0_S0_S0_ @7945
    _Z18gen_cond_sminv16sfP7rtx_defS0_S0_S0_S0_ @7946
    _Z18gen_cond_sminv16siP7rtx_defS0_S0_S0_S0_ @7947
    _Z18gen_cond_sminv32hfP7rtx_defS0_S0_S0_S0_ @7948
    _Z18gen_cond_sminv32hiP7rtx_defS0_S0_S0_S0_ @7949
    _Z18gen_cond_sminv32qiP7rtx_defS0_S0_S0_S0_ @7950
    _Z18gen_cond_sminv64qiP7rtx_defS0_S0_S0_S0_ @7951
    _Z18gen_cond_umaxv16hiP7rtx_defS0_S0_S0_S0_ @7952
    _Z18gen_cond_umaxv16qiP7rtx_defS0_S0_S0_S0_ @7953
    _Z18gen_cond_umaxv16siP7rtx_defS0_S0_S0_S0_ @7954
    _Z18gen_cond_umaxv32hiP7rtx_defS0_S0_S0_S0_ @7955
    _Z18gen_cond_umaxv32qiP7rtx_defS0_S0_S0_S0_ @7956
    _Z18gen_cond_umaxv64qiP7rtx_defS0_S0_S0_S0_ @7957
    _Z18gen_cond_uminv16hiP7rtx_defS0_S0_S0_S0_ @7958
    _Z18gen_cond_uminv16qiP7rtx_defS0_S0_S0_S0_ @7959
    _Z18gen_cond_uminv16siP7rtx_defS0_S0_S0_S0_ @7960
    _Z18gen_cond_uminv32hiP7rtx_defS0_S0_S0_S0_ @7961
    _Z18gen_cond_uminv32qiP7rtx_defS0_S0_S0_S0_ @7962
    _Z18gen_cond_uminv64qiP7rtx_defS0_S0_S0_S0_ @7963
    _Z18gen_copysignv16hf3P7rtx_defS0_S0_ @7964
    _Z18gen_copysignv16sf3P7rtx_defS0_S0_ @7965
    _Z18gen_copysignv32hf3P7rtx_defS0_S0_ @7966
    _Z18gen_eh_landing_padP11eh_region_d @7967
    _Z18gen_fix_truncdfdi2P7rtx_defS0_ @7968
    _Z18gen_fix_truncdfhi2P7rtx_defS0_ @7969
    _Z18gen_fix_truncdfsi2P7rtx_defS0_ @7970
    _Z18gen_fix_trunchfdi2P7rtx_defS0_ @7971
    _Z18gen_fix_trunchfsi2P7rtx_defS0_ @7972
    _Z18gen_fix_truncsfdi2P7rtx_defS0_ @7973
    _Z18gen_fix_truncsfhi2P7rtx_defS0_ @7974
    _Z18gen_fix_truncsfsi2P7rtx_defS0_ @7975
    _Z18gen_fix_truncxfdi2P7rtx_defS0_ @7976
    _Z18gen_fix_truncxfhi2P7rtx_defS0_ @7977
    _Z18gen_fix_truncxfsi2P7rtx_defS0_ @7978
    _Z18gen_floatv2div2df2P7rtx_defS0_ @7979
    _Z18gen_floatv2div2hf2P7rtx_defS0_ @7980
    _Z18gen_floatv2div2sf2P7rtx_defS0_ @7981
    _Z18gen_floatv2siv2df2P7rtx_defS0_ @7982
    _Z18gen_floatv2siv2sf2P7rtx_defS0_ @7983
    _Z18gen_floatv4div4df2P7rtx_defS0_ @7984
    _Z18gen_floatv4div4hf2P7rtx_defS0_ @7985
    _Z18gen_floatv4div4sf2P7rtx_defS0_ @7986
    _Z18gen_floatv4siv4df2P7rtx_defS0_ @7987
    _Z18gen_floatv4siv4hf2P7rtx_defS0_ @7988
    _Z18gen_floatv4siv4sf2P7rtx_defS0_ @7989
    _Z18gen_floatv8div8df2P7rtx_defS0_ @7990
    _Z18gen_floatv8div8hf2P7rtx_defS0_ @7991
    _Z18gen_floatv8div8sf2P7rtx_defS0_ @7992
    _Z18gen_floatv8hiv8hf2P7rtx_defS0_ @7993
    _Z18gen_floatv8siv8df2P7rtx_defS0_ @7994
    _Z18gen_floatv8siv8hf2P7rtx_defS0_ @7995
    _Z18gen_floatv8siv8sf2P7rtx_defS0_ @7996
    _Z18gen_fma4i_fmadd_dfP7rtx_defS0_S0_S0_ @7997
    _Z18gen_fma4i_fmadd_sfP7rtx_defS0_S0_S0_ @7998
    _Z18gen_fma4i_fmsub_dfP7rtx_defS0_S0_S0_ @7999
    _Z18gen_fma4i_fmsub_sfP7rtx_defS0_S0_S0_ @8000
    _Z18gen_fmaddsub_v16sfP7rtx_defS0_S0_S0_ @8001
    _Z18gen_fprem1xf4_i387P7rtx_defS0_S0_S0_ @8002
    _Z18gen_fscalexf4_i387P7rtx_defS0_S0_S0_ @8003
    _Z18gen_ieee_maxv16hf3P7rtx_defS0_S0_ @8004
    _Z18gen_ieee_maxv16sf3P7rtx_defS0_S0_ @8005
    _Z18gen_ieee_maxv32hf3P7rtx_defS0_S0_ @8006
    _Z18gen_ieee_minv16hf3P7rtx_defS0_S0_ @8007
    _Z18gen_ieee_minv16sf3P7rtx_defS0_S0_ @8008
    _Z18gen_ieee_minv32hf3P7rtx_defS0_S0_ @8009
    _Z18gen_int_fp_libfunc9optab_tagPKcc12machine_mode @8010
    _Z18gen_iorv16sf3_maskP7rtx_defS0_S0_S0_S0_ @8011
    _Z18gen_iorv16si3_maskP7rtx_defS0_S0_S0_S0_ @8012
    _Z18gen_loaddi_via_fpuP7rtx_defS0_ @8013
    _Z18gen_loaddi_via_sseP7rtx_defS0_ @8014
    _Z18gen_lowpart_SUBREG12machine_modeP7rtx_def @8015
    _Z18gen_lowpart_common12machine_modeP7rtx_def @8016
    _Z18gen_lshrv2di3_maskP7rtx_defS0_S0_S0_S0_ @8017
    _Z18gen_lshrv4di3_maskP7rtx_defS0_S0_S0_S0_ @8018
    _Z18gen_lshrv4si3_maskP7rtx_defS0_S0_S0_S0_ @8019
    _Z18gen_lshrv8di3_maskP7rtx_defS0_S0_S0_S0_ @8020
    _Z18gen_lshrv8hi3_maskP7rtx_defS0_S0_S0_S0_ @8021
    _Z18gen_lshrv8si3_maskP7rtx_defS0_S0_S0_S0_ @8022
    _Z18gen_maskloadv2dfqiP7rtx_defS0_S0_ @8023
    _Z18gen_maskloadv2diqiP7rtx_defS0_S0_ @8024
    _Z18gen_maskloadv4dfqiP7rtx_defS0_S0_ @8025
    _Z18gen_maskloadv4diqiP7rtx_defS0_S0_ @8026
    _Z18gen_maskloadv4sfqiP7rtx_defS0_S0_ @8027
    _Z18gen_maskloadv4siqiP7rtx_defS0_S0_ @8028
    _Z18gen_maskloadv8dfqiP7rtx_defS0_S0_ @8029
    _Z18gen_maskloadv8diqiP7rtx_defS0_S0_ @8030
    _Z18gen_maskloadv8hfqiP7rtx_defS0_S0_ @8031
    _Z18gen_maskloadv8hiqiP7rtx_defS0_S0_ @8032
    _Z18gen_maskloadv8sfqiP7rtx_defS0_S0_ @8033
    _Z18gen_maskloadv8siqiP7rtx_defS0_S0_ @8034
    _Z18gen_mmx_rsqrtv2sf2P7rtx_defS0_ @8035
    _Z18gen_mmx_ssaddv4hi3P7rtx_defS0_S0_ @8036
    _Z18gen_mmx_ssaddv8qi3P7rtx_defS0_S0_ @8037
    _Z18gen_mmx_sssubv4hi3P7rtx_defS0_S0_ @8038
    _Z18gen_mmx_sssubv8qi3P7rtx_defS0_S0_ @8039
    _Z18gen_mmx_usaddv4hi3P7rtx_defS0_S0_ @8040
    _Z18gen_mmx_usaddv8qi3P7rtx_defS0_S0_ @8041
    _Z18gen_mmx_ussubv4hi3P7rtx_defS0_S0_ @8042
    _Z18gen_mmx_ussubv8qi3P7rtx_defS0_S0_ @8043
    _Z18gen_mulv16hf3_maskP7rtx_defS0_S0_S0_S0_ @8044
    _Z18gen_mulv16hi3_maskP7rtx_defS0_S0_S0_S0_ @8045
    _Z18gen_mulv16sf3_maskP7rtx_defS0_S0_S0_S0_ @8046
    _Z18gen_mulv16si3_maskP7rtx_defS0_S0_S0_S0_ @8047
    _Z18gen_mulv32hf3_maskP7rtx_defS0_S0_S0_S0_ @8048
    _Z18gen_mulv32hi3_maskP7rtx_defS0_S0_S0_S0_ @8049
    _Z18gen_mulv8df3_roundP7rtx_defS0_S0_S0_ @8050
    _Z18gen_nearbyintv2df2P7rtx_defS0_ @8051
    _Z18gen_nearbyintv4df2P7rtx_defS0_ @8052
    _Z18gen_nearbyintv4sf2P7rtx_defS0_ @8053
    _Z18gen_nearbyintv8df2P7rtx_defS0_ @8054
    _Z18gen_nearbyintv8hf2P7rtx_defS0_ @8055
    _Z18gen_nearbyintv8sf2P7rtx_defS0_ @8056
    _Z18gen_one_cmplv16hi2P7rtx_defS0_ @8057
    _Z18gen_one_cmplv16qi2P7rtx_defS0_ @8058
    _Z18gen_one_cmplv16si2P7rtx_defS0_ @8059
    _Z18gen_one_cmplv32hi2P7rtx_defS0_ @8060
    _Z18gen_one_cmplv32qi2P7rtx_defS0_ @8061
    _Z18gen_one_cmplv64qi2P7rtx_defS0_ @8062
    _Z18gen_patchable_areaP7rtx_defS0_ @8063
    _Z18gen_popcountv16hi2P7rtx_defS0_ @8064
    _Z18gen_popcountv16qi2P7rtx_defS0_ @8065
    _Z18gen_popcountv16si2P7rtx_defS0_ @8066
    _Z18gen_popcountv32hi2P7rtx_defS0_ @8067
    _Z18gen_popcountv32qi2P7rtx_defS0_ @8068
    _Z18gen_popcountv64qi2P7rtx_defS0_ @8069
    _Z18gen_rcp14v2df_maskP7rtx_defS0_S0_S0_ @8070
    _Z18gen_rcp14v4df_maskP7rtx_defS0_S0_S0_ @8071
    _Z18gen_rcp14v4sf_maskP7rtx_defS0_S0_S0_ @8072
    _Z18gen_rcp14v8df_maskP7rtx_defS0_S0_S0_ @8073
    _Z18gen_rcp14v8sf_maskP7rtx_defS0_S0_S0_ @8074
    _Z18gen_reg_rtx_offsetP7rtx_def12machine_modei @8075
    _Z18gen_rtx_REG_offsetP7rtx_def12machine_modej8poly_intILj1ExE @8076
    _Z18gen_sdot_prodv16hiP7rtx_defS0_S0_S0_ @8077
    _Z18gen_sdot_prodv32hiP7rtx_defS0_S0_S0_ @8078
    _Z18gen_significanddf2P7rtx_defS0_ @8079
    _Z18gen_significandsf2P7rtx_defS0_ @8080
    _Z18gen_significandxf2P7rtx_defS0_ @8081
    _Z18gen_smaxv2df3_maskP7rtx_defS0_S0_S0_S0_ @8082
    _Z18gen_smaxv2di3_maskP7rtx_defS0_S0_S0_S0_ @8083
    _Z18gen_smaxv4df3_maskP7rtx_defS0_S0_S0_S0_ @8084
    _Z18gen_smaxv4di3_maskP7rtx_defS0_S0_S0_S0_ @8085
    _Z18gen_smaxv4sf3_maskP7rtx_defS0_S0_S0_S0_ @8086
    _Z18gen_smaxv4si3_maskP7rtx_defS0_S0_S0_S0_ @8087
    _Z18gen_smaxv8df3_maskP7rtx_defS0_S0_S0_S0_ @8088
    _Z18gen_smaxv8di3_maskP7rtx_defS0_S0_S0_S0_ @8089
    _Z18gen_smaxv8hf3_maskP7rtx_defS0_S0_S0_S0_ @8090
    _Z18gen_smaxv8hi3_maskP7rtx_defS0_S0_S0_S0_ @8091
    _Z18gen_smaxv8sf3_maskP7rtx_defS0_S0_S0_S0_ @8092
    _Z18gen_smaxv8si3_maskP7rtx_defS0_S0_S0_S0_ @8093
    _Z18gen_sminv2df3_maskP7rtx_defS0_S0_S0_S0_ @8094
    _Z18gen_sminv2di3_maskP7rtx_defS0_S0_S0_S0_ @8095
    _Z18gen_sminv4df3_maskP7rtx_defS0_S0_S0_S0_ @8096
    _Z18gen_sminv4di3_maskP7rtx_defS0_S0_S0_S0_ @8097
    _Z18gen_sminv4sf3_maskP7rtx_defS0_S0_S0_S0_ @8098
    _Z18gen_sminv4si3_maskP7rtx_defS0_S0_S0_S0_ @8099
    _Z18gen_sminv8df3_maskP7rtx_defS0_S0_S0_S0_ @8100
    _Z18gen_sminv8di3_maskP7rtx_defS0_S0_S0_S0_ @8101
    _Z18gen_sminv8hf3_maskP7rtx_defS0_S0_S0_S0_ @8102
    _Z18gen_sminv8hi3_maskP7rtx_defS0_S0_S0_S0_ @8103
    _Z18gen_sminv8sf3_maskP7rtx_defS0_S0_S0_S0_ @8104
    _Z18gen_sminv8si3_maskP7rtx_defS0_S0_S0_S0_ @8105
    _Z18gen_sse2_ashlv1ti3P7rtx_defS0_S0_ @8106
    _Z18gen_sse2_cvtsd2siqP7rtx_defS0_ @8107
    _Z18gen_sse2_cvtsi2sdqP7rtx_defS0_S0_ @8108
    _Z18gen_sse2_cvttpd2dqP7rtx_defS0_ @8109
    _Z18gen_sse2_cvttpd2piP7rtx_defS0_ @8110
    _Z18gen_sse2_cvttsd2siP7rtx_defS0_ @8111
    _Z18gen_sse2_lshrv1ti3P7rtx_defS0_S0_ @8112
    _Z18gen_sse2_movntv2dfP7rtx_defS0_ @8113
    _Z18gen_sse2_movntv2diP7rtx_defS0_ @8114
    _Z18gen_sse2_pshufhw_1P7rtx_defS0_S0_S0_S0_S0_ @8115
    _Z18gen_sse2_pshuflw_1P7rtx_defS0_S0_S0_S0_S0_ @8116
    _Z18gen_sse2_sqrtv2df2P7rtx_defS0_ @8117
    _Z18gen_sse2_uavgv8hi3P7rtx_defS0_S0_ @8118
    _Z18gen_sse3_haddv2df3P7rtx_defS0_S0_ @8119
    _Z18gen_sse3_haddv4sf3P7rtx_defS0_S0_ @8120
    _Z18gen_sse3_hsubv2df3P7rtx_defS0_S0_ @8121
    _Z18gen_sse3_hsubv4sf3P7rtx_defS0_S0_ @8122
    _Z18gen_sse4_1_blendpdP7rtx_defS0_S0_S0_ @8123
    _Z18gen_sse4_1_blendpsP7rtx_defS0_S0_S0_ @8124
    _Z18gen_sse4_1_mpsadbwP7rtx_defS0_S0_S0_ @8125
    _Z18gen_sse4_1_pblendwP7rtx_defS0_S0_S0_ @8126
    _Z18gen_sse4_1_roundpdP7rtx_defS0_S0_ @8127
    _Z18gen_sse4_1_roundpsP7rtx_defS0_S0_ @8128
    _Z18gen_sse4_1_roundsdP7rtx_defS0_S0_S0_ @8129
    _Z18gen_sse4_1_roundssP7rtx_defS0_S0_S0_ @8130
    _Z18gen_sse4_2_crc32diP7rtx_defS0_S0_ @8131
    _Z18gen_sse4_2_crc32hiP7rtx_defS0_S0_ @8132
    _Z18gen_sse4_2_crc32qiP7rtx_defS0_S0_ @8133
    _Z18gen_sse4_2_crc32siP7rtx_defS0_S0_ @8134
    _Z18gen_sse4_2_gtv2di3P7rtx_defS0_S0_ @8135
    _Z18gen_sse4a_insertqiP7rtx_defS0_S0_S0_S0_ @8136
    _Z18gen_sse_comi_roundP7rtx_defS0_S0_ @8137
    _Z18gen_sse_cvtss2si_2P7rtx_defS0_ @8138
    _Z18gen_sse_cvttss2siqP7rtx_defS0_ @8139
    _Z18gen_sse_rsqrtv4sf2P7rtx_defS0_ @8140
    _Z18gen_sse_vmaddv4sf3P7rtx_defS0_S0_ @8141
    _Z18gen_sse_vmdivv4sf3P7rtx_defS0_S0_ @8142
    _Z18gen_sse_vmmulv4sf3P7rtx_defS0_S0_ @8143
    _Z18gen_sse_vmrcpv4sf2P7rtx_defS0_S0_ @8144
    _Z18gen_sse_vmsubv4sf3P7rtx_defS0_S0_ @8145
    _Z18gen_ssse3_absv2si2P7rtx_defS0_ @8146
    _Z18gen_ssse3_absv4hi2P7rtx_defS0_ @8147
    _Z18gen_ssse3_absv8qi2P7rtx_defS0_ @8148
    _Z18gen_sub3_carry_ccc12machine_modeP7rtx_defS1_S1_ @8149
    _Z18gen_subv16hf3_maskP7rtx_defS0_S0_S0_S0_ @8150
    _Z18gen_subv16hi3_maskP7rtx_defS0_S0_S0_S0_ @8151
    _Z18gen_subv16qi3_maskP7rtx_defS0_S0_S0_S0_ @8152
    _Z18gen_subv16sf3_maskP7rtx_defS0_S0_S0_S0_ @8153
    _Z18gen_subv16si3_maskP7rtx_defS0_S0_S0_S0_ @8154
    _Z18gen_subv32hf3_maskP7rtx_defS0_S0_S0_S0_ @8155
    _Z18gen_subv32hi3_maskP7rtx_defS0_S0_S0_S0_ @8156
    _Z18gen_subv32qi3_maskP7rtx_defS0_S0_S0_S0_ @8157
    _Z18gen_subv64qi3_maskP7rtx_defS0_S0_S0_S0_ @8158
    _Z18gen_subv8df3_roundP7rtx_defS0_S0_S0_ @8159
    _Z18gen_truncv2dfv2hf2P7rtx_defS0_ @8160
    _Z18gen_truncv2dfv2sf2P7rtx_defS0_ @8161
    _Z18gen_truncv2div2hi2P7rtx_defS0_ @8162
    _Z18gen_truncv2div2qi2P7rtx_defS0_ @8163
    _Z18gen_truncv2div2si2P7rtx_defS0_ @8164
    _Z18gen_truncv4dfv4hf2P7rtx_defS0_ @8165
    _Z18gen_truncv4dfv4sf2P7rtx_defS0_ @8166
    _Z18gen_truncv4div4hi2P7rtx_defS0_ @8167
    _Z18gen_truncv4div4qi2P7rtx_defS0_ @8168
    _Z18gen_truncv4div4si2P7rtx_defS0_ @8169
    _Z18gen_truncv4sfv4hf2P7rtx_defS0_ @8170
    _Z18gen_truncv4siv4hi2P7rtx_defS0_ @8171
    _Z18gen_truncv4siv4qi2P7rtx_defS0_ @8172
    _Z18gen_truncv8dfv8hf2P7rtx_defS0_ @8173
    _Z18gen_truncv8dfv8sf2P7rtx_defS0_ @8174
    _Z18gen_truncv8div8hi2P7rtx_defS0_ @8175
    _Z18gen_truncv8div8qi2P7rtx_defS0_ @8176
    _Z18gen_truncv8div8si2P7rtx_defS0_ @8177
    _Z18gen_truncv8hiv8qi2P7rtx_defS0_ @8178
    _Z18gen_truncv8sfv8hf2P7rtx_defS0_ @8179
    _Z18gen_truncv8siv8hi2P7rtx_defS0_ @8180
    _Z18gen_truncv8siv8qi2P7rtx_defS0_ @8181
    _Z18gen_uavgv2hi3_ceilP7rtx_defS0_S0_ @8182
    _Z18gen_uavgv2qi3_ceilP7rtx_defS0_S0_ @8183
    _Z18gen_uavgv4hi3_ceilP7rtx_defS0_S0_ @8184
    _Z18gen_uavgv4qi3_ceilP7rtx_defS0_S0_ @8185
    _Z18gen_uavgv8hi3_ceilP7rtx_defS0_S0_ @8186
    _Z18gen_uavgv8qi3_ceilP7rtx_defS0_S0_ @8187
    _Z18gen_umaxv2di3_maskP7rtx_defS0_S0_S0_S0_ @8188
    _Z18gen_umaxv4di3_maskP7rtx_defS0_S0_S0_S0_ @8189
    _Z18gen_umaxv4si3_maskP7rtx_defS0_S0_S0_S0_ @8190
    _Z18gen_umaxv8di3_maskP7rtx_defS0_S0_S0_S0_ @8191
    _Z18gen_umaxv8hi3_maskP7rtx_defS0_S0_S0_S0_ @8192
    _Z18gen_umaxv8si3_maskP7rtx_defS0_S0_S0_S0_ @8193
    _Z18gen_uminv2di3_maskP7rtx_defS0_S0_S0_S0_ @8194
    _Z18gen_uminv4di3_maskP7rtx_defS0_S0_S0_S0_ @8195
    _Z18gen_uminv4si3_maskP7rtx_defS0_S0_S0_S0_ @8196
    _Z18gen_uminv8di3_maskP7rtx_defS0_S0_S0_S0_ @8197
    _Z18gen_uminv8hi3_maskP7rtx_defS0_S0_S0_S0_ @8198
    _Z18gen_uminv8si3_maskP7rtx_defS0_S0_S0_S0_ @8199
    _Z18gen_vconduv2dfv2diP7rtx_defS0_S0_S0_S0_S0_ @8200
    _Z18gen_vconduv2dfv4siP7rtx_defS0_S0_S0_S0_S0_ @8201
    _Z18gen_vconduv2dfv8hiP7rtx_defS0_S0_S0_S0_S0_ @8202
    _Z18gen_vconduv2div2diP7rtx_defS0_S0_S0_S0_S0_ @8203
    _Z18gen_vconduv2div4siP7rtx_defS0_S0_S0_S0_S0_ @8204
    _Z18gen_vconduv2div8hiP7rtx_defS0_S0_S0_S0_S0_ @8205
    _Z18gen_vconduv2hiv2hiP7rtx_defS0_S0_S0_S0_S0_ @8206
    _Z18gen_vconduv2qiv2qiP7rtx_defS0_S0_S0_S0_S0_ @8207
    _Z18gen_vconduv2sfv2siP7rtx_defS0_S0_S0_S0_S0_ @8208
    _Z18gen_vconduv2sfv4hiP7rtx_defS0_S0_S0_S0_S0_ @8209
    _Z18gen_vconduv2sfv8qiP7rtx_defS0_S0_S0_S0_S0_ @8210
    _Z18gen_vconduv2siv2siP7rtx_defS0_S0_S0_S0_S0_ @8211
    _Z18gen_vconduv2siv4hiP7rtx_defS0_S0_S0_S0_S0_ @8212
    _Z18gen_vconduv2siv8qiP7rtx_defS0_S0_S0_S0_S0_ @8213
    _Z18gen_vconduv4dfv4diP7rtx_defS0_S0_S0_S0_S0_ @8214
    _Z18gen_vconduv4dfv8siP7rtx_defS0_S0_S0_S0_S0_ @8215
    _Z18gen_vconduv4div4diP7rtx_defS0_S0_S0_S0_S0_ @8216
    _Z18gen_vconduv4div8siP7rtx_defS0_S0_S0_S0_S0_ @8217
    _Z18gen_vconduv4hiv2siP7rtx_defS0_S0_S0_S0_S0_ @8218
    _Z18gen_vconduv4hiv4hiP7rtx_defS0_S0_S0_S0_S0_ @8219
    _Z18gen_vconduv4hiv8qiP7rtx_defS0_S0_S0_S0_S0_ @8220
    _Z18gen_vconduv4qiv4qiP7rtx_defS0_S0_S0_S0_S0_ @8221
    _Z18gen_vconduv4sfv4siP7rtx_defS0_S0_S0_S0_S0_ @8222
    _Z18gen_vconduv4sfv8hiP7rtx_defS0_S0_S0_S0_S0_ @8223
    _Z18gen_vconduv4siv4siP7rtx_defS0_S0_S0_S0_S0_ @8224
    _Z18gen_vconduv4siv8hiP7rtx_defS0_S0_S0_S0_S0_ @8225
    _Z18gen_vconduv8dfv8diP7rtx_defS0_S0_S0_S0_S0_ @8226
    _Z18gen_vconduv8div8diP7rtx_defS0_S0_S0_S0_S0_ @8227
    _Z18gen_vconduv8hfv8hiP7rtx_defS0_S0_S0_S0_S0_ @8228
    _Z18gen_vconduv8hiv4siP7rtx_defS0_S0_S0_S0_S0_ @8229
    _Z18gen_vconduv8hiv8hiP7rtx_defS0_S0_S0_S0_S0_ @8230
    _Z18gen_vconduv8qiv2siP7rtx_defS0_S0_S0_S0_S0_ @8231
    _Z18gen_vconduv8qiv4hiP7rtx_defS0_S0_S0_S0_S0_ @8232
    _Z18gen_vconduv8qiv8qiP7rtx_defS0_S0_S0_S0_S0_ @8233
    _Z18gen_vconduv8sfv4diP7rtx_defS0_S0_S0_S0_S0_ @8234
    _Z18gen_vconduv8sfv8siP7rtx_defS0_S0_S0_S0_S0_ @8235
    _Z18gen_vconduv8siv4diP7rtx_defS0_S0_S0_S0_S0_ @8236
    _Z18gen_vconduv8siv8siP7rtx_defS0_S0_S0_S0_S0_ @8237
    _Z18gen_vcondv16hiv4dfP7rtx_defS0_S0_S0_S0_S0_ @8238
    _Z18gen_vcondv16hiv4diP7rtx_defS0_S0_S0_S0_S0_ @8239
    _Z18gen_vcondv16hiv8sfP7rtx_defS0_S0_S0_S0_S0_ @8240
    _Z18gen_vcondv16hiv8siP7rtx_defS0_S0_S0_S0_S0_ @8241
    _Z18gen_vcondv16qiv2dfP7rtx_defS0_S0_S0_S0_S0_ @8242
    _Z18gen_vcondv16qiv4sfP7rtx_defS0_S0_S0_S0_S0_ @8243
    _Z18gen_vcondv16qiv4siP7rtx_defS0_S0_S0_S0_S0_ @8244
    _Z18gen_vcondv16qiv8hiP7rtx_defS0_S0_S0_S0_S0_ @8245
    _Z18gen_vcondv16sfv8dfP7rtx_defS0_S0_S0_S0_S0_ @8246
    _Z18gen_vcondv16sfv8diP7rtx_defS0_S0_S0_S0_S0_ @8247
    _Z18gen_vcondv16siv8dfP7rtx_defS0_S0_S0_S0_S0_ @8248
    _Z18gen_vcondv16siv8diP7rtx_defS0_S0_S0_S0_S0_ @8249
    _Z18gen_vcondv2dfv16qiP7rtx_defS0_S0_S0_S0_S0_ @8250
    _Z18gen_vcondv2div16qiP7rtx_defS0_S0_S0_S0_S0_ @8251
    _Z18gen_vcondv32hiv8dfP7rtx_defS0_S0_S0_S0_S0_ @8252
    _Z18gen_vcondv32hiv8diP7rtx_defS0_S0_S0_S0_S0_ @8253
    _Z18gen_vcondv32qiv4dfP7rtx_defS0_S0_S0_S0_S0_ @8254
    _Z18gen_vcondv32qiv4diP7rtx_defS0_S0_S0_S0_S0_ @8255
    _Z18gen_vcondv32qiv8sfP7rtx_defS0_S0_S0_S0_S0_ @8256
    _Z18gen_vcondv32qiv8siP7rtx_defS0_S0_S0_S0_S0_ @8257
    _Z18gen_vcondv4dfv16hiP7rtx_defS0_S0_S0_S0_S0_ @8258
    _Z18gen_vcondv4dfv32qiP7rtx_defS0_S0_S0_S0_S0_ @8259
    _Z18gen_vcondv4div16hiP7rtx_defS0_S0_S0_S0_S0_ @8260
    _Z18gen_vcondv4div32qiP7rtx_defS0_S0_S0_S0_S0_ @8261
    _Z18gen_vcondv4sfv16qiP7rtx_defS0_S0_S0_S0_S0_ @8262
    _Z18gen_vcondv4siv16qiP7rtx_defS0_S0_S0_S0_S0_ @8263
    _Z18gen_vcondv64qiv8dfP7rtx_defS0_S0_S0_S0_S0_ @8264
    _Z18gen_vcondv64qiv8diP7rtx_defS0_S0_S0_S0_S0_ @8265
    _Z18gen_vcondv8dfv16sfP7rtx_defS0_S0_S0_S0_S0_ @8266
    _Z18gen_vcondv8dfv16siP7rtx_defS0_S0_S0_S0_S0_ @8267
    _Z18gen_vcondv8dfv32hiP7rtx_defS0_S0_S0_S0_S0_ @8268
    _Z18gen_vcondv8dfv64qiP7rtx_defS0_S0_S0_S0_S0_ @8269
    _Z18gen_vcondv8div16sfP7rtx_defS0_S0_S0_S0_S0_ @8270
    _Z18gen_vcondv8div16siP7rtx_defS0_S0_S0_S0_S0_ @8271
    _Z18gen_vcondv8div32hiP7rtx_defS0_S0_S0_S0_S0_ @8272
    _Z18gen_vcondv8div64qiP7rtx_defS0_S0_S0_S0_S0_ @8273
    _Z18gen_vcondv8hiv16qiP7rtx_defS0_S0_S0_S0_S0_ @8274
    _Z18gen_vcondv8sfv16hiP7rtx_defS0_S0_S0_S0_S0_ @8275
    _Z18gen_vcondv8sfv32qiP7rtx_defS0_S0_S0_S0_S0_ @8276
    _Z18gen_vcondv8siv16hiP7rtx_defS0_S0_S0_S0_S0_ @8277
    _Z18gen_vcondv8siv32qiP7rtx_defS0_S0_S0_S0_S0_ @8278
    _Z18gen_vcvtph2ps_maskP7rtx_defS0_S0_S0_ @8279
    _Z18gen_vcvtps2ph_maskP7rtx_defS0_S0_S0_S0_ @8280
    _Z18gen_vec_cmpuv2diqiP7rtx_defS0_S0_S0_ @8281
    _Z18gen_vec_cmpuv4diqiP7rtx_defS0_S0_S0_ @8282
    _Z18gen_vec_cmpuv4siqiP7rtx_defS0_S0_S0_ @8283
    _Z18gen_vec_cmpuv8diqiP7rtx_defS0_S0_S0_ @8284
    _Z18gen_vec_cmpuv8hiqiP7rtx_defS0_S0_S0_ @8285
    _Z18gen_vec_cmpuv8siqiP7rtx_defS0_S0_S0_ @8286
    _Z18gen_vec_cmpv16hfhiP7rtx_defS0_S0_S0_ @8287
    _Z18gen_vec_cmpv16hihiP7rtx_defS0_S0_S0_ @8288
    _Z18gen_vec_cmpv16qihiP7rtx_defS0_S0_S0_ @8289
    _Z18gen_vec_cmpv16sfhiP7rtx_defS0_S0_S0_ @8290
    _Z18gen_vec_cmpv16sihiP7rtx_defS0_S0_S0_ @8291
    _Z18gen_vec_cmpv32hfsiP7rtx_defS0_S0_S0_ @8292
    _Z18gen_vec_cmpv32hisiP7rtx_defS0_S0_S0_ @8293
    _Z18gen_vec_cmpv32qisiP7rtx_defS0_S0_S0_ @8294
    _Z18gen_vec_cmpv64qidiP7rtx_defS0_S0_S0_ @8295
    _Z18gen_vec_concatv2dfP7rtx_defS0_S0_ @8296
    _Z18gen_vec_concatv2diP7rtx_defS0_S0_ @8297
    _Z18gen_vec_initv2dfdfP7rtx_defS0_ @8298
    _Z18gen_vec_initv2didiP7rtx_defS0_ @8299
    _Z18gen_vec_initv2hihiP7rtx_defS0_ @8300
    _Z18gen_vec_initv2sfsfP7rtx_defS0_ @8301
    _Z18gen_vec_initv2sisiP7rtx_defS0_ @8302
    _Z18gen_vec_initv2titiP7rtx_defS0_ @8303
    _Z18gen_vec_initv4dfdfP7rtx_defS0_ @8304
    _Z18gen_vec_initv4didiP7rtx_defS0_ @8305
    _Z18gen_vec_initv4hihiP7rtx_defS0_ @8306
    _Z18gen_vec_initv4qiqiP7rtx_defS0_ @8307
    _Z18gen_vec_initv4sfsfP7rtx_defS0_ @8308
    _Z18gen_vec_initv4sisiP7rtx_defS0_ @8309
    _Z18gen_vec_initv4titiP7rtx_defS0_ @8310
    _Z18gen_vec_initv8dfdfP7rtx_defS0_ @8311
    _Z18gen_vec_initv8didiP7rtx_defS0_ @8312
    _Z18gen_vec_initv8hfhfP7rtx_defS0_ @8313
    _Z18gen_vec_initv8hihiP7rtx_defS0_ @8314
    _Z18gen_vec_initv8qiqiP7rtx_defS0_ @8315
    _Z18gen_vec_initv8sfsfP7rtx_defS0_ @8316
    _Z18gen_vec_initv8sisiP7rtx_defS0_ @8317
    _Z18gen_vec_setv16hf_0P7rtx_defS0_S0_ @8318
    _Z18gen_vec_setv16hi_0P7rtx_defS0_S0_ @8319
    _Z18gen_vec_setv16sf_0P7rtx_defS0_S0_ @8320
    _Z18gen_vec_setv16si_0P7rtx_defS0_S0_ @8321
    _Z18gen_vec_setv32hf_0P7rtx_defS0_S0_ @8322
    _Z18gen_vec_setv32hi_0P7rtx_defS0_S0_ @8323
    _Z18gen_vpdpbusd_v16siP7rtx_defS0_S0_S0_ @8324
    _Z18gen_vpdpbusds_v4siP7rtx_defS0_S0_S0_ @8325
    _Z18gen_vpdpbusds_v8siP7rtx_defS0_S0_S0_ @8326
    _Z18gen_vpdpwssd_v16siP7rtx_defS0_S0_S0_ @8327
    _Z18gen_vpdpwssds_v4siP7rtx_defS0_S0_S0_ @8328
    _Z18gen_vpdpwssds_v8siP7rtx_defS0_S0_S0_ @8329
    _Z18gen_vpopcountv16hiP7rtx_defS0_ @8330
    _Z18gen_vpopcountv16qiP7rtx_defS0_ @8331
    _Z18gen_vpopcountv16siP7rtx_defS0_ @8332
    _Z18gen_vpopcountv32hiP7rtx_defS0_ @8333
    _Z18gen_vpopcountv32qiP7rtx_defS0_ @8334
    _Z18gen_vpopcountv64qiP7rtx_defS0_ @8335
    _Z18gen_xop_pcmov_v2dfP7rtx_defS0_S0_S0_ @8336
    _Z18gen_xop_pcmov_v2diP7rtx_defS0_S0_S0_ @8337
    _Z18gen_xop_pcmov_v4sfP7rtx_defS0_S0_S0_ @8338
    _Z18gen_xop_pcmov_v4siP7rtx_defS0_S0_S0_ @8339
    _Z18gen_xop_pcmov_v8hfP7rtx_defS0_S0_S0_ @8340
    _Z18gen_xop_pcmov_v8hiP7rtx_defS0_S0_S0_ @8341
    _Z18gen_xop_rotlv16qi3P7rtx_defS0_S0_ @8342
    _Z18gen_xop_rotrv16qi3P7rtx_defS0_S0_ @8343
    _Z18gen_xop_vrotlv2di3P7rtx_defS0_S0_ @8344
    _Z18gen_xop_vrotlv4si3P7rtx_defS0_S0_ @8345
    _Z18gen_xop_vrotlv8hi3P7rtx_defS0_S0_ @8346
    _Z18gen_xorqi_ext_1_ccP7rtx_defS0_S0_ @8347
    _Z18gen_xorv16sf3_maskP7rtx_defS0_S0_S0_S0_ @8348
    _Z18gen_xorv16si3_maskP7rtx_defS0_S0_S0_S0_ @8349
    _Z18gen_xsaveopt_rex64P7rtx_defS0_S0_ @8350
    _Z18general_gr_operandP7rtx_def12machine_mode @8351
    _Z18get_attr_atom_unitP8rtx_insn @8352
    _Z18get_attr_i7_domainP8rtx_insn @8353
    _Z18get_attr_pent_pairP8rtx_insn @8354
    _Z18get_attr_prefix_0fP8rtx_insn @8355
    _Z18get_attr_use_carryP8rtx_insn @8356
    _Z18get_attribute_namePK9tree_node @8357
    _Z18get_formal_tmp_varP9tree_nodePP6gimple @8358
    _Z18get_max_insn_countv @8359
    _Z18get_mode_alignment12machine_mode @8360
    _Z18get_output_for_vrpP6gimple @8361
    _Z18get_qualified_typeP9tree_nodei @8362
    _Z18get_range_from_locP9line_mapsj @8363
    _Z18get_reg_base_valuej @8364
    _Z18get_section_anchorP12object_blockx9tls_model @8365
    _Z18get_seqno_by_predsP8rtx_insn @8366
    _Z18get_terminal_widthv @8367
    _Z18get_tree_code_name9tree_code @8368
    _Z18ggc_internal_allocyPFvPvEyy @8369
    _Z18ggc_pch_total_sizeP12ggc_pch_data @8370
    _Z18gimple_add_tmp_varP9tree_node @8371
    _Z18gimple_block_labelP15basic_block_def @8372
    _Z18gimple_build_catchP9tree_nodeP6gimple @8373
    _Z18gimple_build_labelP9tree_node @8374
    _Z18gimple_call_fnspecPK5gcall @8375
    _Z18gimple_nop_convertP9tree_nodePS0_PFS0_S0_E @8376
    _Z18gimple_seq_add_seqPP6gimpleS0_ @8377
    _Z18gimple_seq_discardP6gimple @8378
    _Z18gimple_signed_typeP9tree_node @8379
    _Z18gimple_switch_edgeP8functionP7gswitchj @8380
    _Z18gnat_gimplify_exprPP9tree_nodePP6gimpleS4_ @8381
    _Z18gnat_to_gnu_entityiP9tree_nodeb @8382
    _Z18gnat_type_for_mode12machine_modei @8383
    _Z18gnat_type_for_sizeji @8384
    _Z18gsi_insert_on_edgeP8edge_defP6gimple @8385
    _Z18gsi_move_to_bb_endP20gimple_stmt_iteratorP15basic_block_def @8386
    _Z18gt_ggc_mx_asm_nodePv @8387
    _Z18gt_ggc_mx_edge_defPv @8388
    _Z18gt_ggc_mx_functionPv @8389
    _Z18gt_ggc_mx_ipa_bitsPv @8390
    _Z18gt_ggc_mx_tree_mapPv @8391
    _Z18gt_ggc_mx_typeinfoPv @8392
    _Z18gt_pch_note_objectPvS_PFvS_S_PFvS_S_S_ES_E @8393
    _Z18gt_pch_nx_asm_nodePv @8394
    _Z18gt_pch_nx_edge_defPv @8395
    _Z18gt_pch_nx_functionPv @8396
    _Z18gt_pch_nx_ipa_bitsPv @8397
    _Z18gt_pch_nx_tree_mapPv @8398
    _Z18gt_pch_nx_typeinfoPv @8399
    _Z18gt_pch_p_8asm_nodePvS_PFvS_S_S_ES_ @8400
    _Z18gt_pch_p_8edge_defPvS_PFvS_S_S_ES_ @8401
    _Z18gt_pch_p_8functionPvS_PFvS_S_S_ES_ @8402
    _Z18gt_pch_p_8ipa_bitsPvS_PFvS_S_S_ES_ @8403
    _Z18gt_pch_p_8tree_mapPvS_PFvS_S_S_ES_ @8404
    _Z18gt_pch_p_8typeinfoPvS_PFvS_S_S_ES_ @8405
    _Z18haifa_finish_h_i_dv @8406
    _Z18haifa_note_reg_seti @8407
    _Z18haifa_note_reg_usei @8408
    _Z18haifa_sched_finishv @8409
    _Z18handle_printf_callP20gimple_stmt_iteratorR13pointer_query @8410
    _Z18hard_libcall_value12machine_modeP7rtx_def @8411
    _Z18hook_void_rtx_treeP7rtx_defP9tree_node @8412
    _Z18ht_dump_statisticsP2ht @8413
    _Z18hwasan_finish_filev @8414
    _Z18info_for_reductionP8vec_infoP14_stmt_vec_info @8415
    _Z18init_deps_reg_lastP9deps_desc @8416
    _Z18init_sync_libfuncsi @8417
    _Z18init_varasm_statusv @8418
    _Z18initialize_pluginsv @8419
    _Z18insn_could_throw_pPK7rtx_def @8420
    _Z18integer_minus_onepPK9tree_node @8421
    _Z18internal_load_fn_p11internal_fn @8422
    _Z18ipa_cp_cc_finalizev @8423
    _Z18ipa_merge_profilesP11cgraph_nodeS0_b @8424
    _Z18ipa_read_summariesv @8425
    _Z18ipcp_get_parm_bitsP9tree_nodePS0_P16generic_wide_intI22fixed_wide_int_storageILi576EEE @8426
    _Z18ira_create_allocnoibP18ira_loop_tree_node @8427
    _Z18ira_create_new_regP7rtx_def @8428
    _Z18ira_loop_edge_freqP18ira_loop_tree_nodeib @8429
    _Z18ira_parent_allocnoP11ira_allocno @8430
    _Z18is_gimple_condexprP9tree_node @8431
    _Z18is_gimple_min_lvalP9tree_node @8432
    _Z18is_ubsan_builtin_pP9tree_node @8433
    _Z18ix86_GOT_alias_setv @8434
    _Z18ix86_agi_dependentP8rtx_insnS0_ @8435
    _Z18ix86_debug_optionsv @8436
    _Z18ix86_emit_swsqrtsfP7rtx_defS0_12machine_modeb @8437
    _Z18ix86_epilogue_usesi @8438
    _Z18ix86_expand_branch8rtx_codeP7rtx_defS1_S1_ @8439
    _Z18ix86_expand_lroundP7rtx_defS0_ @8440
    _Z18ix86_expand_strlenP7rtx_defS0_S0_S0_ @8441
    _Z18ix86_handle_optionP11gcc_optionsS0_PK17cl_decoded_optionj @8442
    _Z18ix86_init_builtinsv @8443
    _Z18ix86_libcall_value12machine_mode @8444
    _Z18ix86_min_insn_sizeP8rtx_insn @8445
    _Z18ix86_output_ssemovP8rtx_insnPP7rtx_def @8446
    _Z18ix86_print_operandP6_iobufP7rtx_defi @8447
    _Z18ix86_push_rounding8poly_intILj1ExE @8448
    _Z18ix86_split_idivmod12machine_modePP7rtx_defb @8449
    _Z18ix86_target_stringxxiiPKcS0_11fpmath_unit19prefer_vector_widthS2_S2_bb @8450
    _Z18label_to_alignmentP7rtx_def @8451
    _Z18last_and_only_stmtP15basic_block_def @8452
    _Z18lhd_omp_assignmentP9tree_nodeS0_S0_ @8453
    _Z18lhd_pass_through_tP9tree_node @8454
    _Z18lhd_register_dumpsPN3gcc12dump_managerE @8455
    _Z18linemap_line_startP9line_mapsjj @8456
    _Z18linemap_module_locP9line_mapsjPKc @8457
    _Z18loc_mentioned_in_pPP7rtx_defPKS_ @8458
    _Z18lookup_internal_fnPKc @8459
    _Z18loop_exits_to_bb_pP4loopP15basic_block_def @8460
    _Z18loop_niter_by_evalP4loopP8edge_def @8461
    _Z18lra_constrain_insnP8rtx_insn @8462
    _Z18lra_create_new_reg12machine_modeP7rtx_def9reg_classP12HARD_REG_SETPKc @8463
    _Z18lra_eliminate_regsP7rtx_def12machine_modeS0_ @8464
    _Z18lto_compress_blockP22lto_compression_streamPKcy @8465
    _Z18lto_data_in_createP18lto_file_decl_dataPKcj3vecI27ld_plugin_symbol_resolution7va_heap6vl_ptrE @8466
    _Z18lto_data_in_deleteP7data_in @8467
    _Z18lto_input_locationPjP9bitpack_dP7data_in @8468
    _Z18lto_input_tree_refP15lto_input_blockP7data_inP8function8LTO_tags @8469
    _Z18lto_write_raw_dataPKvj @8470
    _Z18make_aligning_typeP9tree_nodejS0_jii @8471
    _Z18make_decl_one_onlyP9tree_nodeS0_ @8472
    _Z18make_packable_typeP9tree_nodebj @8473
    _Z18make_pass_analyzerPN3gcc7contextE @8474
    _Z18make_pass_backpropPN3gcc7contextE @8475
    _Z18make_pass_forwpropPN3gcc7contextE @8476
    _Z18make_pass_free_cfgPN3gcc7contextE @8477
    _Z18make_pass_graphitePN3gcc7contextE @8478
    _Z18make_pass_ipa_oaccPN3gcc7contextE @8479
    _Z18make_pass_iv_canonPN3gcc7contextE @8480
    _Z18make_pass_laddressPN3gcc7contextE @8481
    _Z18make_pass_loop_jamPN3gcc7contextE @8482
    _Z18make_pass_lower_cfPN3gcc7contextE @8483
    _Z18make_pass_lower_ehPN3gcc7contextE @8484
    _Z18make_pass_lower_tmPN3gcc7contextE @8485
    _Z18make_pass_rtl_dse1PN3gcc7contextE @8486
    _Z18make_pass_rtl_dse2PN3gcc7contextE @8487
    _Z18make_pass_tm_edgesPN3gcc7contextE @8488
    _Z18make_unsigned_typei @8489
    _Z18mark_addressable_2RKP9tree_nodePv @8490
    _Z18may_propagate_copyP9tree_nodeS0_b @8491
    _Z18maybe_gen_monitorx12machine_modeP7rtx_defS1_S1_ @8492
    _Z18maybe_gen_umonitor12machine_modeP7rtx_def @8493
    _Z18mem_loc_descriptorP7rtx_def12machine_modeS1_15var_init_status @8494
    _Z18misaligned_operandP7rtx_def12machine_mode @8495
    _Z18mode_for_size_treePK9tree_node10mode_classi @8496
    _Z18modified_between_pPK7rtx_defPK8rtx_insnS4_ @8497
    _Z18mpz_get_double_intPK9tree_nodeP12__mpz_structb @8498
    _Z18mpz_set_double_intP12__mpz_struct10double_intb @8499
    _Z18mult_by_coeff_costx12machine_modeb @8500
    _Z18native_encode_exprPK9tree_nodePhii @8501
    _Z18new_gimple_poly_bbP15basic_block_def3vecIP14data_reference7va_heap6vl_ptrES1_ISt4pairIP6gimpleP9tree_nodeES4_S5_ES1_ISB_S4_S5_E @8502
    _Z18next_nondebug_insnP8rtx_insn @8503
    _Z18oacc_get_fn_attribP9tree_node @8504
    _Z18oacc_set_fn_attribP9tree_nodeS0_P3vecIS0_7va_heap6vl_ptrE @8505
    _Z18obj_type_ref_classPK9tree_nodeb @8506
    _Z18omp_reduction_initP9tree_nodeS0_ @8507
    _Z18output_stack_usagev @8508
    _Z18peep2_regno_dead_pii @8509
    _Z18place_block_symbolP7rtx_def @8510
    _Z18pop_dummy_functionv @8511
    _Z18post_error_ne_treePKciiP9tree_node @8512
    _Z18post_order_computePibb @8513
    _Z18pp_format_verbatimP14pretty_printerP9text_info @8514
    _Z18pp_tree_identifierP14pretty_printerP9tree_node @8515
    _Z18predictable_edge_pP8edge_def @8516
    _Z18prev_nondebug_insnP8rtx_insn @8517
    _Z18print_current_passP6_iobuf @8518
    _Z18print_dist_vectorsP6_iobuf3vecIPx7va_heap6vl_ptrEi @8519
    _Z18print_generic_declP6_iobufP9tree_node9dump_flag @8520
    _Z18print_generic_exprP6_iobufP9tree_node9dump_flag @8521
    _Z18print_generic_stmtP6_iobufP9tree_node9dump_flag @8522
    _Z18print_isl_scheduleP6_iobufP12isl_schedule @8523
    _Z18print_plugins_helpP6_iobufPKc @8524
    _Z18print_rtx_insn_vecP6_iobufRK3vecIP8rtx_insn7va_heap6vl_ptrE @8525
    _Z18print_schedule_astP6_iobufP12isl_scheduleP4scop @8526
    _Z18print_scop_contextP6_iobufP4scop @8527
    _Z18process_attributesPP9tree_nodePP6attribbi @8528
    _Z18process_referencesP12varpool_nodePbS1_S1_S1_ @8529
    _Z18purge_empty_blocksv @8530
    _Z18read_thunk_profileP11cgraph_node @8531
    _Z18readonly_data_exprP9tree_node @8532
    _Z18record_niter_boundP4loopRK16generic_wide_intI22fixed_wide_int_storageILi576EEEbb @8533
    _Z18redirect_all_callsP14copy_body_dataP15basic_block_def @8534
    _Z18redirect_edge_predP8edge_defP15basic_block_def @8535
    _Z18redirect_edge_succP8edge_defP15basic_block_def @8536
    _Z18references_value_pPK7rtx_defi @8537
    _Z18refs_may_alias_p_1P6ao_refS0_b @8538
    _Z18reg_class_subset_pii @8539
    _Z18reg_or_pm1_operandP7rtx_def12machine_mode @8540
    _Z18reg_used_between_pPK7rtx_defPK8rtx_insnS4_ @8541
    _Z18register_attributePK14attribute_spec @8542
    _Z18register_move_cost12machine_modeii @8543
    _Z18regstat_compute_riv @8544
    _Z18relation_intersect9tree_codeS_ @8545
    _Z18relink_block_chainb @8546
    _Z18remove_conversionsP9tree_nodeb @8547
    _Z18reorder_insns_nobbP8rtx_insnS0_S0_ @8548
    _Z18return_nop_to_poolP8rtx_insnb @8549
    _Z18rewrite_out_of_ssaP9ssaexpand @8550
    _Z18rtl_predicted_by_pPK15basic_block_def12br_predictor @8551
    _Z18rtl_profile_for_bbP15basic_block_def @8552
    _Z18save_register_infov @8553
    _Z18scale_loop_profileP4loop19profile_probabilityx @8554
    _Z18scev_initialized_pv @8555
    _Z18sched_extend_luidsv @8556
    _Z18sched_finish_luidsv @8557
    _Z18schedule_ebbs_initv @8558
    _Z18sel_mark_hard_insnP7rtx_def @8559
    _Z18set_comdat_group_1P11cgraph_nodePv @8560
    _Z18set_decl_tls_modelP9tree_node9tls_model @8561
    _Z18set_insn_locationsP8rtx_insnj @8562
    _Z18set_mem_addr_spaceP7rtx_defh @8563
    _Z18set_mem_attributesP7rtx_defP9tree_nodei @8564
    _Z18set_mode_and_regnoP7rtx_def12machine_modej @8565
    _Z18set_range_info_rawP9tree_node16value_range_kindRK16generic_wide_intI20wide_int_ref_storageILb0ELb1EEES7_ @8566
    _Z18set_reduc_phi_uidsPP14reduction_infoPv @8567
    _Z18set_ssa_name_valueP9tree_nodeS0_ @8568
    _Z18set_target_contextPv @8569
    _Z18shallow_copy_rtvecP9rtvec_def @8570
    _Z18shift_return_value12machine_modebP7rtx_def @8571
    _Z18simplify_gen_unary8rtx_code12machine_modeP7rtx_defS0_ @8572
    _Z18single_likely_exitP4loopRK3vecIP8edge_def7va_heap6vl_ptrE @8573
    _Z18sort_sibling_loopsP8function @8574
    _Z18sorted_attr_stringP9tree_node @8575
    _Z18std_fn_abi_va_listP9tree_node @8576
    _Z18stmt_could_throw_pP8functionP6gimple @8577
    _Z18streamer_read_uhwiP15lto_input_block @8578
    _Z18streamer_write_hwiP12output_blockx @8579
    _Z18substitute_in_exprP9tree_nodeS0_S0_ @8580
    _Z18substitute_in_typeP9tree_nodeS0_S0_ @8581
    _Z18superloop_at_depthP4loopj @8582
    _Z18tidy_fallthru_edgeP8edge_def @8583
    _Z18timevar_cond_start12timevar_id_t @8584
    _Z18tree_could_throw_pP9tree_node @8585
    _Z18tree_decl_map_hashPKv @8586
    _Z18tree_expr_finite_pPK9tree_node @8587
    _Z18tree_float_value_pP9tree_node @8588
    _Z18tree_if_conversionP4loopP3vecIP6gimple7va_heap6vl_ptrE @8589
    _Z18tree_int_cst_equalPK9tree_nodeS1_ @8590
    _Z18tree_map_base_hashPKv @8591
    _Z18tree_negate_expr_pP9tree_node @8592
    _Z18tree_to_poly_int64PK9tree_node @8593
    _Z18trunc_int_for_mode8poly_intILj1ExE12machine_mode @8594
    _Z18trunc_int_for_modex12machine_mode @8595
    _Z18type_argument_typePK9tree_nodej @8596
    _Z18type_num_argumentsPK9tree_node @8597
    _Z18types_same_for_odrPK9tree_nodeS1_ @8598
    _Z18ubsan_encode_valueP9tree_node24ubsan_encode_value_phase @8599
    _Z18unsigned_condition8rtx_code @8600
    _Z18unterminated_arrayP9tree_nodePS0_Pb @8601
    _Z18update_bb_for_insnP15basic_block_def @8602
    _Z18update_gimple_callP20gimple_stmt_iteratorP9tree_nodeiz @8603
    _Z18valid_gimple_rhs_pP9tree_node @8604
    _Z18vect_copy_ref_infoP9tree_nodeS0_ @8605
    _Z18vect_free_slp_treeP9_slp_tree @8606
    _Z18vect_gen_while_notPP6gimpleP9tree_nodeS3_S3_ @8607
    _Z18vect_get_load_costP8vec_infoP14_stmt_vec_infoi20dr_alignment_supportibPjS4_P3vecI18stmt_info_for_cost7va_heap6vl_ptrESA_b @8608
    _Z18vect_get_loop_maskP20gimple_stmt_iteratorP8auto_vecI15rgroup_controlsLy0EEjP9tree_nodej @8609
    _Z18vect_get_store_rhsP14_stmt_vec_info @8610
    _Z18vect_is_simple_useP8vec_infoP14_stmt_vec_infoP9_slp_treejPP9tree_nodePS4_P13vect_def_typeS7_PS2_ @8611
    _Z18vect_is_simple_useP9tree_nodeP8vec_infoP13vect_def_typePP14_stmt_vec_infoPP6gimple @8612
    _Z18vect_is_simple_useP9tree_nodeP8vec_infoP13vect_def_typePS0_PP14_stmt_vec_infoPP6gimple @8613
    _Z18vect_pattern_recogP8vec_info @8614
    _Z18vect_remove_storesP8vec_infoP14_stmt_vec_info @8615
    _Z18vector_compare_rtx12machine_mode9tree_codeP9tree_nodeS2_b9insn_codej @8616
    _Z18verify_jump_threadPP15basic_block_defj @8617
    _Z18verify_rtl_sharingv @8618
    _Z18vzeroall_operationP7rtx_def12machine_mode @8619
    _Z18vzeroupper_patternP7rtx_def12machine_mode @8620
    _Z18walk_aliased_vdefsP6ao_refP9tree_nodePFbS0_S2_PvES3_PP11bitmap_headPbj @8621
    _Z18warn_function_coldP9tree_node @8622
    _Z18warn_string_no_nuljP6gimplePKcP9tree_nodeS4_S4_bPK16generic_wide_intI16wide_int_storageE @8623
    _Z18warn_string_no_nuljP9tree_nodePKcS0_S0_S0_bPK16generic_wide_intI16wide_int_storageE @8624
    _Z18warning_enabled_atji @8625
    _Z18write_complex_partP7rtx_defS0_b @8626
    _Z19add_file_prefix_mapPKc @8627
    _Z19aeswidekl_operationP7rtx_def12machine_mode @8628
    _Z19aff_combination_addP8aff_treeS0_ @8629
    _Z19aff_combination_eltP8aff_treeP9tree_nodeS2_ @8630
    _Z19alias_set_subset_ofii @8631
    _Z19alloc_aux_for_edgesi @8632
    _Z19array_elt_at_offsetP9tree_nodexPxS1_ @8633
    _Z19array_ref_low_boundP9tree_node @8634
    _Z19asan_function_startv @8635
    _Z19asan_protect_globalP9tree_nodeb @8636
    _Z19attribute_ignored_pP9tree_node @8637
    _Z19attribute_ignored_pPK14attribute_spec @8638
    _Z19bcst_vector_operandP7rtx_def12machine_mode @8639
    _Z19bitmap_ior_and_intoP11bitmap_headPKS_S2_ @8640
    _Z19bitmap_last_set_bitPK11bitmap_head @8641
    _Z19bitmap_last_set_bitPK17simple_bitmap_def @8642
    _Z19bitmap_obstack_freeP11bitmap_head @8643
    _Z19bitmap_vector_clearPP17simple_bitmap_defj @8644
    _Z19bp_pack_var_len_intP9bitpack_dx @8645
    _Z19build_call_expr_locjP9tree_nodeiz @8646
    _Z19build_component_refP9tree_nodeS0_b @8647
    _Z19build_compound_exprP9tree_nodeS0_S0_ @8648
    _Z19build_function_typeP9tree_nodeS0_ @8649
    _Z19build_low_bits_maskP9tree_nodej @8650
    _Z19build_minus_one_cstP9tree_node @8651
    _Z19build_real_truncateP9tree_node10real_value @8652
    _Z19build_tm_abort_calljb @8653
    _Z19build_tree_list_vecPK3vecIP9tree_node5va_gc8vl_embedE @8654
    _Z19builtin_mathfn_codePK9tree_node @8655
    _Z19byte_lowpart_offset12machine_modeS_ @8656
    _Z19byte_representationP9tree_nodePS0_S1_S1_ @8657
    _Z19can_mult_highpart_p12machine_modeb @8658
    _Z19can_remove_branch_pPK8edge_def @8659
    _Z19can_store_by_piecesyPFP7rtx_defPvS1_x15fixed_size_modeES1_jb @8660
    _Z19can_vcond_compare_p8rtx_code12machine_modeS0_ @8661
    _Z19cfg_layout_finalizev @8662
    _Z19choose_mult_variant12machine_modexP9algorithmP12mult_varianti @8663
    _Z19chrec_fold_multiplyP9tree_nodeS0_S0_ @8664
    _Z19cl_target_option_eqPK16cl_target_optionS1_ @8665
    _Z19cleanup_dead_labelsv @8666
    _Z19clear_aux_for_edgesv @8667
    _Z19clear_secondary_memv @8668
    _Z19clear_special_callsv @8669
    _Z19clear_storage_hintsP7rtx_defS0_16block_op_methodsjxyyyj @8670
    _Z19clone_function_nameP9tree_nodePKc @8671
    _Z19clone_function_nameP9tree_nodePKcm @8672
    _Z19clone_function_namePKcS0_m @8673
    _Z19clone_inlined_nodesP11cgraph_edgebbPi @8674
    _Z19combine_comparisonsj9tree_codeS_S_P9tree_nodeS1_S1_ @8675
    _Z19comparison_operatorP7rtx_def12machine_mode @8676
    _Z19compute_bb_for_insnv @8677
    _Z19compute_expr_transpPP4exprP6_iobuf @8678
    _Z19compute_may_aliasesv @8679
    _Z19compute_record_modeP9tree_node @8680
    _Z19contains_hot_call_pP11cgraph_node @8681
    _Z19control_flow_insn_pPK8rtx_insn @8682
    _Z19convert_affine_scevP4loopP9tree_nodePS2_S3_P6gimplebS2_ @8683
    _Z19copy_blkmode_to_reg12machine_modeP9tree_node @8684
    _Z19copy_decl_no_changeP9tree_nodeP14copy_body_data @8685
    _Z19count_formal_paramsP9tree_node @8686
    _Z19count_index_stringsPP20indirect_string_nodePj @8687
    _Z19cpp_classify_numberP10cpp_readerPK9cpp_tokenPPKcj @8688
    _Z19cpp_error_with_lineP10cpp_reader20cpp_diagnostic_leveljjPKcz @8689
    _Z19cpp_included_beforeP10cpp_readerPKcj @8690
    _Z19cpp_num_sign_extend7cpp_numy @8691
    _Z19cpp_register_pragmaP10cpp_readerPKcS2_PFvS0_Eb @8692
    _Z19cpp_token_val_indexPK9cpp_token @8693
    _Z19create_canonical_ivP4loopP8edge_defP9tree_nodePS4_S5_ @8694
    _Z19create_ddg_all_sccsP3ddg @8695
    _Z19create_output_block16lto_section_type @8696
    _Z19create_subprog_declP9tree_nodeS0_S0_S0_15inline_status_tbbbbbP6attribi @8697
    _Z19create_tmp_var_namePKc @8698
    _Z19cselib_get_next_uidv @8699
    _Z19cselib_process_insnP8rtx_insn @8700
    _Z19cselib_reg_set_modePK7rtx_def @8701
    _Z19cst_and_fits_in_hwiPK9tree_node @8702
    _Z19ctf_get_die_loc_colP10die_struct @8703
    _Z19ctfc_get_dtd_srclocP9ctf_dtdefP10ctf_srcloc @8704
    _Z19ctfc_get_dvd_srclocP9ctf_dvdefP10ctf_srcloc @8705
    _Z19ctfc_get_strtab_lenP13ctf_containeri @8706
    _Z19dbg_cnt_process_optPKc @8707
    _Z19dbr_sequence_lengthv @8708
    _Z19dead_or_set_regno_pPK8rtx_insnj @8709
    _Z19debug_isl_union_mapP13isl_union_map @8710
    _Z19debug_lattice_value16ccp_prop_value_t @8711
    _Z19debug_set_to_formatj @8712
    _Z19debug_tree_odr_nameP9tree_nodeb @8713
    _Z19decimal_real_maxvalP10real_valuei12machine_mode @8714
    _Z19decl_assembler_nameP9tree_node @8715
    _Z19decode_asm_operandsP7rtx_defPS0_PS1_PPKcP12machine_modePj @8716
    _Z19default_cstore_mode9insn_code @8717
    _Z19default_floatn_modeib @8718
    _Z19default_has_ifunc_pv @8719
    _Z19default_pass_by_refP9tree_node @8720
    _Z19default_pch_valid_pPKvy @8721
    _Z19default_rtl_profilev @8722
    _Z19delete_for_peepholeP8rtx_insnS0_ @8723
    _Z19deps_add_module_depP6mkdepsPKc @8724
    _Z19df_dump_insn_bottomPK8rtx_insnP6_iobuf @8725
    _Z19df_insn_debug_regnoP8rtx_insnP6_iobuf @8726
    _Z19df_live_add_problemv @8727
    _Z19df_note_add_problemv @8728
    _Z19df_regs_ever_live_pj @8729
    _Z19df_scan_add_problemv @8730
    _Z19df_word_lr_mark_refP8df_ref_dbP11bitmap_head @8731
    _Z19diagnostic_set_infoP15diagnostic_infoPKcPPcP13rich_location12diagnostic_t @8732
    _Z19diddle_return_valuePFvP7rtx_defPvES1_ @8733
    _Z19ds_get_max_dep_weakj @8734
    _Z19dump_active_pluginsP6_iobuf @8735
    _Z19dump_data_referenceP6_iobufP14data_reference @8736
    _Z19dump_immediate_usesP6_iobuf @8737
    _Z19dump_profile_reportv @8738
    _Z19dump_recorded_exitsP6_iobuf @8739
    _Z19dump_rtx_statisticsv @8740
    _Z19dump_tree_ssa_statsP6_iobuf @8741
    _Z19dw2_asm_output_addriPKcS0_z @8742
    _Z19dw2_asm_output_dataiyPKcz @8743
    _Z19dw2_force_const_memP7rtx_defb @8744
    _Z19edge_predicted_by_pP8edge_def12br_predictorb @8745
    _Z19eh_data_format_namei @8746
    _Z19eh_region_outermostP8functionP11eh_region_dS2_ @8747
    _Z19emit_barrier_beforeP8rtx_insn @8748
    _Z19emit_store_flag_intP7rtx_defS0_8rtx_codeS0_S0_15scalar_int_modeiiS0_ @8749
    _Z19exact_real_truncate13format_helperPK10real_value @8750
    _Z19expand_atomic_storeP7rtx_defS0_8memmodelb @8751
    _Z19expand_builtin_trapv @8752
    _Z19expand_function_endv @8753
    _Z19expand_naked_returnv @8754
    _Z19expand_simple_binop12machine_mode8rtx_codeP7rtx_defS2_S2_i13optab_methods @8755
    _Z19expand_twoval_binop9optab_tagP7rtx_defS1_S1_S1_i @8756
    _Z19expand_vec_cmp_exprP9tree_nodeS0_P7rtx_def @8757
    _Z19expand_vec_perm_var12machine_modeP7rtx_defS1_S1_S1_ @8758
    _Z19expressions_equal_pP9tree_nodeS0_b @8759
    _Z19extract_insn_cachedP8rtx_insn @8760
    _Z19fallthru_bb_of_jumpPK8rtx_insn @8761
    _Z19file_name_as_prefixP18diagnostic_contextPKc @8762
    _Z19find_closest_stringPKcPK8auto_vecIS0_Ly0EE @8763
    _Z19find_nodes_on_pathsP17simple_bitmap_defP3ddgS0_S0_ @8764
    _Z19finish_subprog_declP9tree_nodeS0_S0_ @8765
    _Z19first_map_in_commonP9line_mapsjjPjS1_ @8766
    _Z19fixup_noreturn_callP6gimple @8767
    _Z19fixup_unsigned_typeP9tree_node @8768
    _Z19flow_call_edges_addP17simple_bitmap_def @8769
    _Z19flush_pending_stmtsP8edge_def @8770
    _Z19fntype_same_flags_pPK9tree_nodePS_bbb @8771
    _Z19fold_builtin_expectjP9tree_nodeS0_S0_S0_ @8772
    _Z19fold_ctor_referenceP9tree_nodeS0_RK8poly_intILj1EyES4_S0_Py @8773
    _Z19fold_ignored_resultP9tree_node @8774
    _Z19fold_indirect_ref_1jP9tree_nodeS0_ @8775
    _Z19force_value_to_typeP9tree_nodeS0_ @8776
    _Z19fp_register_operandP7rtx_def12machine_mode @8777
    _Z19free_EXPR_LIST_listPP13rtx_expr_list @8778
    _Z19free_EXPR_LIST_nodeP7rtx_def @8779
    _Z19free_INSN_LIST_listPP13rtx_insn_list @8780
    _Z19free_INSN_LIST_nodeP7rtx_def @8781
    _Z19free_aux_for_blocksv @8782
    _Z19free_dominance_info13cdi_direction @8783
    _Z19free_dominance_infoP8function13cdi_direction @8784
    _Z19free_gimplify_stackv @8785
    _Z19free_name_expansionRKP9tree_nodePP14name_expansionPv @8786
    _Z19gcov_write_filenamePKc @8787
    _Z19gcov_write_unsignedj @8788
    _Z19gen_addv16sf3_roundP7rtx_defS0_S0_S0_ @8789
    _Z19gen_addv32hf3_roundP7rtx_defS0_S0_S0_ @8790
    _Z19gen_aeskeygenassistP7rtx_defS0_S0_ @8791
    _Z19gen_ashlv16hi3_maskP7rtx_defS0_S0_S0_S0_ @8792
    _Z19gen_ashlv16si3_maskP7rtx_defS0_S0_S0_S0_ @8793
    _Z19gen_ashlv32hi3_maskP7rtx_defS0_S0_S0_S0_ @8794
    _Z19gen_ashrv16hi3_maskP7rtx_defS0_S0_S0_S0_ @8795
    _Z19gen_ashrv16si3_maskP7rtx_defS0_S0_S0_S0_ @8796
    _Z19gen_ashrv32hi3_maskP7rtx_defS0_S0_S0_S0_ @8797
    _Z19gen_avx2_maskstoredP7rtx_defS0_S0_ @8798
    _Z19gen_avx2_maskstoreqP7rtx_defS0_S0_ @8799
    _Z19gen_avx2_pblendph_1P7rtx_defS0_S0_S0_ @8800
    _Z19gen_avx2_permv4df_1P7rtx_defS0_S0_S0_S0_S0_ @8801
    _Z19gen_avx2_permv4di_1P7rtx_defS0_S0_S0_S0_S0_ @8802
    _Z19gen_avx2_psignv8si3P7rtx_defS0_S0_ @8803
    _Z19gen_avx2_uavgv16hi3P7rtx_defS0_S0_ @8804
    _Z19gen_avx2_uavgv32qi3P7rtx_defS0_S0_ @8805
    _Z19gen_avx512f_eqv8di3P7rtx_defS0_S0_ @8806
    _Z19gen_avx512f_gtv8di3P7rtx_defS0_S0_ @8807
    _Z19gen_avx512f_rolv8diP7rtx_defS0_S0_ @8808
    _Z19gen_avx512f_rorv8diP7rtx_defS0_S0_ @8809
    _Z19gen_avx_andnotv4df3P7rtx_defS0_S0_ @8810
    _Z19gen_avx_andnotv8sf3P7rtx_defS0_S0_ @8811
    _Z19gen_avx_blendvpd256P7rtx_defS0_S0_S0_ @8812
    _Z19gen_avx_blendvps256P7rtx_defS0_S0_S0_ @8813
    _Z19gen_avx_cvtpd2dq256P7rtx_defS0_ @8814
    _Z19gen_avx_cvtpd2ps256P7rtx_defS0_ @8815
    _Z19gen_avx_cvtps2pd256P7rtx_defS0_ @8816
    _Z19gen_avx_maskstorepdP7rtx_defS0_S0_ @8817
    _Z19gen_avx_maskstorepsP7rtx_defS0_S0_ @8818
    _Z19gen_avx_movmskpd256P7rtx_defS0_ @8819
    _Z19gen_avx_movmskps256P7rtx_defS0_ @8820
    _Z19gen_avx_movshdup256P7rtx_defS0_ @8821
    _Z19gen_avx_movsldup256P7rtx_defS0_ @8822
    _Z19gen_avx_shufpd256_1P7rtx_defS0_S0_S0_S0_S0_S0_ @8823
    _Z19gen_avx_shufps256_1P7rtx_defS0_S0_S0_S0_S0_S0_S0_S0_S0_S0_ @8824
    _Z19gen_avx_unpckhpd256P7rtx_defS0_S0_ @8825
    _Z19gen_avx_unpckhps256P7rtx_defS0_S0_ @8826
    _Z19gen_avx_unpcklpd256P7rtx_defS0_S0_ @8827
    _Z19gen_avx_unpcklps256P7rtx_defS0_S0_ @8828
    _Z19gen_avx_vpermilv2dfP7rtx_defS0_S0_ @8829
    _Z19gen_avx_vpermilv4dfP7rtx_defS0_S0_ @8830
    _Z19gen_avx_vpermilv4sfP7rtx_defS0_S0_ @8831
    _Z19gen_avx_vpermilv8sfP7rtx_defS0_S0_ @8832
    _Z19gen_bswaphi_lowpartP7rtx_def @8833
    _Z19gen_cmla_conjv16hf4P7rtx_defS0_S0_S0_ @8834
    _Z19gen_cmla_conjv32hf4P7rtx_defS0_S0_S0_ @8835
    _Z19gen_cmul_conjv16hf3P7rtx_defS0_S0_ @8836
    _Z19gen_cmul_conjv32hf3P7rtx_defS0_S0_ @8837
    _Z19gen_eh_region_catchP11eh_region_dP9tree_node @8838
    _Z19gen_encodekey128u32P7rtx_defS0_ @8839
    _Z19gen_encodekey256u32P7rtx_defS0_ @8840
    _Z19gen_expandv2df_maskP7rtx_defS0_S0_S0_ @8841
    _Z19gen_expandv2di_maskP7rtx_defS0_S0_S0_ @8842
    _Z19gen_expandv4df_maskP7rtx_defS0_S0_S0_ @8843
    _Z19gen_expandv4di_maskP7rtx_defS0_S0_S0_ @8844
    _Z19gen_expandv4sf_maskP7rtx_defS0_S0_S0_ @8845
    _Z19gen_expandv4si_maskP7rtx_defS0_S0_S0_ @8846
    _Z19gen_expandv8df_maskP7rtx_defS0_S0_S0_ @8847
    _Z19gen_expandv8di_maskP7rtx_defS0_S0_S0_ @8848
    _Z19gen_expandv8hi_maskP7rtx_defS0_S0_S0_ @8849
    _Z19gen_expandv8sf_maskP7rtx_defS0_S0_S0_ @8850
    _Z19gen_expandv8si_maskP7rtx_defS0_S0_S0_ @8851
    _Z19gen_extendv2hfv2df2P7rtx_defS0_ @8852
    _Z19gen_extendv2hiv2di2P7rtx_defS0_ @8853
    _Z19gen_extendv2qiv2di2P7rtx_defS0_ @8854
    _Z19gen_extendv2sfv2df2P7rtx_defS0_ @8855
    _Z19gen_extendv2siv2di2P7rtx_defS0_ @8856
    _Z19gen_extendv4hfv4df2P7rtx_defS0_ @8857
    _Z19gen_extendv4hfv4sf2P7rtx_defS0_ @8858
    _Z19gen_extendv4hiv4di2P7rtx_defS0_ @8859
    _Z19gen_extendv4hiv4si2P7rtx_defS0_ @8860
    _Z19gen_extendv4qiv4di2P7rtx_defS0_ @8861
    _Z19gen_extendv4qiv4si2P7rtx_defS0_ @8862
    _Z19gen_extendv4sfv4df2P7rtx_defS0_ @8863
    _Z19gen_extendv4siv4di2P7rtx_defS0_ @8864
    _Z19gen_extendv8hfv8df2P7rtx_defS0_ @8865
    _Z19gen_extendv8hfv8sf2P7rtx_defS0_ @8866
    _Z19gen_extendv8hiv8di2P7rtx_defS0_ @8867
    _Z19gen_extendv8hiv8si2P7rtx_defS0_ @8868
    _Z19gen_extendv8qiv8di2P7rtx_defS0_ @8869
    _Z19gen_extendv8qiv8hi2P7rtx_defS0_ @8870
    _Z19gen_extendv8qiv8si2P7rtx_defS0_ @8871
    _Z19gen_extendv8sfv8df2P7rtx_defS0_ @8872
    _Z19gen_extendv8siv8di2P7rtx_defS0_ @8873
    _Z19gen_ffssi2_no_cmoveP7rtx_defS0_ @8874
    _Z19gen_fma4i_fnmadd_dfP7rtx_defS0_S0_S0_ @8875
    _Z19gen_fma4i_fnmadd_sfP7rtx_defS0_S0_S0_ @8876
    _Z19gen_fma4i_fnmsub_dfP7rtx_defS0_S0_S0_ @8877
    _Z19gen_fma4i_fnmsub_sfP7rtx_defS0_S0_S0_ @8878
    _Z19gen_fma_fmaddc_v8hfP7rtx_defS0_S0_S0_ @8879
    _Z19gen_frndintxf2_ceilP7rtx_defS0_ @8880
    _Z19gen_fxtractxf3_i387P7rtx_defS0_S0_ @8881
    _Z19gen_fyl2xp1xf3_i387P7rtx_defS0_S0_ @8882
    _Z19gen_intv_fp_libfunc9optab_tagPKcc12machine_mode @8883
    _Z19gen_lowpart_general12machine_modeP7rtx_def @8884
    _Z19gen_lshrv16hi3_maskP7rtx_defS0_S0_S0_S0_ @8885
    _Z19gen_lshrv16si3_maskP7rtx_defS0_S0_S0_S0_ @8886
    _Z19gen_lshrv32hi3_maskP7rtx_defS0_S0_S0_S0_ @8887
    _Z19gen_maskloadv16hfhiP7rtx_defS0_S0_ @8888
    _Z19gen_maskloadv16hihiP7rtx_defS0_S0_ @8889
    _Z19gen_maskloadv16qihiP7rtx_defS0_S0_ @8890
    _Z19gen_maskloadv16sfhiP7rtx_defS0_S0_ @8891
    _Z19gen_maskloadv16sihiP7rtx_defS0_S0_ @8892
    _Z19gen_maskloadv32hfsiP7rtx_defS0_S0_ @8893
    _Z19gen_maskloadv32hisiP7rtx_defS0_S0_ @8894
    _Z19gen_maskloadv32qisiP7rtx_defS0_S0_ @8895
    _Z19gen_maskloadv64qidiP7rtx_defS0_S0_ @8896
    _Z19gen_maskstorev2dfqiP7rtx_defS0_S0_ @8897
    _Z19gen_maskstorev2diqiP7rtx_defS0_S0_ @8898
    _Z19gen_maskstorev4dfqiP7rtx_defS0_S0_ @8899
    _Z19gen_maskstorev4diqiP7rtx_defS0_S0_ @8900
    _Z19gen_maskstorev4sfqiP7rtx_defS0_S0_ @8901
    _Z19gen_maskstorev4siqiP7rtx_defS0_S0_ @8902
    _Z19gen_maskstorev8dfqiP7rtx_defS0_S0_ @8903
    _Z19gen_maskstorev8diqiP7rtx_defS0_S0_ @8904
    _Z19gen_maskstorev8hfqiP7rtx_defS0_S0_ @8905
    _Z19gen_maskstorev8hiqiP7rtx_defS0_S0_ @8906
    _Z19gen_maskstorev8sfqiP7rtx_defS0_S0_ @8907
    _Z19gen_maskstorev8siqiP7rtx_defS0_S0_ @8908
    _Z19gen_memory_blockagev @8909
    _Z19gen_mmx_andnotv2si3P7rtx_defS0_S0_ @8910
    _Z19gen_mmx_andnotv4hi3P7rtx_defS0_S0_ @8911
    _Z19gen_mmx_andnotv8qi3P7rtx_defS0_S0_ @8912
    _Z19gen_mmx_pshufbv4qi3P7rtx_defS0_S0_ @8913
    _Z19gen_mmx_pshufbv8qi3P7rtx_defS0_S0_ @8914
    _Z19gen_mmx_pswapdv2sf2P7rtx_defS0_ @8915
    _Z19gen_mmx_pswapdv2si2P7rtx_defS0_ @8916
    _Z19gen_mmx_rcpit1v2sf3P7rtx_defS0_S0_ @8917
    _Z19gen_mmx_rcpit2v2sf3P7rtx_defS0_S0_ @8918
    _Z19gen_mmx_rsqit1v2sf3P7rtx_defS0_S0_ @8919
    _Z19gen_movmisalignv1diP7rtx_defS0_ @8920
    _Z19gen_movmisalignv1siP7rtx_defS0_ @8921
    _Z19gen_movmisalignv1tiP7rtx_defS0_ @8922
    _Z19gen_movmisalignv2dfP7rtx_defS0_ @8923
    _Z19gen_movmisalignv2diP7rtx_defS0_ @8924
    _Z19gen_movmisalignv2hfP7rtx_defS0_ @8925
    _Z19gen_movmisalignv2hiP7rtx_defS0_ @8926
    _Z19gen_movmisalignv2qiP7rtx_defS0_ @8927
    _Z19gen_movmisalignv2sfP7rtx_defS0_ @8928
    _Z19gen_movmisalignv2siP7rtx_defS0_ @8929
    _Z19gen_movmisalignv2tiP7rtx_defS0_ @8930
    _Z19gen_movmisalignv4dfP7rtx_defS0_ @8931
    _Z19gen_movmisalignv4diP7rtx_defS0_ @8932
    _Z19gen_movmisalignv4hfP7rtx_defS0_ @8933
    _Z19gen_movmisalignv4hiP7rtx_defS0_ @8934
    _Z19gen_movmisalignv4qiP7rtx_defS0_ @8935
    _Z19gen_movmisalignv4sfP7rtx_defS0_ @8936
    _Z19gen_movmisalignv4siP7rtx_defS0_ @8937
    _Z19gen_movmisalignv4tiP7rtx_defS0_ @8938
    _Z19gen_movmisalignv8dfP7rtx_defS0_ @8939
    _Z19gen_movmisalignv8diP7rtx_defS0_ @8940
    _Z19gen_movmisalignv8hfP7rtx_defS0_ @8941
    _Z19gen_movmisalignv8hiP7rtx_defS0_ @8942
    _Z19gen_movmisalignv8qiP7rtx_defS0_ @8943
    _Z19gen_movmisalignv8sfP7rtx_defS0_ @8944
    _Z19gen_movmisalignv8siP7rtx_defS0_ @8945
    _Z19gen_mulv16sf3_roundP7rtx_defS0_S0_S0_ @8946
    _Z19gen_mulv32hf3_roundP7rtx_defS0_S0_S0_ @8947
    _Z19gen_nearbyintv16hf2P7rtx_defS0_ @8948
    _Z19gen_nearbyintv16sf2P7rtx_defS0_ @8949
    _Z19gen_nearbyintv32hf2P7rtx_defS0_ @8950
    _Z19gen_producer_stringPKcP17cl_decoded_optionj @8951
    _Z19gen_rcp14v16sf_maskP7rtx_defS0_S0_S0_ @8952
    _Z19gen_roundv4sf2_sfixP7rtx_defS0_ @8953
    _Z19gen_roundv8sf2_sfixP7rtx_defS0_ @8954
    _Z19gen_smaxv16hf3_maskP7rtx_defS0_S0_S0_S0_ @8955
    _Z19gen_smaxv16hi3_maskP7rtx_defS0_S0_S0_S0_ @8956
    _Z19gen_smaxv16qi3_maskP7rtx_defS0_S0_S0_S0_ @8957
    _Z19gen_smaxv16sf3_maskP7rtx_defS0_S0_S0_S0_ @8958
    _Z19gen_smaxv16si3_maskP7rtx_defS0_S0_S0_S0_ @8959
    _Z19gen_smaxv32hf3_maskP7rtx_defS0_S0_S0_S0_ @8960
    _Z19gen_smaxv32hi3_maskP7rtx_defS0_S0_S0_S0_ @8961
    _Z19gen_smaxv32qi3_maskP7rtx_defS0_S0_S0_S0_ @8962
    _Z19gen_smaxv64qi3_maskP7rtx_defS0_S0_S0_S0_ @8963
    _Z19gen_smaxv8df3_roundP7rtx_defS0_S0_S0_ @8964
    _Z19gen_sminv16hf3_maskP7rtx_defS0_S0_S0_S0_ @8965
    _Z19gen_sminv16hi3_maskP7rtx_defS0_S0_S0_S0_ @8966
    _Z19gen_sminv16qi3_maskP7rtx_defS0_S0_S0_S0_ @8967
    _Z19gen_sminv16sf3_maskP7rtx_defS0_S0_S0_S0_ @8968
    _Z19gen_sminv16si3_maskP7rtx_defS0_S0_S0_S0_ @8969
    _Z19gen_sminv32hf3_maskP7rtx_defS0_S0_S0_S0_ @8970
    _Z19gen_sminv32hi3_maskP7rtx_defS0_S0_S0_S0_ @8971
    _Z19gen_sminv32qi3_maskP7rtx_defS0_S0_S0_S0_ @8972
    _Z19gen_sminv64qi3_maskP7rtx_defS0_S0_S0_S0_ @8973
    _Z19gen_sminv8df3_roundP7rtx_defS0_S0_S0_ @8974
    _Z19gen_srcp14v2df_maskP7rtx_defS0_S0_S0_S0_ @8975
    _Z19gen_srcp14v4sf_maskP7rtx_defS0_S0_S0_S0_ @8976
    _Z19gen_sse2_comi_roundP7rtx_defS0_S0_ @8977
    _Z19gen_sse2_cvtsd2si_2P7rtx_defS0_ @8978
    _Z19gen_sse2_cvttsd2siqP7rtx_defS0_ @8979
    _Z19gen_sse2_maskmovdquP7rtx_defS0_S0_ @8980
    _Z19gen_sse2_ssaddv8hi3P7rtx_defS0_S0_ @8981
    _Z19gen_sse2_sssubv8hi3P7rtx_defS0_S0_ @8982
    _Z19gen_sse2_uavgv16qi3P7rtx_defS0_S0_ @8983
    _Z19gen_sse2_usaddv8hi3P7rtx_defS0_S0_ @8984
    _Z19gen_sse2_ussubv8hi3P7rtx_defS0_S0_ @8985
    _Z19gen_sse2_vmaddv2df3P7rtx_defS0_S0_ @8986
    _Z19gen_sse2_vmdivv2df3P7rtx_defS0_S0_ @8987
    _Z19gen_sse2_vmmulv2df3P7rtx_defS0_S0_ @8988
    _Z19gen_sse2_vmsubv2df3P7rtx_defS0_S0_ @8989
    _Z19gen_sse3_monitor_diP7rtx_defS0_S0_ @8990
    _Z19gen_sse3_monitor_siP7rtx_defS0_S0_ @8991
    _Z19gen_sse4_1_blendvpdP7rtx_defS0_S0_S0_ @8992
    _Z19gen_sse4_1_blendvpsP7rtx_defS0_S0_S0_ @8993
    _Z19gen_sse4_1_blendvsdP7rtx_defS0_S0_S0_ @8994
    _Z19gen_sse4_1_blendvssP7rtx_defS0_S0_S0_ @8995
    _Z19gen_sse4_1_insertpsP7rtx_defS0_S0_S0_ @8996
    _Z19gen_sse4_1_movntdqaP7rtx_defS0_ @8997
    _Z19gen_sse4_1_packusdwP7rtx_defS0_S0_ @8998
    _Z19gen_sse4_1_pblendphP7rtx_defS0_S0_S0_ @8999
    _Z19gen_sse4_1_pblendvbP7rtx_defS0_S0_S0_ @9000
    _Z19gen_sse4_1_rounddf2P7rtx_defS0_S0_ @9001
    _Z19gen_sse4_1_roundhf2P7rtx_defS0_S0_ @9002
    _Z19gen_sse4_1_roundsf2P7rtx_defS0_S0_ @9003
    _Z19gen_sse4_2_pcmpestrP7rtx_defS0_S0_S0_S0_S0_S0_ @9004
    _Z19gen_sse4_2_pcmpistrP7rtx_defS0_S0_S0_S0_ @9005
    _Z19gen_sse_andnotv4sf3P7rtx_defS0_S0_ @9006
    _Z19gen_sse_cvtss2siq_2P7rtx_defS0_ @9007
    _Z19gen_sse_loadhps_expP7rtx_defS0_S0_ @9008
    _Z19gen_sse_loadlps_expP7rtx_defS0_S0_ @9009
    _Z19gen_sse_movhlps_expP7rtx_defS0_S0_ @9010
    _Z19gen_sse_movlhps_expP7rtx_defS0_S0_ @9011
    _Z19gen_sse_shufps_maskP7rtx_defS0_S0_S0_S0_S0_ @9012
    _Z19gen_sse_shufps_v4sfP7rtx_defS0_S0_S0_S0_S0_S0_ @9013
    _Z19gen_sse_shufps_v4siP7rtx_defS0_S0_S0_S0_S0_S0_ @9014
    _Z19gen_sse_ucomi_roundP7rtx_defS0_S0_ @9015
    _Z19gen_sse_vmsmaxv4sf3P7rtx_defS0_S0_ @9016
    _Z19gen_sse_vmsminv4sf3P7rtx_defS0_S0_ @9017
    _Z19gen_sse_vmsqrtv4sf2P7rtx_defS0_S0_ @9018
    _Z19gen_ssse3_palignrdiP7rtx_defS0_S0_S0_ @9019
    _Z19gen_ssse3_palignrtiP7rtx_defS0_S0_S0_ @9020
    _Z19gen_ssse3_pmaddubswP7rtx_defS0_S0_ @9021
    _Z19gen_storedi_via_fpuP7rtx_defS0_ @9022
    _Z19gen_storedi_via_sseP7rtx_defS0_ @9023
    _Z19gen_strmov_singleopP7rtx_defS0_S0_S0_S0_S0_ @9024
    _Z19gen_strset_singleopP7rtx_defS0_S0_S0_ @9025
    _Z19gen_sub3_carry_ccgz12machine_modeP7rtx_defS1_S1_ @9026
    _Z19gen_subv16sf3_roundP7rtx_defS0_S0_S0_ @9027
    _Z19gen_subv32hf3_roundP7rtx_defS0_S0_S0_ @9028
    _Z19gen_uavgv16hi3_ceilP7rtx_defS0_S0_ @9029
    _Z19gen_uavgv16qi3_ceilP7rtx_defS0_S0_ @9030
    _Z19gen_uavgv32hi3_ceilP7rtx_defS0_S0_ @9031
    _Z19gen_uavgv32qi3_ceilP7rtx_defS0_S0_ @9032
    _Z19gen_uavgv64qi3_ceilP7rtx_defS0_S0_ @9033
    _Z19gen_ufloatv2siv2df2P7rtx_defS0_ @9034
    _Z19gen_ufloatv4siv4df2P7rtx_defS0_ @9035
    _Z19gen_ufloatv4siv4sf2P7rtx_defS0_ @9036
    _Z19gen_ufloatv8siv8df2P7rtx_defS0_ @9037
    _Z19gen_ufloatv8siv8sf2P7rtx_defS0_ @9038
    _Z19gen_umaxv16hi3_maskP7rtx_defS0_S0_S0_S0_ @9039
    _Z19gen_umaxv16qi3_maskP7rtx_defS0_S0_S0_S0_ @9040
    _Z19gen_umaxv16si3_maskP7rtx_defS0_S0_S0_S0_ @9041
    _Z19gen_umaxv32hi3_maskP7rtx_defS0_S0_S0_S0_ @9042
    _Z19gen_umaxv32qi3_maskP7rtx_defS0_S0_S0_S0_ @9043
    _Z19gen_umaxv64qi3_maskP7rtx_defS0_S0_S0_S0_ @9044
    _Z19gen_uminv16hi3_maskP7rtx_defS0_S0_S0_S0_ @9045
    _Z19gen_uminv16qi3_maskP7rtx_defS0_S0_S0_S0_ @9046
    _Z19gen_uminv16si3_maskP7rtx_defS0_S0_S0_S0_ @9047
    _Z19gen_uminv32hi3_maskP7rtx_defS0_S0_S0_S0_ @9048
    _Z19gen_uminv32qi3_maskP7rtx_defS0_S0_S0_S0_ @9049
    _Z19gen_uminv64qi3_maskP7rtx_defS0_S0_S0_S0_ @9050
    _Z19gen_usdot_prodv16qiP7rtx_defS0_S0_S0_ @9051
    _Z19gen_usdot_prodv32qiP7rtx_defS0_S0_S0_ @9052
    _Z19gen_usdot_prodv64qiP7rtx_defS0_S0_S0_ @9053
    _Z19gen_vcondeqv2dfv2diP7rtx_defS0_S0_S0_S0_S0_ @9054
    _Z19gen_vcondeqv2div2diP7rtx_defS0_S0_S0_S0_S0_ @9055
    _Z19gen_vconduv16hiv4diP7rtx_defS0_S0_S0_S0_S0_ @9056
    _Z19gen_vconduv16hiv8siP7rtx_defS0_S0_S0_S0_S0_ @9057
    _Z19gen_vconduv16qiv4siP7rtx_defS0_S0_S0_S0_S0_ @9058
    _Z19gen_vconduv16qiv8hiP7rtx_defS0_S0_S0_S0_S0_ @9059
    _Z19gen_vconduv16sfv8diP7rtx_defS0_S0_S0_S0_S0_ @9060
    _Z19gen_vconduv16siv8diP7rtx_defS0_S0_S0_S0_S0_ @9061
    _Z19gen_vconduv2dfv16qiP7rtx_defS0_S0_S0_S0_S0_ @9062
    _Z19gen_vconduv2div16qiP7rtx_defS0_S0_S0_S0_S0_ @9063
    _Z19gen_vconduv32hiv8diP7rtx_defS0_S0_S0_S0_S0_ @9064
    _Z19gen_vconduv32qiv4diP7rtx_defS0_S0_S0_S0_S0_ @9065
    _Z19gen_vconduv32qiv8siP7rtx_defS0_S0_S0_S0_S0_ @9066
    _Z19gen_vconduv4dfv16hiP7rtx_defS0_S0_S0_S0_S0_ @9067
    _Z19gen_vconduv4dfv32qiP7rtx_defS0_S0_S0_S0_S0_ @9068
    _Z19gen_vconduv4div16hiP7rtx_defS0_S0_S0_S0_S0_ @9069
    _Z19gen_vconduv4div32qiP7rtx_defS0_S0_S0_S0_S0_ @9070
    _Z19gen_vconduv4sfv16qiP7rtx_defS0_S0_S0_S0_S0_ @9071
    _Z19gen_vconduv4siv16qiP7rtx_defS0_S0_S0_S0_S0_ @9072
    _Z19gen_vconduv64qiv8diP7rtx_defS0_S0_S0_S0_S0_ @9073
    _Z19gen_vconduv8dfv16siP7rtx_defS0_S0_S0_S0_S0_ @9074
    _Z19gen_vconduv8dfv32hiP7rtx_defS0_S0_S0_S0_S0_ @9075
    _Z19gen_vconduv8dfv64qiP7rtx_defS0_S0_S0_S0_S0_ @9076
    _Z19gen_vconduv8div16siP7rtx_defS0_S0_S0_S0_S0_ @9077
    _Z19gen_vconduv8div32hiP7rtx_defS0_S0_S0_S0_S0_ @9078
    _Z19gen_vconduv8div64qiP7rtx_defS0_S0_S0_S0_S0_ @9079
    _Z19gen_vconduv8hiv16qiP7rtx_defS0_S0_S0_S0_S0_ @9080
    _Z19gen_vconduv8sfv16hiP7rtx_defS0_S0_S0_S0_S0_ @9081
    _Z19gen_vconduv8sfv32qiP7rtx_defS0_S0_S0_S0_S0_ @9082
    _Z19gen_vconduv8siv16hiP7rtx_defS0_S0_S0_S0_S0_ @9083
    _Z19gen_vconduv8siv32qiP7rtx_defS0_S0_S0_S0_S0_ @9084
    _Z19gen_vcondv16hfv16hfP7rtx_defS0_S0_S0_S0_S0_ @9085
    _Z19gen_vcondv16hfv16hiP7rtx_defS0_S0_S0_S0_S0_ @9086
    _Z19gen_vcondv16hiv16hfP7rtx_defS0_S0_S0_S0_S0_ @9087
    _Z19gen_vcondv16hiv16hiP7rtx_defS0_S0_S0_S0_S0_ @9088
    _Z19gen_vcondv16hiv32qiP7rtx_defS0_S0_S0_S0_S0_ @9089
    _Z19gen_vcondv16qiv16qiP7rtx_defS0_S0_S0_S0_S0_ @9090
    _Z19gen_vcondv16sfv16sfP7rtx_defS0_S0_S0_S0_S0_ @9091
    _Z19gen_vcondv16sfv16siP7rtx_defS0_S0_S0_S0_S0_ @9092
    _Z19gen_vcondv16sfv32hiP7rtx_defS0_S0_S0_S0_S0_ @9093
    _Z19gen_vcondv16sfv64qiP7rtx_defS0_S0_S0_S0_S0_ @9094
    _Z19gen_vcondv16siv16sfP7rtx_defS0_S0_S0_S0_S0_ @9095
    _Z19gen_vcondv16siv16siP7rtx_defS0_S0_S0_S0_S0_ @9096
    _Z19gen_vcondv16siv32hiP7rtx_defS0_S0_S0_S0_S0_ @9097
    _Z19gen_vcondv16siv64qiP7rtx_defS0_S0_S0_S0_S0_ @9098
    _Z19gen_vcondv32hfv32hfP7rtx_defS0_S0_S0_S0_S0_ @9099
    _Z19gen_vcondv32hfv32hiP7rtx_defS0_S0_S0_S0_S0_ @9100
    _Z19gen_vcondv32hiv16sfP7rtx_defS0_S0_S0_S0_S0_ @9101
    _Z19gen_vcondv32hiv16siP7rtx_defS0_S0_S0_S0_S0_ @9102
    _Z19gen_vcondv32hiv32hfP7rtx_defS0_S0_S0_S0_S0_ @9103
    _Z19gen_vcondv32hiv32hiP7rtx_defS0_S0_S0_S0_S0_ @9104
    _Z19gen_vcondv32hiv64qiP7rtx_defS0_S0_S0_S0_S0_ @9105
    _Z19gen_vcondv32qiv16hiP7rtx_defS0_S0_S0_S0_S0_ @9106
    _Z19gen_vcondv32qiv32qiP7rtx_defS0_S0_S0_S0_S0_ @9107
    _Z19gen_vcondv64qiv16sfP7rtx_defS0_S0_S0_S0_S0_ @9108
    _Z19gen_vcondv64qiv16siP7rtx_defS0_S0_S0_S0_S0_ @9109
    _Z19gen_vcondv64qiv32hiP7rtx_defS0_S0_S0_S0_S0_ @9110
    _Z19gen_vcondv64qiv64qiP7rtx_defS0_S0_S0_S0_S0_ @9111
    _Z19gen_vec_addsubv2df3P7rtx_defS0_S0_ @9112
    _Z19gen_vec_addsubv2sf3P7rtx_defS0_S0_ @9113
    _Z19gen_vec_addsubv4df3P7rtx_defS0_S0_ @9114
    _Z19gen_vec_addsubv4sf3P7rtx_defS0_S0_ @9115
    _Z19gen_vec_addsubv8sf3P7rtx_defS0_S0_ @9116
    _Z19gen_vec_cmpuv16hihiP7rtx_defS0_S0_S0_ @9117
    _Z19gen_vec_cmpuv16qihiP7rtx_defS0_S0_S0_ @9118
    _Z19gen_vec_cmpuv16sihiP7rtx_defS0_S0_S0_ @9119
    _Z19gen_vec_cmpuv32hisiP7rtx_defS0_S0_S0_ @9120
    _Z19gen_vec_cmpuv32qisiP7rtx_defS0_S0_S0_ @9121
    _Z19gen_vec_cmpuv64qidiP7rtx_defS0_S0_S0_ @9122
    _Z19gen_vec_cmpv2dfv2diP7rtx_defS0_S0_S0_ @9123
    _Z19gen_vec_cmpv2div2diP7rtx_defS0_S0_S0_ @9124
    _Z19gen_vec_cmpv2hiv2hiP7rtx_defS0_S0_S0_ @9125
    _Z19gen_vec_cmpv2qiv2qiP7rtx_defS0_S0_S0_ @9126
    _Z19gen_vec_cmpv2sfv2siP7rtx_defS0_S0_S0_ @9127
    _Z19gen_vec_cmpv2siv2siP7rtx_defS0_S0_S0_ @9128
    _Z19gen_vec_cmpv4dfv4diP7rtx_defS0_S0_S0_ @9129
    _Z19gen_vec_cmpv4div4diP7rtx_defS0_S0_S0_ @9130
    _Z19gen_vec_cmpv4hiv4hiP7rtx_defS0_S0_S0_ @9131
    _Z19gen_vec_cmpv4qiv4qiP7rtx_defS0_S0_S0_ @9132
    _Z19gen_vec_cmpv4sfv4siP7rtx_defS0_S0_S0_ @9133
    _Z19gen_vec_cmpv4siv4siP7rtx_defS0_S0_S0_ @9134
    _Z19gen_vec_cmpv8hiv8hiP7rtx_defS0_S0_S0_ @9135
    _Z19gen_vec_cmpv8qiv8qiP7rtx_defS0_S0_S0_ @9136
    _Z19gen_vec_cmpv8sfv8siP7rtx_defS0_S0_S0_ @9137
    _Z19gen_vec_cmpv8siv8siP7rtx_defS0_S0_S0_ @9138
    _Z19gen_vec_initv16hfhfP7rtx_defS0_ @9139
    _Z19gen_vec_initv16hihiP7rtx_defS0_ @9140
    _Z19gen_vec_initv16qiqiP7rtx_defS0_ @9141
    _Z19gen_vec_initv16sfsfP7rtx_defS0_ @9142
    _Z19gen_vec_initv16sisiP7rtx_defS0_ @9143
    _Z19gen_vec_initv32hfhfP7rtx_defS0_ @9144
    _Z19gen_vec_initv32hihiP7rtx_defS0_ @9145
    _Z19gen_vec_initv32qiqiP7rtx_defS0_ @9146
    _Z19gen_vec_initv64qiqiP7rtx_defS0_ @9147
    _Z19gen_vec_set_hi_v4dfP7rtx_defS0_S0_ @9148
    _Z19gen_vec_set_hi_v4diP7rtx_defS0_S0_ @9149
    _Z19gen_vec_set_hi_v8dfP7rtx_defS0_S0_ @9150
    _Z19gen_vec_set_hi_v8diP7rtx_defS0_S0_ @9151
    _Z19gen_vec_set_hi_v8sfP7rtx_defS0_S0_ @9152
    _Z19gen_vec_set_hi_v8siP7rtx_defS0_S0_ @9153
    _Z19gen_vec_set_lo_v4dfP7rtx_defS0_S0_ @9154
    _Z19gen_vec_set_lo_v4diP7rtx_defS0_S0_ @9155
    _Z19gen_vec_set_lo_v8dfP7rtx_defS0_S0_ @9156
    _Z19gen_vec_set_lo_v8diP7rtx_defS0_S0_ @9157
    _Z19gen_vec_set_lo_v8sfP7rtx_defS0_S0_ @9158
    _Z19gen_vec_set_lo_v8siP7rtx_defS0_S0_ @9159
    _Z19gen_vpamdd52huqv2diP7rtx_defS0_S0_S0_ @9160
    _Z19gen_vpamdd52huqv4diP7rtx_defS0_S0_S0_ @9161
    _Z19gen_vpamdd52huqv8diP7rtx_defS0_S0_S0_ @9162
    _Z19gen_vpamdd52luqv2diP7rtx_defS0_S0_S0_ @9163
    _Z19gen_vpamdd52luqv4diP7rtx_defS0_S0_S0_ @9164
    _Z19gen_vpamdd52luqv8diP7rtx_defS0_S0_S0_ @9165
    _Z19gen_vpclmulqdq_v2diP7rtx_defS0_S0_S0_ @9166
    _Z19gen_vpclmulqdq_v4diP7rtx_defS0_S0_S0_ @9167
    _Z19gen_vpclmulqdq_v8diP7rtx_defS0_S0_S0_ @9168
    _Z19gen_vpdpbusds_v16siP7rtx_defS0_S0_S0_ @9169
    _Z19gen_vpdpwssds_v16siP7rtx_defS0_S0_S0_ @9170
    _Z19gen_xop_pcmov_v16qiP7rtx_defS0_S0_S0_ @9171
    _Z19gen_xop_vmfrczv2df2P7rtx_defS0_ @9172
    _Z19gen_xop_vmfrczv4sf2P7rtx_defS0_ @9173
    _Z19gen_xop_vrotlv16qi3P7rtx_defS0_S0_ @9174
    _Z19general_reg_operandP7rtx_def12machine_mode @9175
    _Z19generate_range_testP15basic_block_defP9tree_nodeS2_S2_PS2_S3_ @9176
    _Z19get_attr_fp_int_srcP8rtx_insn @9177
    _Z19get_attr_hsw_domainP8rtx_insn @9178
    _Z19get_attr_length_vexP8rtx_insn @9179
    _Z19get_attr_maskz_halfP8rtx_insn @9180
    _Z19get_attr_merge_maskP8rtx_insn @9181
    _Z19get_attr_min_lengthP8rtx_insn @9182
    _Z19get_attr_prefix_repP8rtx_insn @9183
    _Z19get_attr_prefix_rexP8rtx_insn @9184
    _Z19get_binfo_at_offsetP9tree_node8poly_intILj1ExES0_ @9185
    _Z19get_coverage_countsjjjj @9186
    _Z19get_deref_alias_setP9tree_node @9187
    _Z19get_exception_labelc @9188
    _Z19get_first_label_numv @9189
    _Z19get_frame_alias_setv @9190
    _Z19get_individual_bitsP16generic_wide_intI22fixed_wide_int_storageILi576EEES2_j @9191
    _Z19get_inner_referenceP9tree_nodeP12poly_int_podILj1ExES3_PS0_P12machine_modePiS7_S7_ @9192
    _Z19get_last_funcdef_nov @9193
    _Z19get_loop_exit_edgesPK4loopPP15basic_block_def @9194
    _Z19get_next_funcdef_nov @9195
    _Z19get_reg_known_valuej @9196
    _Z19get_spill_slot_declb @9197
    _Z19get_unnamed_sectionjPFvPKcES0_ @9198
    _Z19ggc_mark_stringpoolv @9199
    _Z19ggc_record_overheadyyPv @9200
    _Z19ggc_splay_dont_freePvS_ @9201
    _Z19gimple_build_assignP9tree_node9tree_codeS0_ @9202
    _Z19gimple_build_assignP9tree_node9tree_codeS0_S0_ @9203
    _Z19gimple_build_assignP9tree_node9tree_codeS0_S0_S0_ @9204
    _Z19gimple_build_assignP9tree_nodeS0_ @9205
    _Z19gimple_build_returnP9tree_node @9206
    _Z19gimple_build_switchP9tree_nodeS0_RK3vecIS0_7va_heap6vl_ptrE @9207
    _Z19gimple_build_vectorPP6gimplejP19tree_vector_builder @9208
    _Z19gimple_could_trap_pPK6gimple @9209
    _Z19gimple_find_sub_bbsP6gimpleP20gimple_stmt_iterator @9210
    _Z19gimple_predict_edgeP8edge_def12br_predictori @9211
    _Z19gimple_range_globalP9tree_node @9212
    _Z19gimple_seq_add_stmtPP6gimpleS0_ @9213
    _Z19gimplify_parametersPP6gimple @9214
    _Z19gimplify_type_sizesP9tree_nodePP6gimple @9215
    _Z19gnat_invariant_exprP9tree_node @9216
    _Z19gsi_split_seq_after20gimple_stmt_iterator @9217
    _Z19gt_ggc_mx_cpp_macroPv @9218
    _Z19gt_ggc_mx_cpp_tokenPv @9219
    _Z19gt_ggc_mx_ctf_dmdefPv @9220
    _Z19gt_ggc_mx_ctf_dtdefPv @9221
    _Z19gt_ggc_mx_ctf_dvdefPv @9222
    _Z19gt_ggc_mx_eh_statusPv @9223
    _Z19gt_ggc_mx_elab_infoPv @9224
    _Z19gt_ggc_mx_gimple_dfPv @9225
    _Z19gt_ggc_mx_lang_declPv @9226
    _Z19gt_ggc_mx_lang_typePv @9227
    _Z19gt_ggc_mx_line_mapsPv @9228
    _Z19gt_ggc_mx_loop_exitPv @9229
    _Z19gt_ggc_mx_mem_attrsPv @9230
    _Z19gt_ggc_mx_reg_attrsPv @9231
    _Z19gt_ggc_mx_rtvec_defPv @9232
    _Z19gt_ggc_mx_stub_listPv @9233
    _Z19gt_ggc_mx_temp_slotPv @9234
    _Z19gt_ggc_mx_type_hashPv @9235
    _Z19gt_pch_note_reorderPvS_PFvS_S_PFvS_S_S_ES_E @9236
    _Z19gt_pch_nx_cpp_macroPv @9237
    _Z19gt_pch_nx_cpp_tokenPv @9238
    _Z19gt_pch_nx_ctf_dmdefPv @9239
    _Z19gt_pch_nx_ctf_dtdefPv @9240
    _Z19gt_pch_nx_ctf_dvdefPv @9241
    _Z19gt_pch_nx_eh_statusPv @9242
    _Z19gt_pch_nx_elab_infoPv @9243
    _Z19gt_pch_nx_gimple_dfPv @9244
    _Z19gt_pch_nx_lang_declPv @9245
    _Z19gt_pch_nx_lang_typePv @9246
    _Z19gt_pch_nx_line_mapsPv @9247
    _Z19gt_pch_nx_loop_exitPv @9248
    _Z19gt_pch_nx_mem_attrsPv @9249
    _Z19gt_pch_nx_reg_attrsPv @9250
    _Z19gt_pch_nx_rtvec_defPv @9251
    _Z19gt_pch_nx_stub_listPv @9252
    _Z19gt_pch_nx_temp_slotPv @9253
    _Z19gt_pch_nx_type_hashPv @9254
    _Z19gt_pch_p_9cpp_macroPvS_PFvS_S_S_ES_ @9255
    _Z19gt_pch_p_9cpp_tokenPvS_PFvS_S_S_ES_ @9256
    _Z19gt_pch_p_9ctf_dmdefPvS_PFvS_S_S_ES_ @9257
    _Z19gt_pch_p_9ctf_dtdefPvS_PFvS_S_S_ES_ @9258
    _Z19gt_pch_p_9ctf_dvdefPvS_PFvS_S_S_ES_ @9259
    _Z19gt_pch_p_9eh_statusPvS_PFvS_S_S_ES_ @9260
    _Z19gt_pch_p_9elab_infoPvS_PFvS_S_S_ES_ @9261
    _Z19gt_pch_p_9gimple_dfPvS_PFvS_S_S_ES_ @9262
    _Z19gt_pch_p_9lang_declPvS_PFvS_S_S_ES_ @9263
    _Z19gt_pch_p_9lang_typePvS_PFvS_S_S_ES_ @9264
    _Z19gt_pch_p_9line_mapsPvS_PFvS_S_S_ES_ @9265
    _Z19gt_pch_p_9loop_exitPvS_PFvS_S_S_ES_ @9266
    _Z19gt_pch_p_9mem_attrsPvS_PFvS_S_S_ES_ @9267
    _Z19gt_pch_p_9reg_attrsPvS_PFvS_S_S_ES_ @9268
    _Z19gt_pch_p_9rtvec_defPvS_PFvS_S_S_ES_ @9269
    _Z19gt_pch_p_9stub_listPvS_PFvS_S_S_ES_ @9270
    _Z19gt_pch_p_9temp_slotPvS_PFvS_S_S_ES_ @9271
    _Z19gt_pch_p_9type_hashPvS_PFvS_S_S_ES_ @9272
    _Z19haifa_classify_insnPK7rtx_def @9273
    _Z19hard_function_valuePK9tree_nodeS1_S1_i @9274
    _Z19highest_pow2_factorPK9tree_node @9275
    _Z19hook_bool_mode_true12machine_mode @9276
    _Z19hook_bool_rtx_falseP7rtx_def @9277
    _Z19hook_bool_tree_trueP9tree_node @9278
    _Z19hook_bool_uint_truej @9279
    _Z19hook_bool_void_truev @9280
    _Z19hook_int_rtx_bool_0P7rtx_defb @9281
    _Z19hook_int_rtx_insn_0P8rtx_insn @9282
    _Z19hook_tree_void_nullv @9283
    _Z19ht_lookup_with_hashP2htPKhyj16ht_lookup_option @9284
    _Z19i386_pe_asm_lto_endv @9285
    _Z19i386_pe_record_stubPKc @9286
    _Z19in_current_region_pP15basic_block_def @9287
    _Z19infer_nonnull_rangeP6gimpleP9tree_node @9288
    _Z19init_alias_analysisv @9289
    _Z19init_empty_tree_cfgv @9290
    _Z19init_function_startP9tree_node @9291
    _Z19init_ggc_heuristicsv @9292
    _Z19init_options_structP11gcc_optionsS0_ @9293
    _Z19initial_value_entryiPP7rtx_defS1_ @9294
    _Z19insert_insn_on_edgeP7rtx_defP8edge_def @9295
    _Z19insn_current_lengthP8rtx_insn @9296
    _Z19insn_default_lengthP8rtx_insn @9297
    _Z19insn_locations_initv @9298
    _Z19internal_store_fn_p11internal_fn @9299
    _Z19ipa_dump_fn_summaryP6_iobufP11cgraph_node @9300
    _Z19ipa_edge_within_sccP11cgraph_edge @9301
    _Z19ipa_free_fn_summaryv @9302
    _Z19ipa_write_summariesv @9303
    _Z19ira_allocate_bitmapv @9304
    _Z19ira_build_conflictsv @9305
    _Z19ira_debug_conflictsb @9306
    _Z19ira_debug_move_listP4move @9307
    _Z19ira_get_dup_out_numiyRb @9308
    _Z19ira_init_costs_oncev @9309
    _Z19ira_initiate_assignv @9310
    _Z19is_gimple_call_addrP9tree_node @9311
    _Z19is_std_named_call_pPK9tree_nodePKc @9312
    _Z19is_std_named_call_pPK9tree_nodePKcPK5gcallj @9313
    _Z19is_strlen_related_pP9tree_nodeS0_ @9314
    _Z19is_tm_ending_fndeclP9tree_node @9315
    _Z19ix86_bd_do_dispatchP8rtx_insni @9316
    _Z19ix86_call_use_plt_pP7rtx_def @9317
    _Z19ix86_data_alignmentP9tree_nodejb @9318
    _Z19ix86_emit_i387_coshP7rtx_defS0_ @9319
    _Z19ix86_emit_i387_sinhP7rtx_defS0_ @9320
    _Z19ix86_emit_i387_tanhP7rtx_defS0_ @9321
    _Z19ix86_expand_builtinP9tree_nodeP7rtx_defS2_12machine_modei @9322
    _Z19ix86_expand_xorsignPP7rtx_def @9323
    _Z19ix86_find_base_termP7rtx_def @9324
    _Z19ix86_function_nakedPK9tree_node @9325
    _Z19ix86_hardreg_mov_okP7rtx_defS0_ @9326
    _Z19ix86_lea_for_add_okP8rtx_insnPP7rtx_def @9327
    _Z19ix86_macro_fusion_pv @9328
    _Z19ix86_split_mmx_packPP7rtx_def8rtx_code @9329
    _Z19ix86_using_red_zonev @9330
    _Z19ix86_veclibabi_acml11combined_fnP9tree_nodeS1_ @9331
    _Z19ix86_veclibabi_svml11combined_fnP9tree_nodeS1_ @9332
    _Z19lhd_gcc_personalityv @9333
    _Z19linemap_enter_macroP9line_mapsP12cpp_hashnodejj @9334
    _Z19locate_and_pad_parm12machine_modeP9tree_nodeiiiS1_P9args_sizeP23locate_and_pad_arg_data @9335
    _Z19long_memory_operandP7rtx_def12machine_mode @9336
    _Z19lookup_constant_defP9tree_node @9337
    _Z19lookup_constraint_1PKc @9338
    _Z19loop_optimizer_initj @9339
    _Z19loop_preheader_edgePK4loop @9340
    _Z19lower_bound_in_typeP9tree_nodeS0_ @9341
    _Z19lto_end_compressionP22lto_compression_stream @9342
    _Z19lto_output_locationP12output_blockP9bitpack_dj @9343
    _Z19lto_section_overrunP15lto_input_block @9344
    _Z19make_pass_build_cfgPN3gcc7contextE @9345
    _Z19make_pass_build_ssaPN3gcc7contextE @9346
    _Z19make_pass_call_cdcePN3gcc7contextE @9347
    _Z19make_pass_copy_propPN3gcc7contextE @9348
    _Z19make_pass_df_finishPN3gcc7contextE @9349
    _Z19make_pass_dominatorPN3gcc7contextE @9350
    _Z19make_pass_early_vrpPN3gcc7contextE @9351
    _Z19make_pass_fix_loopsPN3gcc7contextE @9352
    _Z19make_pass_fixup_cfgPN3gcc7contextE @9353
    _Z19make_pass_leaf_regsPN3gcc7contextE @9354
    _Z19make_pass_lower_ompPN3gcc7contextE @9355
    _Z19make_pass_merge_phiPN3gcc7contextE @9356
    _Z19make_pass_peephole2PN3gcc7contextE @9357
    _Z19make_pass_regrenamePN3gcc7contextE @9358
    _Z19make_pass_rtl_cpropPN3gcc7contextE @9359
    _Z19make_pass_rtl_hoistPN3gcc7contextE @9360
    _Z19make_pass_rtl_ifcvtPN3gcc7contextE @9361
    _Z19make_pass_sancov_O0PN3gcc7contextE @9362
    _Z19make_pass_sink_codePN3gcc7contextE @9363
    _Z19make_pass_sra_earlyPN3gcc7contextE @9364
    _Z19make_pass_tm_memoptPN3gcc7contextE @9365
    _Z19make_pass_tree_loopPN3gcc7contextE @9366
    _Z19make_pass_vectorizePN3gcc7contextE @9367
    _Z19make_type_from_sizeP9tree_nodeS0_b @9368
    _Z19mark_dfs_back_edgesP8function @9369
    _Z19mark_dfs_back_edgesv @9370
    _Z19max_loop_iterationsP4loopP16generic_wide_intI22fixed_wide_int_storageILi576EEE @9371
    _Z19max_stmt_executionsP4loopP16generic_wide_intI22fixed_wide_int_storageILi576EEE @9372
    _Z19may_trap_or_fault_pPK7rtx_def @9373
    _Z19maybe_clean_eh_stmtP6gimple @9374
    _Z19maybe_code_for_wrss12machine_mode @9375
    _Z19maybe_gen_movdir64b12machine_modeP7rtx_defS1_ @9376
    _Z19move_block_from_regiP7rtx_defi @9377
    _Z19no_follow_ssa_edgesP9tree_node @9378
    _Z19no_labels_between_pPK8rtx_insnS1_ @9379
    _Z19nonimm_or_0_operandP7rtx_def12machine_mode @9380
    _Z19note_pattern_storesPK7rtx_defPFvPS_S1_PvES3_ @9381
    _Z19num_changes_pendingv @9382
    _Z19num_sign_bit_copiesPK7rtx_def12machine_mode @9383
    _Z19optab_for_tree_code9tree_codePK9tree_node13optab_subtype @9384
    _Z19output_387_reg_moveP8rtx_insnPP7rtx_def @9385
    _Z19output_constant_defP9tree_nodei @9386
    _Z19output_index_stringPP20indirect_string_nodePj @9387
    _Z19output_loc_sequenceP17dw_loc_descr_nodei @9388
    _Z19pass_fini_dump_fileP8opt_pass @9389
    _Z19pass_init_dump_fileP8opt_pass @9390
    _Z19preserve_temp_slotsP7rtx_def @9391
    _Z19pretty_print_stringP14pretty_printerPKcy @9392
    _Z19prevailing_odr_typeP9tree_node @9393
    _Z19print_isl_union_mapP6_iobufP13isl_union_map @9394
    _Z19print_lambda_vectorP6_iobufPxi @9395
    _Z19propagate_for_debugP8rtx_insnS0_P7rtx_defS2_P15basic_block_def @9396
    _Z19pt_solution_empty_pPK11pt_solution @9397
    _Z19pt_solution_set_varP11pt_solutionP9tree_node @9398
    _Z19push_dummy_functionb @9399
    _Z19qimode_for_vec_perm12machine_mode @9400
    _Z19queue_and_dump_typeP9dump_infoPK9tree_node @9401
    _Z19read_cmdline_optionP11gcc_optionsS0_P17cl_decoded_optionjjPK18cl_option_handlersP18diagnostic_context @9402
    _Z19real_to_hexadecimalPcPK10real_valueyyi @9403
    _Z19real_value_truncate13format_helper10real_value @9404
    _Z19rebuild_frequenciesv @9405
    _Z19rebuild_jump_labelsP8rtx_insn @9406
    _Z19recompute_dominator13cdi_directionP15basic_block_def @9407
    _Z19record_alias_subsetii @9408
    _Z19record_builtin_typePKcP9tree_nodeb @9409
    _Z19record_epilogue_seqP8rtx_insn @9410
    _Z19record_prologue_seqP8rtx_insn @9411
    _Z19reg_alternate_classi @9412
    _Z19reg_preferred_classi @9413
    _Z19reginfo_cc_finalizev @9414
    _Z19related_vector_mode12machine_mode11scalar_mode8poly_intILj1EyE @9415
    _Z19relation_transitive9tree_codeS_ @9416
    _Z19release_defs_bitsetP11bitmap_head @9417
    _Z19release_ssa_name_fnP8functionP9tree_node @9418
    _Z19resolve_atomic_sizeP9tree_node @9419
    _Z19restore_other_notesP8rtx_insnP15basic_block_def @9420
    _Z19reversed_comparisonPK7rtx_def12machine_mode @9421
    _Z19rtx_addr_can_trap_pPK7rtx_def @9422
    _Z19save_target_globalsv @9423
    _Z19sched_extend_targetv @9424
    _Z19sched_split_block_1P15basic_block_defP7rtx_def @9425
    _Z19sd_find_dep_betweenP7rtx_defS0_b @9426
    _Z19sel_init_pipeliningv @9427
    _Z19sel_set_sched_flagsv @9428
    _Z19sese_build_liveoutsP11sese_info_t @9429
    _Z19set_block_for_groupP9tree_node @9430
    _Z19set_call_expr_flagsP9tree_nodei @9431
    _Z19set_ssa_default_defP8functionP9tree_nodeS2_ @9432
    _Z19set_unique_reg_noteP7rtx_def8reg_noteS0_ @9433
    _Z19simplify_gen_binary8rtx_code12machine_modeP7rtx_defS2_ @9434
    _Z19simplify_gen_subreg12machine_modeP7rtx_defS_8poly_intILj1EyE @9435
    _Z19smaller_form_type_pP9tree_nodeS0_ @9436
    _Z19sparseset_and_complP13sparseset_defS0_S0_ @9437
    _Z19sparseset_clear_bitP13sparseset_defj @9438
    _Z19ssa_operands_activeP8function @9439
    _Z19stabilize_referenceP9tree_node @9440
    _Z19start_record_layoutP9tree_node @9441
    _Z19store_data_bypass_pP8rtx_insnS0_ @9442
    _Z19streamer_alloc_treeP15lto_input_blockP7data_in8LTO_tags @9443
    _Z19streamer_hooks_initv @9444
    _Z19streamer_write_uhwiP12output_blocky @9445
    _Z19streamer_write_zeroP12output_block @9446
    _Z19strip_predict_hintsP8functionb @9447
    _Z19subreg_regno_offsetj12machine_mode8poly_intILj1EyES_ @9448
    _Z19suppress_warning_atj8opt_codeb @9449
    _Z19tail_merge_optimizeb @9450
    _Z19tidy_fallthru_edgesv @9451
    _Z19tls_address_patternP7rtx_def12machine_mode @9452
    _Z19tls_modbase_operandP7rtx_def12machine_mode @9453
    _Z19transform_duplicateP15basic_block_defS0_ @9454
    _Z19tree_double_value_pP9tree_node @9455
    _Z19tree_expr_nonzero_pP9tree_node @9456
    _Z19tree_node_structurePK9tree_node @9457
    _Z19tree_num_loop_insnsP4loopP11eni_weights @9458
    _Z19tree_to_poly_uint64PK9tree_node @9459
    _Z19tree_truth_valued_pP9tree_node @9460
    _Z19try_shrink_wrappingPP8edge_defP8rtx_insn @9461
    _Z19unchecked_make_edgeP15basic_block_defS0_i @9462
    _Z19update_br_prob_noteP15basic_block_def @9463
    _Z19update_global_rangeR6irangeP9tree_node @9464
    _Z19update_max_bb_countv @9465
    _Z19update_sjlj_contextv @9466
    _Z19upper_bound_in_typeP9tree_nodeS0_ @9467
    _Z19vect_get_store_costP8vec_infoP14_stmt_vec_infoi20dr_alignment_supportiPjP3vecI18stmt_info_for_cost7va_heap6vl_ptrE @9468
    _Z19vect_transform_loopP14_loop_vec_infoP6gimple @9469
    _Z19vect_transform_stmtP8vec_infoP14_stmt_vec_infoP20gimple_stmt_iteratorP9_slp_treeP13_slp_instance @9470
    _Z19vector_element_bitsPK9tree_node @9471
    _Z19vectorizable_lc_phiP14_loop_vec_infoP14_stmt_vec_infoPP6gimpleP9_slp_tree @9472
    _Z19verify_ssa_operandsP8functionP6gimple @9473
    _Z19verify_type_contextj17type_context_kindPK9tree_nodeb @9474
    _Z19vinsn_cond_branch_pP9vinsn_def @9475
    _Z19vn_reference_lookupP9tree_nodeS0_14vn_lookup_kindPP14vn_reference_sbPS0_S0_b @9476
    _Z19vrp_operand_equal_pPK9tree_nodeS1_ @9477
    _Z19walk_gimple_seq_modPP6gimplePFP9tree_nodeP20gimple_stmt_iteratorPbP14walk_stmt_infoEPFS3_PS3_PiPvES8_ @9478
    _Z19warn_deprecated_useP9tree_nodeS0_ @9479
    _Z19warn_types_mismatchP9tree_nodeS0_jj @9480
    _Z19widen_memory_accessP7rtx_def12machine_mode8poly_intILj1ExE @9481
    _Z19x86_64_sext_operandP7rtx_def12machine_mode @9482
    _Z19x86_64_zext_operandP7rtx_def12machine_mode @9483
    _Z19x86_field_alignmentP9tree_nodei @9484
    _Z20C_handle_option_autoP11gcc_optionsS0_yPKcxjijPK18cl_option_handlersP18diagnostic_context @9485
    _Z20D_handle_option_autoP11gcc_optionsS0_yPKcxjijPK18cl_option_handlersP18diagnostic_context @9486
    _Z20GOT32_symbol_operandP7rtx_def12machine_mode @9487
    _Z20Gigi_Equivalent_Typei @9488
    _Z20add_builtin_functionPKcP9tree_nodei14built_in_classS0_S2_ @9489
    _Z20add_debug_prefix_mapPKc @9490
    _Z20add_macro_prefix_mapPKc @9491
    _Z20add_reg_br_prob_noteP8rtx_insn19profile_probability @9492
    _Z20add_type_for_runtimeP9tree_node @9493
    _Z20advance_deps_contextP9deps_descP8rtx_insn @9494
    _Z20aff_combination_multP8aff_treeS0_S0_ @9495
    _Z20alloc_aux_for_blocksi @9496
    _Z20asan_expand_mark_ifnP20gimple_stmt_iterator @9497
    _Z20asan_mem_ref_get_endP9tree_nodeS0_ @9498
    _Z20asan_mem_ref_get_endPK12asan_mem_refP9tree_node @9499
    _Z20ashldi_input_operandP7rtx_def12machine_mode @9500
    _Z20assign_filter_valuesv @9501
    _Z20assign_stack_local_112machine_mode8poly_intILj1ExEii @9502
    _Z20ast_build_before_forP13isl_ast_buildPv @9503
    _Z20attribute_list_equalPK9tree_nodeS1_ @9504
    _Z20avx2_pblendw_operandP7rtx_def12machine_mode @9505
    _Z20bb_optimization_typePK15basic_block_def @9506
    _Z20bit_value_mult_const6signopiP16generic_wide_intI22fixed_wide_int_storageILi576EEES4_RKS3_S6_S3_ @9507
    _Z20bitmap_first_set_bitPK11bitmap_head @9508
    _Z20bitmap_first_set_bitPK17simple_bitmap_def @9509
    _Z20bitmap_ior_and_complP11bitmap_headPKS_S2_S2_ @9510
    _Z20bitmap_ior_and_complP17simple_bitmap_defPKS_S2_S2_ @9511
    _Z20btf_init_postprocessv @9512
    _Z20build_call_array_locjP9tree_nodeS0_iPKS0_ @9513
    _Z20build_constructor_vaP9tree_nodeiz @9514
    _Z20build_duplicate_typeP9tree_node @9515
    _Z20build_message_stringPKcz @9516
    _Z20build_qualified_typeP9tree_nodei @9517
    _Z20build_real_from_wideP9tree_nodeRK16generic_wide_intI20wide_int_ref_storageILb0ELb1EEE6signop @9518
    _Z20build_ref_for_offsetjP9tree_node8poly_intILj1ExEbS0_P20gimple_stmt_iteratorb @9519
    _Z20build_reference_typeP9tree_node @9520
    _Z20build_string_literaljPKcP9tree_nodey @9521
    _Z20can_duplicate_loop_pPK4loop @9522
    _Z20can_vec_perm_const_p12machine_modeRK16vec_perm_indicesb @9523
    _Z20change_vinsn_in_exprP5_exprP9vinsn_def @9524
    _Z20check_qualified_typePK9tree_nodeS1_i @9525
    _Z20check_reduction_path20dump_user_location_tP4loopP4gphiP9tree_node9tree_code @9526
    _Z20choose_hard_reg_modejjPK23predefined_function_abi @9527
    _Z20cl_optimization_hashPK15cl_optimization @9528
    _Z20cl_optimization_saveP15cl_optimizationP11gcc_optionsS2_ @9529
    _Z20clear_aux_for_blocksv @9530
    _Z20common_handle_optionP11gcc_optionsS0_PK17cl_decoded_optionjijPK18cl_option_handlersP18diagnostic_contextPFvvE @9531
    _Z20commutative_operatorP7rtx_def12machine_mode @9532
    _Z20comp_type_attributesPK9tree_nodeS1_ @9533
    _Z20compare_values_warnvP9tree_nodeS0_Pb @9534
    _Z20confirm_change_groupv @9535
    _Z20const_0_to_1_operandP7rtx_def12machine_mode @9536
    _Z20const_0_to_3_operandP7rtx_def12machine_mode @9537
    _Z20const_0_to_4_operandP7rtx_def12machine_mode @9538
    _Z20const_0_to_5_operandP7rtx_def12machine_mode @9539
    _Z20const_0_to_7_operandP7rtx_def12machine_mode @9540
    _Z20const_2_to_3_operandP7rtx_def12machine_mode @9541
    _Z20const_4_to_5_operandP7rtx_def12machine_mode @9542
    _Z20const_4_to_7_operandP7rtx_def12machine_mode @9543
    _Z20const_6_to_7_operandP7rtx_def12machine_mode @9544
    _Z20const_8_to_9_operandP7rtx_def12machine_mode @9545
    _Z20const_double_operandP7rtx_def12machine_mode @9546
    _Z20const_vec_series_p_1PK7rtx_defPPS_S3_ @9547
    _Z20const_vector_int_eltPK7rtx_defj @9548
    _Z20copy_delay_slot_insnP8rtx_insn @9549
    _Z20cpp_clear_file_cacheP10cpp_reader @9550
    _Z20cpp_define_formattedP10cpp_readerPKcz @9551
    _Z20cpp_interpret_stringP10cpp_readerPK10cpp_stringyPS1_9cpp_ttype @9552
    _Z20cpp_macro_definitionP10cpp_readerP12cpp_hashnode @9553
    _Z20cpp_macro_definitionP10cpp_readerP12cpp_hashnodePK9cpp_macro @9554
    _Z20cpp_userdef_string_p9cpp_ttype @9555
    _Z20create_extra_subtypeP9tree_nodeS0_S0_ @9556
    _Z20ctf_add_function_argP13ctf_containerP10die_structPKcy @9557
    _Z20ctf_get_die_loc_fileP10die_struct @9558
    _Z20ctf_get_die_loc_lineP10die_struct @9559
    _Z20ctf_lookup_tree_typeP13ctf_containerP9tree_node @9560
    _Z20debug_active_pluginsv @9561
    _Z20debug_data_referenceP14data_reference @9562
    _Z20debug_dominance_info13cdi_direction @9563
    _Z20debug_dominance_tree13cdi_directionP15basic_block_def @9564
    _Z20debug_immediate_usesv @9565
    _Z20debug_isl_constraintP14isl_constraint @9566
    _Z20debug_mem_addr_valueP7rtx_def @9567
    _Z20debug_optab_libfuncsv @9568
    _Z20debug_rdg_partitionsRK3vecIP9partition7va_heap6vl_ptrE @9569
    _Z20debug_ready_dispatchv @9570
    _Z20debug_tree_ssa_statsv @9571
    _Z20debuginfo_early_initv @9572
    _Z20debuginfo_early_stopv @9573
    _Z20decimal_do_fix_truncP10real_valuePKS_ @9574
    _Z20decimal_real_convertP10real_valuePK11real_formatPKS_ @9575
    _Z20decl_comdat_group_idPK9tree_node @9576
    _Z20default_address_costP7rtx_def12machine_modehb @9577
    _Z20default_function_arg17cumulative_args_tRK17function_arg_info @9578
    _Z20default_static_chainPK9tree_nodeb @9579
    _Z20default_tree_printerP14pretty_printerP9text_infoPKcibbbPbPS4_ @9580
    _Z20delete_related_insnsP7rtx_def @9581
    _Z20destroy_output_blockP12output_block @9582
    _Z20determine_url_format21diagnostic_url_rule_t @9583
    _Z20df_chain_add_problemj @9584
    _Z20df_print_word_regsetP6_iobufPK11bitmap_head @9585
    _Z20df_worklist_dataflowP8dataflowP11bitmap_headPii @9586
    _Z20dfa_clean_insn_cachev @9587
    _Z20diagnostic_urls_initP18diagnostic_contexti @9588
    _Z20direct_optab_handler9optab_tag12machine_mode17optimization_type @9589
    _Z20directly_supported_p11code_helperP9tree_node13optab_subtype @9590
    _Z20discard_useless_locsPP10cselib_valPv @9591
    _Z20doloop_condition_getP8rtx_insn @9592
    _Z20dom_info_available_p13cdi_direction @9593
    _Z20dom_info_available_pP8function13cdi_direction @9594
    _Z20dr_analyze_innermostP23innermost_loop_behaviorP9tree_nodeP4loopPK6gimple @9595
    _Z20dump_affine_functionP6_iobuf3vecIP9tree_node7va_heap6vl_ptrE @9596
    _Z20dump_function_headerP6_iobufP9tree_node9dump_flag @9597
    _Z20dump_gimple_expr_locRK15dump_metadata_tRK20dump_user_location_t9dump_flagP6gimplei @9598
    _Z20dump_gimple_stmt_locRK15dump_metadata_tRK20dump_user_location_t9dump_flagP6gimplei @9599
    _Z20dump_region_dot_filePKci @9600
    _Z20dump_tree_statisticsv @9601
    _Z20duplicate_eh_regionsP8functionP11eh_region_diPFP9tree_nodeS4_PvES5_ @9602
    _Z20duplicate_insn_chainP8rtx_insnS0_P4loopP12copy_bb_data @9603
    _Z20dw2_asm_output_deltaiPKcS0_S0_z @9604
    _Z20dw2_assemble_integeriP7rtx_def @9605
    _Z20dwarf2out_do_cfi_asmv @9606
    _Z20emit_block_cmp_hintsP7rtx_defS0_S0_P9tree_nodeS0_bPFS0_PvS3_x15fixed_size_modeES3_ @9607
    _Z20emit_call_insn_afterP7rtx_defP8rtx_insn @9608
    _Z20emit_conditional_addP7rtx_def8rtx_codeS0_S0_12machine_modeS0_S0_S2_i @9609
    _Z20emit_jump_insn_afterP7rtx_defP8rtx_insn @9610
    _Z20emit_jump_table_dataP7rtx_def @9611
    _Z20enable_rtl_dump_filev @9612
    _Z20expand_SHUFFLEVECTOR11internal_fnP5gcall @9613
    _Z20expand_fixed_convertP7rtx_defS0_ii @9614
    _Z20expand_internal_call11internal_fnP5gcall @9615
    _Z20expand_internal_callP5gcall @9616
    _Z20expand_mult_highpart12machine_modeP7rtx_defS1_S1_b @9617
    _Z20expand_widening_mult12machine_modeP7rtx_defS1_S1_i9optab_tag @9618
    _Z20expensive_function_pi @9619
    _Z20extract_asm_operandsP7rtx_def @9620
    _Z20final_start_functionP8rtx_insnP6_iobufi @9621
    _Z20find_in_history_vect3vecI18expr_history_def_17va_heap6vl_ptrEP7rtx_defP9vinsn_defb @9622
    _Z20find_modifiable_memsP8rtx_insnS0_ @9623
    _Z20finish_eh_generationv @9624
    _Z20finish_record_layoutP20record_layout_info_si @9625
    _Z20fixup_abnormal_edgesv @9626
    _Z20flow_find_cross_jumpP15basic_block_defS0_PP8rtx_insnS3_P17replace_direction @9627
    _Z20flow_loop_nodes_findP15basic_block_defP4loop @9628
    _Z20fndecl_dealloc_argnoP9tree_node @9629
    _Z20fold_single_bit_testj9tree_codeP9tree_nodeS1_S1_ @9630
    _Z20follow_all_ssa_edgesP9tree_node @9631
    _Z20force_gimple_operandP9tree_nodePP6gimplebS0_ @9632
    _Z20free_tree_niter_descRKP8edge_defRKP15tree_niter_descPv @9633
    _Z20function_invariant_pPK7rtx_def @9634
    _Z20gen_atomic_storedi_1P7rtx_defS0_S0_ @9635
    _Z20gen_atomic_storehi_1P7rtx_defS0_S0_ @9636
    _Z20gen_atomic_storeqi_1P7rtx_defS0_S0_ @9637
    _Z20gen_atomic_storesi_1P7rtx_defS0_S0_ @9638
    _Z20gen_avx2_andnotv4di3P7rtx_defS0_S0_ @9639
    _Z20gen_avx2_andnotv8si3P7rtx_defS0_S0_ @9640
    _Z20gen_avx2_palignrv2tiP7rtx_defS0_S0_S0_ @9641
    _Z20gen_avx2_pblenddv4siP7rtx_defS0_S0_S0_ @9642
    _Z20gen_avx2_pblenddv8siP7rtx_defS0_S0_S0_ @9643
    _Z20gen_avx2_permvarv4dfP7rtx_defS0_S0_ @9644
    _Z20gen_avx2_permvarv4diP7rtx_defS0_S0_ @9645
    _Z20gen_avx2_permvarv8sfP7rtx_defS0_S0_ @9646
    _Z20gen_avx2_permvarv8siP7rtx_defS0_S0_ @9647
    _Z20gen_avx2_phadddv8si3P7rtx_defS0_S0_ @9648
    _Z20gen_avx2_phsubdv8si3P7rtx_defS0_S0_ @9649
    _Z20gen_avx2_psignv16hi3P7rtx_defS0_S0_ @9650
    _Z20gen_avx2_psignv32qi3P7rtx_defS0_S0_ @9651
    _Z20gen_avx2_ssaddv16hi3P7rtx_defS0_S0_ @9652
    _Z20gen_avx2_ssaddv32qi3P7rtx_defS0_S0_ @9653
    _Z20gen_avx2_sssubv16hi3P7rtx_defS0_S0_ @9654
    _Z20gen_avx2_sssubv32qi3P7rtx_defS0_S0_ @9655
    _Z20gen_avx2_usaddv16hi3P7rtx_defS0_S0_ @9656
    _Z20gen_avx2_usaddv32qi3P7rtx_defS0_S0_ @9657
    _Z20gen_avx2_ussubv16hi3P7rtx_defS0_S0_ @9658
    _Z20gen_avx2_ussubv32qi3P7rtx_defS0_S0_ @9659
    _Z20gen_avx2_vec_dupv4dfP7rtx_defS0_ @9660
    _Z20gen_avx2_vec_dupv4sfP7rtx_defS0_ @9661
    _Z20gen_avx2_vec_dupv8sfP7rtx_defS0_ @9662
    _Z20gen_avx512f_cmpv8df3P7rtx_defS0_S0_S0_ @9663
    _Z20gen_avx512f_cmpv8di3P7rtx_defS0_S0_S0_ @9664
    _Z20gen_avx512f_divv8df3P7rtx_defS0_S0_ @9665
    _Z20gen_avx512f_eqv16si3P7rtx_defS0_S0_ @9666
    _Z20gen_avx512f_gtv16si3P7rtx_defS0_S0_ @9667
    _Z20gen_avx512f_movntdqaP7rtx_defS0_ @9668
    _Z20gen_avx512f_pd512_pdP7rtx_defS0_ @9669
    _Z20gen_avx512f_permv8dfP7rtx_defS0_S0_ @9670
    _Z20gen_avx512f_permv8diP7rtx_defS0_S0_ @9671
    _Z20gen_avx512f_ps512_psP7rtx_defS0_ @9672
    _Z20gen_avx512f_pshufd_1P7rtx_defS0_S0_S0_S0_S0_S0_S0_S0_S0_S0_S0_S0_S0_S0_S0_S0_S0_ @9673
    _Z20gen_avx512f_rolv16siP7rtx_defS0_S0_ @9674
    _Z20gen_avx512f_rolvv8diP7rtx_defS0_S0_ @9675
    _Z20gen_avx512f_rorv16siP7rtx_defS0_S0_ @9676
    _Z20gen_avx512f_rorvv8diP7rtx_defS0_S0_ @9677
    _Z20gen_avx512f_si512_siP7rtx_defS0_ @9678
    _Z20gen_avx512fp16_movshP7rtx_defS0_S0_ @9679
    _Z20gen_avx512vl_eqv2di3P7rtx_defS0_S0_ @9680
    _Z20gen_avx512vl_eqv4di3P7rtx_defS0_S0_ @9681
    _Z20gen_avx512vl_eqv4si3P7rtx_defS0_S0_ @9682
    _Z20gen_avx512vl_eqv8hi3P7rtx_defS0_S0_ @9683
    _Z20gen_avx512vl_eqv8si3P7rtx_defS0_S0_ @9684
    _Z20gen_avx512vl_gtv2di3P7rtx_defS0_S0_ @9685
    _Z20gen_avx512vl_gtv4di3P7rtx_defS0_S0_ @9686
    _Z20gen_avx512vl_gtv4si3P7rtx_defS0_S0_ @9687
    _Z20gen_avx512vl_gtv8hi3P7rtx_defS0_S0_ @9688
    _Z20gen_avx512vl_gtv8si3P7rtx_defS0_S0_ @9689
    _Z20gen_avx512vl_rolv2diP7rtx_defS0_S0_ @9690
    _Z20gen_avx512vl_rolv4diP7rtx_defS0_S0_ @9691
    _Z20gen_avx512vl_rolv4siP7rtx_defS0_S0_ @9692
    _Z20gen_avx512vl_rolv8siP7rtx_defS0_S0_ @9693
    _Z20gen_avx512vl_rorv2diP7rtx_defS0_S0_ @9694
    _Z20gen_avx512vl_rorv4diP7rtx_defS0_S0_ @9695
    _Z20gen_avx512vl_rorv4siP7rtx_defS0_S0_ @9696
    _Z20gen_avx512vl_rorv8siP7rtx_defS0_S0_ @9697
    _Z20gen_avx_maskcmpv4df3P7rtx_defS0_S0_S0_ @9698
    _Z20gen_avx_maskcmpv8sf3P7rtx_defS0_S0_S0_ @9699
    _Z20gen_bsr_rex64_1_zextP7rtx_defS0_ @9700
    _Z20gen_const_vec_series12machine_modeP7rtx_defS1_ @9701
    _Z20gen_divmodsi4_zext_1P7rtx_defS0_S0_S0_ @9702
    _Z20gen_divmodsi4_zext_2P7rtx_defS0_S0_S0_ @9703
    _Z20gen_expandv16hi_maskP7rtx_defS0_S0_S0_ @9704
    _Z20gen_expandv16qi_maskP7rtx_defS0_S0_S0_ @9705
    _Z20gen_expandv16sf_maskP7rtx_defS0_S0_S0_ @9706
    _Z20gen_expandv16si_maskP7rtx_defS0_S0_S0_ @9707
    _Z20gen_expandv32hi_maskP7rtx_defS0_S0_S0_ @9708
    _Z20gen_expandv32qi_maskP7rtx_defS0_S0_S0_ @9709
    _Z20gen_expandv64qi_maskP7rtx_defS0_S0_S0_ @9710
    _Z20gen_expandv8hi_maskzP7rtx_defS0_S0_S0_ @9711
    _Z20gen_fix_truncdi_i387P7rtx_defS0_S0_S0_ @9712
    _Z20gen_fix_trunchi_i387P7rtx_defS0_S0_S0_ @9713
    _Z20gen_fix_truncsi_i387P7rtx_defS0_S0_S0_ @9714
    _Z20gen_floatv16hiv16hf2P7rtx_defS0_ @9715
    _Z20gen_floatv16siv16hf2P7rtx_defS0_ @9716
    _Z20gen_floatv16siv16sf2P7rtx_defS0_ @9717
    _Z20gen_floatv32hiv32hf2P7rtx_defS0_ @9718
    _Z20gen_fma4i_fmadd_v2dfP7rtx_defS0_S0_S0_ @9719
    _Z20gen_fma4i_fmadd_v4dfP7rtx_defS0_S0_S0_ @9720
    _Z20gen_fma4i_fmadd_v4sfP7rtx_defS0_S0_S0_ @9721
    _Z20gen_fma4i_fmadd_v8dfP7rtx_defS0_S0_S0_ @9722
    _Z20gen_fma4i_fmadd_v8sfP7rtx_defS0_S0_S0_ @9723
    _Z20gen_fma4i_fmsub_v2dfP7rtx_defS0_S0_S0_ @9724
    _Z20gen_fma4i_fmsub_v4dfP7rtx_defS0_S0_S0_ @9725
    _Z20gen_fma4i_fmsub_v4sfP7rtx_defS0_S0_S0_ @9726
    _Z20gen_fma4i_fmsub_v8dfP7rtx_defS0_S0_S0_ @9727
    _Z20gen_fma4i_fmsub_v8sfP7rtx_defS0_S0_S0_ @9728
    _Z20gen_fma_fcmaddc_v8hfP7rtx_defS0_S0_S0_ @9729
    _Z20gen_fma_fmaddc_v16hfP7rtx_defS0_S0_S0_ @9730
    _Z20gen_fma_fmaddc_v32hfP7rtx_defS0_S0_S0_ @9731
    _Z20gen_frndintxf2_floorP7rtx_defS0_ @9732
    _Z20gen_frndintxf2_truncP7rtx_defS0_ @9733
    _Z20gen_hard_reg_clobber12machine_modej @9734
    _Z20gen_int_shift_amount12machine_mode8poly_intILj1ExE @9735
    _Z20gen_interrupt_returnv @9736
    _Z20gen_maskloadv2dfv2diP7rtx_defS0_S0_ @9737
    _Z20gen_maskloadv2div2diP7rtx_defS0_S0_ @9738
    _Z20gen_maskloadv4dfv4diP7rtx_defS0_S0_ @9739
    _Z20gen_maskloadv4div4diP7rtx_defS0_S0_ @9740
    _Z20gen_maskloadv4sfv4siP7rtx_defS0_S0_ @9741
    _Z20gen_maskloadv4siv4siP7rtx_defS0_S0_ @9742
    _Z20gen_maskloadv8sfv8siP7rtx_defS0_S0_ @9743
    _Z20gen_maskloadv8siv8siP7rtx_defS0_S0_ @9744
    _Z20gen_maskstorev16hfhiP7rtx_defS0_S0_ @9745
    _Z20gen_maskstorev16hihiP7rtx_defS0_S0_ @9746
    _Z20gen_maskstorev16qihiP7rtx_defS0_S0_ @9747
    _Z20gen_maskstorev16sfhiP7rtx_defS0_S0_ @9748
    _Z20gen_maskstorev16sihiP7rtx_defS0_S0_ @9749
    _Z20gen_maskstorev32hfsiP7rtx_defS0_S0_ @9750
    _Z20gen_maskstorev32hisiP7rtx_defS0_S0_ @9751
    _Z20gen_maskstorev32qisiP7rtx_defS0_S0_ @9752
    _Z20gen_maskstorev64qidiP7rtx_defS0_S0_ @9753
    _Z20gen_mem_thread_fenceP7rtx_def @9754
    _Z20gen_mmx_haddsubv2sf3P7rtx_defS0_S0_ @9755
    _Z20gen_mmx_pmulhrwv4hi3P7rtx_defS0_S0_ @9756
    _Z20gen_movmisalignv16hfP7rtx_defS0_ @9757
    _Z20gen_movmisalignv16hiP7rtx_defS0_ @9758
    _Z20gen_movmisalignv16qiP7rtx_defS0_ @9759
    _Z20gen_movmisalignv16sfP7rtx_defS0_ @9760
    _Z20gen_movmisalignv16siP7rtx_defS0_ @9761
    _Z20gen_movmisalignv32hfP7rtx_defS0_ @9762
    _Z20gen_movmisalignv32hiP7rtx_defS0_ @9763
    _Z20gen_movmisalignv32qiP7rtx_defS0_ @9764
    _Z20gen_movmisalignv64qiP7rtx_defS0_ @9765
    _Z20gen_movv1ti_internalP7rtx_defS0_ @9766
    _Z20gen_movv2df_internalP7rtx_defS0_ @9767
    _Z20gen_movv2di_internalP7rtx_defS0_ @9768
    _Z20gen_movv2ti_internalP7rtx_defS0_ @9769
    _Z20gen_movv4df_internalP7rtx_defS0_ @9770
    _Z20gen_movv4di_internalP7rtx_defS0_ @9771
    _Z20gen_movv4sf_internalP7rtx_defS0_ @9772
    _Z20gen_movv4si_internalP7rtx_defS0_ @9773
    _Z20gen_movv4ti_internalP7rtx_defS0_ @9774
    _Z20gen_movv8df_internalP7rtx_defS0_ @9775
    _Z20gen_movv8di_internalP7rtx_defS0_ @9776
    _Z20gen_movv8hf_internalP7rtx_defS0_ @9777
    _Z20gen_movv8hi_internalP7rtx_defS0_ @9778
    _Z20gen_movv8sf_internalP7rtx_defS0_ @9779
    _Z20gen_movv8si_internalP7rtx_defS0_ @9780
    _Z20gen_probe_stack_1_diP7rtx_defS0_ @9781
    _Z20gen_probe_stack_1_siP7rtx_defS0_ @9782
    _Z20gen_reducepv2df_maskP7rtx_defS0_S0_S0_S0_ @9783
    _Z20gen_reducepv4df_maskP7rtx_defS0_S0_S0_S0_ @9784
    _Z20gen_reducepv4sf_maskP7rtx_defS0_S0_S0_S0_ @9785
    _Z20gen_reducepv8df_maskP7rtx_defS0_S0_S0_S0_ @9786
    _Z20gen_reducepv8hf_maskP7rtx_defS0_S0_S0_S0_ @9787
    _Z20gen_reducepv8sf_maskP7rtx_defS0_S0_S0_S0_ @9788
    _Z20gen_reducesv2df_maskP7rtx_defS0_S0_S0_S0_S0_ @9789
    _Z20gen_reducesv4sf_maskP7rtx_defS0_S0_S0_S0_S0_ @9790
    _Z20gen_reducesv8hf_maskP7rtx_defS0_S0_S0_S0_S0_ @9791
    _Z20gen_reload_noff_loadP7rtx_defS0_S0_ @9792
    _Z20gen_roundv16sf2_sfixP7rtx_defS0_ @9793
    _Z20gen_rsqrt14v2df_maskP7rtx_defS0_S0_S0_ @9794
    _Z20gen_rsqrt14v4df_maskP7rtx_defS0_S0_S0_ @9795
    _Z20gen_rsqrt14v4sf_maskP7rtx_defS0_S0_S0_ @9796
    _Z20gen_rsqrt14v8df_maskP7rtx_defS0_S0_S0_ @9797
    _Z20gen_rsqrt14v8sf_maskP7rtx_defS0_S0_S0_ @9798
    _Z20gen_rtx_CONST_VECTOR12machine_modeP9rtvec_def @9799
    _Z20gen_rtx_VAR_LOCATION12machine_modeP9tree_nodeP7rtx_def15var_init_status @9800
    _Z20gen_set_got_labelledP7rtx_defS0_ @9801
    _Z20gen_sibcall_epiloguev @9802
    _Z20gen_smaxv16sf3_roundP7rtx_defS0_S0_S0_ @9803
    _Z20gen_smaxv32hf3_roundP7rtx_defS0_S0_S0_ @9804
    _Z20gen_sminv16sf3_roundP7rtx_defS0_S0_S0_ @9805
    _Z20gen_sminv32hf3_roundP7rtx_defS0_S0_S0_ @9806
    _Z20gen_smuldi3_highpartP7rtx_defS0_S0_ @9807
    _Z20gen_smulsi3_highpartP7rtx_defS0_S0_ @9808
    _Z20gen_sse2_andnotv2df3P7rtx_defS0_S0_ @9809
    _Z20gen_sse2_andnotv2di3P7rtx_defS0_S0_ @9810
    _Z20gen_sse2_andnotv4si3P7rtx_defS0_S0_ @9811
    _Z20gen_sse2_andnotv8hi3P7rtx_defS0_S0_ @9812
    _Z20gen_sse2_cvtsd2siq_2P7rtx_defS0_ @9813
    _Z20gen_sse2_loadhpd_expP7rtx_defS0_S0_ @9814
    _Z20gen_sse2_loadlpd_expP7rtx_defS0_S0_ @9815
    _Z20gen_sse2_shufpd_maskP7rtx_defS0_S0_S0_S0_S0_ @9816
    _Z20gen_sse2_shufpd_v2dfP7rtx_defS0_S0_S0_S0_ @9817
    _Z20gen_sse2_shufpd_v2diP7rtx_defS0_S0_S0_S0_ @9818
    _Z20gen_sse2_ssaddv16qi3P7rtx_defS0_S0_ @9819
    _Z20gen_sse2_sssubv16qi3P7rtx_defS0_S0_ @9820
    _Z20gen_sse2_ucomi_roundP7rtx_defS0_S0_ @9821
    _Z20gen_sse2_usaddv16qi3P7rtx_defS0_S0_ @9822
    _Z20gen_sse2_ussubv16qi3P7rtx_defS0_S0_ @9823
    _Z20gen_sse2_vmsmaxv2df3P7rtx_defS0_S0_ @9824
    _Z20gen_sse2_vmsminv2df3P7rtx_defS0_S0_ @9825
    _Z20gen_sse2_vmsqrtv2df2P7rtx_defS0_S0_ @9826
    _Z20gen_sse4_1_ptestv2dfP7rtx_defS0_ @9827
    _Z20gen_sse4_1_ptestv2diP7rtx_defS0_ @9828
    _Z20gen_sse4_1_ptestv4sfP7rtx_defS0_ @9829
    _Z20gen_sse4_1_ptestv4siP7rtx_defS0_ @9830
    _Z20gen_sse4_1_ptestv8hiP7rtx_defS0_ @9831
    _Z20gen_sse4_2_pcmpestriP7rtx_defS0_S0_S0_S0_S0_ @9832
    _Z20gen_sse4_2_pcmpestrmP7rtx_defS0_S0_S0_S0_S0_ @9833
    _Z20gen_sse4_2_pcmpistriP7rtx_defS0_S0_S0_ @9834
    _Z20gen_sse4_2_pcmpistrmP7rtx_defS0_S0_S0_ @9835
    _Z20gen_sse_maskcmpv4sf3P7rtx_defS0_S0_S0_ @9836
    _Z20gen_sse_vmrsqrtv4sf2P7rtx_defS0_S0_ @9837
    _Z20gen_ssse3_psignv2si3P7rtx_defS0_S0_ @9838
    _Z20gen_ssse3_psignv4hi3P7rtx_defS0_S0_ @9839
    _Z20gen_ssse3_psignv4si3P7rtx_defS0_S0_ @9840
    _Z20gen_ssse3_psignv8hi3P7rtx_defS0_S0_ @9841
    _Z20gen_ssse3_psignv8qi3P7rtx_defS0_S0_ @9842
    _Z20gen_subdi3_carry_cccP7rtx_defS0_S0_ @9843
    _Z20gen_subsi3_carry_cccP7rtx_defS0_S0_ @9844
    _Z20gen_truncv16hiv16qi2P7rtx_defS0_ @9845
    _Z20gen_truncv16sfv16hf2P7rtx_defS0_ @9846
    _Z20gen_truncv16siv16hi2P7rtx_defS0_ @9847
    _Z20gen_truncv16siv16qi2P7rtx_defS0_ @9848
    _Z20gen_truncv32hiv32qi2P7rtx_defS0_ @9849
    _Z20gen_umuldi3_highpartP7rtx_defS0_S0_ @9850
    _Z20gen_umulsi3_highpartP7rtx_defS0_S0_ @9851
    _Z20gen_unpcklps128_maskP7rtx_defS0_S0_S0_S0_ @9852
    _Z20gen_vconduv16hfv16hiP7rtx_defS0_S0_S0_S0_S0_ @9853
    _Z20gen_vconduv16hiv16hiP7rtx_defS0_S0_S0_S0_S0_ @9854
    _Z20gen_vconduv16hiv32qiP7rtx_defS0_S0_S0_S0_S0_ @9855
    _Z20gen_vconduv16qiv16qiP7rtx_defS0_S0_S0_S0_S0_ @9856
    _Z20gen_vconduv16sfv16siP7rtx_defS0_S0_S0_S0_S0_ @9857
    _Z20gen_vconduv16sfv32hiP7rtx_defS0_S0_S0_S0_S0_ @9858
    _Z20gen_vconduv16sfv64qiP7rtx_defS0_S0_S0_S0_S0_ @9859
    _Z20gen_vconduv16siv16siP7rtx_defS0_S0_S0_S0_S0_ @9860
    _Z20gen_vconduv16siv32hiP7rtx_defS0_S0_S0_S0_S0_ @9861
    _Z20gen_vconduv16siv64qiP7rtx_defS0_S0_S0_S0_S0_ @9862
    _Z20gen_vconduv32hfv32hiP7rtx_defS0_S0_S0_S0_S0_ @9863
    _Z20gen_vconduv32hiv16siP7rtx_defS0_S0_S0_S0_S0_ @9864
    _Z20gen_vconduv32hiv32hiP7rtx_defS0_S0_S0_S0_S0_ @9865
    _Z20gen_vconduv32hiv64qiP7rtx_defS0_S0_S0_S0_S0_ @9866
    _Z20gen_vconduv32qiv16hiP7rtx_defS0_S0_S0_S0_S0_ @9867
    _Z20gen_vconduv32qiv32qiP7rtx_defS0_S0_S0_S0_S0_ @9868
    _Z20gen_vconduv64qiv16siP7rtx_defS0_S0_S0_S0_S0_ @9869
    _Z20gen_vconduv64qiv32hiP7rtx_defS0_S0_S0_S0_S0_ @9870
    _Z20gen_vconduv64qiv64qiP7rtx_defS0_S0_S0_S0_S0_ @9871
    _Z20gen_vec_cmpuv2div2diP7rtx_defS0_S0_S0_ @9872
    _Z20gen_vec_cmpuv2hiv2hiP7rtx_defS0_S0_S0_ @9873
    _Z20gen_vec_cmpuv2qiv2qiP7rtx_defS0_S0_S0_ @9874
    _Z20gen_vec_cmpuv2siv2siP7rtx_defS0_S0_S0_ @9875
    _Z20gen_vec_cmpuv4div4diP7rtx_defS0_S0_S0_ @9876
    _Z20gen_vec_cmpuv4hiv4hiP7rtx_defS0_S0_S0_ @9877
    _Z20gen_vec_cmpuv4qiv4qiP7rtx_defS0_S0_S0_ @9878
    _Z20gen_vec_cmpuv4siv4siP7rtx_defS0_S0_S0_ @9879
    _Z20gen_vec_cmpuv8hiv8hiP7rtx_defS0_S0_S0_ @9880
    _Z20gen_vec_cmpuv8qiv8qiP7rtx_defS0_S0_S0_ @9881
    _Z20gen_vec_cmpuv8siv8siP7rtx_defS0_S0_S0_ @9882
    _Z20gen_vec_dupv2df_maskP7rtx_defS0_S0_S0_ @9883
    _Z20gen_vec_initv4dfv2dfP7rtx_defS0_ @9884
    _Z20gen_vec_initv4div2diP7rtx_defS0_ @9885
    _Z20gen_vec_initv4sfv2sfP7rtx_defS0_ @9886
    _Z20gen_vec_initv4siv2siP7rtx_defS0_ @9887
    _Z20gen_vec_initv4tiv2tiP7rtx_defS0_ @9888
    _Z20gen_vec_initv8dfv4dfP7rtx_defS0_ @9889
    _Z20gen_vec_initv8div4diP7rtx_defS0_ @9890
    _Z20gen_vec_initv8hfv4hfP7rtx_defS0_ @9891
    _Z20gen_vec_initv8hiv4hiP7rtx_defS0_ @9892
    _Z20gen_vec_initv8sfv4sfP7rtx_defS0_ @9893
    _Z20gen_vec_initv8siv4siP7rtx_defS0_ @9894
    _Z20gen_vec_set_hi_v16hfP7rtx_defS0_S0_ @9895
    _Z20gen_vec_set_hi_v16hiP7rtx_defS0_S0_ @9896
    _Z20gen_vec_set_hi_v16sfP7rtx_defS0_S0_ @9897
    _Z20gen_vec_set_hi_v16siP7rtx_defS0_S0_ @9898
    _Z20gen_vec_set_hi_v32qiP7rtx_defS0_S0_ @9899
    _Z20gen_vec_set_lo_v16hfP7rtx_defS0_S0_ @9900
    _Z20gen_vec_set_lo_v16hiP7rtx_defS0_S0_ @9901
    _Z20gen_vec_set_lo_v16sfP7rtx_defS0_S0_ @9902
    _Z20gen_vec_set_lo_v16siP7rtx_defS0_S0_ @9903
    _Z20gen_vec_set_lo_v32qiP7rtx_defS0_S0_ @9904
    _Z20gen_vgf2p8mulb_v16qiP7rtx_defS0_S0_ @9905
    _Z20gen_vgf2p8mulb_v32qiP7rtx_defS0_S0_ @9906
    _Z20gen_vgf2p8mulb_v64qiP7rtx_defS0_S0_ @9907
    _Z20gen_vpshld_v2di_maskP7rtx_defS0_S0_S0_S0_S0_ @9908
    _Z20gen_vpshld_v4di_maskP7rtx_defS0_S0_S0_S0_S0_ @9909
    _Z20gen_vpshld_v4si_maskP7rtx_defS0_S0_S0_S0_S0_ @9910
    _Z20gen_vpshld_v8di_maskP7rtx_defS0_S0_S0_S0_S0_ @9911
    _Z20gen_vpshld_v8hi_maskP7rtx_defS0_S0_S0_S0_S0_ @9912
    _Z20gen_vpshld_v8si_maskP7rtx_defS0_S0_S0_S0_S0_ @9913
    _Z20gen_vpshrd_v2di_maskP7rtx_defS0_S0_S0_S0_S0_ @9914
    _Z20gen_vpshrd_v4di_maskP7rtx_defS0_S0_S0_S0_S0_ @9915
    _Z20gen_vpshrd_v4si_maskP7rtx_defS0_S0_S0_S0_S0_ @9916
    _Z20gen_vpshrd_v8di_maskP7rtx_defS0_S0_S0_S0_S0_ @9917
    _Z20gen_vpshrd_v8hi_maskP7rtx_defS0_S0_S0_S0_S0_ @9918
    _Z20gen_vpshrd_v8si_maskP7rtx_defS0_S0_S0_S0_S0_ @9919
    _Z20gen_x86_movdicc_0_m1P7rtx_defS0_S0_ @9920
    _Z20gen_x86_movsicc_0_m1P7rtx_defS0_S0_ @9921
    _Z20gen_xop_maskcmpv2di3P7rtx_defS0_S0_S0_ @9922
    _Z20gen_xop_maskcmpv4si3P7rtx_defS0_S0_S0_ @9923
    _Z20gen_xop_maskcmpv8hi3P7rtx_defS0_S0_S0_ @9924
    _Z20gen_xop_pcom_tfv2di3P7rtx_defS0_S0_S0_ @9925
    _Z20gen_xop_pcom_tfv4si3P7rtx_defS0_S0_S0_ @9926
    _Z20gen_xop_pcom_tfv8hi3P7rtx_defS0_S0_S0_ @9927
    _Z20gen_zero_extendhidi2P7rtx_defS0_ @9928
    _Z20gen_zero_extendhisi2P7rtx_defS0_ @9929
    _Z20gen_zero_extendqidi2P7rtx_defS0_ @9930
    _Z20gen_zero_extendqihi2P7rtx_defS0_ @9931
    _Z20gen_zero_extendqisi2P7rtx_defS0_ @9932
    _Z20gen_zero_extendsidi2P7rtx_defS0_ @9933
    _Z20get_attr_length_evexP8rtx_insn @9934
    _Z20get_attr_mask_scalarP8rtx_insn @9935
    _Z20get_attr_pent_prefixP8rtx_insn @9936
    _Z20get_attr_unord_substP8rtx_insn @9937
    _Z20get_call_combined_fnPK9tree_node @9938
    _Z20get_containing_scopePK9tree_node @9939
    _Z20get_dump_scope_depthv @9940
    _Z20get_fnname_from_declP9tree_node @9941
    _Z20get_hot_bb_thresholdv @9942
    _Z20get_mem_align_offsetP7rtx_defj @9943
    _Z20get_object_alignmentP9tree_node @9944
    _Z20get_regset_from_poolv @9945
    _Z20get_simple_loop_descP4loop @9946
    _Z20get_ultimate_contextPK9tree_node @9947
    _Z20get_user_facing_namePK5gcall @9948
    _Z20get_variable_sectionP9tree_nodeb @9949
    _Z20ggc_pch_alloc_objectP12ggc_pch_dataPvyb @9950
    _Z20ggc_pch_count_objectP12ggc_pch_dataPvyb @9951
    _Z20ggc_pch_write_objectP12ggc_pch_dataP6_iobufPvS3_yb @9952
    _Z20ggc_print_statisticsv @9953
    _Z20ggc_purge_stringpoolv @9954
    _Z20ggc_round_alloc_sizey @9955
    _Z20gimple_alloca_call_pPK6gimple @9956
    _Z20gimple_assign_copy_pP6gimple @9957
    _Z20gimple_build_asm_vecPKcP3vecIP9tree_node5va_gc8vl_embedES7_S7_S7_ @9958
    _Z20gimple_build_eh_elseP6gimpleS0_ @9959
    _Z20gimple_build_omp_forP6gimpleiP9tree_nodeyS0_ @9960
    _Z20gimple_float_value_pP9tree_nodePFS0_S0_E @9961
    _Z20gimple_get_alias_setP9tree_node @9962
    _Z20gimple_negate_expr_pP9tree_nodePFS0_S0_E @9963
    _Z20gimple_unsigned_typeP9tree_node @9964
    _Z20gimplify_one_sizeposPP9tree_nodePP6gimple @9965
    _Z20gimplify_va_arg_exprPP9tree_nodePP6gimpleS4_ @9966
    _Z20gnat_to_gnu_externali @9967
    _Z20gsi_insert_seq_afterP20gimple_stmt_iteratorP6gimple19gsi_iterator_update @9968
    _Z20gsi_replace_with_seqP20gimple_stmt_iteratorP6gimpleb @9969
    _Z20gsi_split_seq_beforeP20gimple_stmt_iteratorPP6gimple @9970
    _Z20gt_ggc_mx_clone_infoPv @9971
    _Z20gt_ggc_mx_control_ivPv @9972
    _Z20gt_ggc_mx_ctf_stringPv @9973
    _Z20gt_ggc_mx_die_structPv @9974
    _Z20gt_ggc_mx_dw_cfi_rowPv @9975
    _Z20gt_ggc_mx_eh_catch_dPv @9976
    _Z20gt_ggc_mx_niter_descPv @9977
    _Z20gt_ggc_mx_odr_type_dPv @9978
    _Z20gt_ggc_mx_real_valuePv @9979
    _Z20gt_ggc_mx_stmt_groupPv @9980
    _Z20gt_ggc_mx_target_rtlPv @9981
    _Z20gt_ggc_mx_thunk_infoPv @9982
    _Z20gt_pch_note_callbackPvS_ @9983
    _Z20gt_pch_nx_clone_infoPv @9984
    _Z20gt_pch_nx_control_ivPv @9985
    _Z20gt_pch_nx_ctf_stringPv @9986
    _Z20gt_pch_nx_die_structPv @9987
    _Z20gt_pch_nx_dw_cfi_rowPv @9988
    _Z20gt_pch_nx_eh_catch_dPv @9989
    _Z20gt_pch_nx_niter_descPv @9990
    _Z20gt_pch_nx_odr_type_dPv @9991
    _Z20gt_pch_nx_real_valuePv @9992
    _Z20gt_pch_nx_stmt_groupPv @9993
    _Z20gt_pch_nx_target_rtlPv @9994
    _Z20gt_pch_nx_thunk_infoPv @9995
    _Z20handle_dll_attributePP9tree_nodeS0_S0_iPb @9996
    _Z20hook_bool_bool_falseb @9997
    _Z20hook_bool_mode_false12machine_mode @9998
    _Z20hook_bool_tree_falseP9tree_node @9999
    _Z20hook_bool_void_falsev @10000
    _Z20hook_int_uint_mode_1j12machine_mode @10001
    _Z20hwasan_emit_prologuev @10002
    _Z20i386_pe_end_functionP6_iobufPKcP9tree_node @10003
    _Z20identifier_to_localePKc @10004
    _Z20immed_wide_int_constRK8poly_intILj1E16generic_wide_intI20wide_int_ref_storageILb0ELb1EEEE12machine_mode @10005
    _Z20init_alias_set_entryi @10006
    _Z20init_cumulative_argsP9ix86_argsP9tree_nodeP7rtx_defS2_i @10007
    _Z20init_eh_for_functionv @10008
    _Z20init_fake_stack_memsv @10009
    _Z20init_loops_structureP8functionP5loopsj @10010
    _Z20init_subregs_of_modev @10011
    _Z20initialize_sizetypesv @10012
    _Z20input_offload_tablesb @10013
    _Z20inside_basic_block_pPK8rtx_insn @10014
    _Z20insn_operand_matches9insn_codejP7rtx_def @10015
    _Z20instantiate_decl_rtlP7rtx_def @10016
    _Z20inverse_conditions_pPK9tree_nodeS1_ @10017
    _Z20ipa_debug_fn_summaryP11cgraph_node @10018
    _Z20ipa_print_all_paramsP6_iobuf @10019
    _Z20ipa_value_from_jfuncP15ipa_node_paramsP13ipa_jump_funcP9tree_node @10020
    _Z20ira_add_allocno_copyP11ira_allocnoS0_ibP8rtx_insnP18ira_loop_tree_node @10021
    _Z20ira_add_allocno_prefP11ira_allocnoii @10022
    _Z20ira_bad_reload_regnoiP7rtx_defS0_ @10023
    _Z20ira_expand_reg_equivv @10024
    _Z20ira_finish_emit_datav @10025
    _Z20ira_former_scratch_pi @10026
    _Z20ira_free_cost_vectorPii @10027
    _Z20ira_nullify_asm_gotoP8rtx_insn @10028
    _Z20ira_reassign_pseudosPii12HARD_REG_SETPS0_S1_P11bitmap_head @10029
    _Z20ira_reuse_stack_sloti8poly_intILj1EyES0_ @10030
    _Z20ix86_bd_has_dispatchP8rtx_insni @10031
    _Z20ix86_emit_i387_acoshP7rtx_defS0_ @10032
    _Z20ix86_emit_i387_asinhP7rtx_defS0_ @10033
    _Z20ix86_emit_i387_atanhP7rtx_defS0_ @10034
    _Z20ix86_emit_i387_log1pP7rtx_defS0_ @10035
    _Z20ix86_emit_i387_roundP7rtx_defS0_ @10036
    _Z20ix86_expand_copysignPP7rtx_def @10037
    _Z20ix86_expand_epiloguei @10038
    _Z20ix86_expand_fp_movccPP7rtx_def @10039
    _Z20ix86_expand_fp_vcondPP7rtx_def @10040
    _Z20ix86_expand_prologuev @10041
    _Z20ix86_expand_sse2_absP7rtx_defS0_ @10042
    _Z20ix86_expand_vec_permPP7rtx_def @10043
    _Z20ix86_insn_callee_abiPK8rtx_insn @10044
    _Z20ix86_local_alignmentP9tree_node12machine_modejb @10045
    _Z20ix86_offload_optionsv @10046
    _Z20ix86_option_overridev @10047
    _Z20ix86_split_long_movePP7rtx_def @10048
    _Z20ix86_split_reduction12machine_mode @10049
    _Z20ix86_tls_module_basev @10050
    _Z20ix86_use_lea_for_movP8rtx_insnPP7rtx_def @10051
    _Z20lhd_builtin_functionP9tree_node @10052
    _Z20lhd_return_null_treeP9tree_node @10053
    _Z20lhd_type_promotes_toP9tree_node @10054
    _Z20lookup_stmt_eh_lp_fnP8functionPK6gimple @10055
    _Z20loop_exits_from_bb_pP4loopP15basic_block_def @10056
    _Z20lowpart_subreg_regnoj12machine_modeS_ @10057
    _Z20lra_constraints_initv @10058
    _Z20lra_debug_elim_tablev @10059
    _Z20lra_delete_dead_insnP8rtx_insn @10060
    _Z20lra_eliminate_regs_1P8rtx_insnP7rtx_def12machine_modebb8poly_intILj1ExEb @10061
    _Z20lra_live_ranges_initv @10062
    _Z20lra_push_insn_by_uidj @10063
    _Z20lra_set_insn_deletedP8rtx_insn @10064
    _Z20lra_undo_inheritancev @10065
    _Z20lto_get_section_dataP18lto_file_decl_data16lto_section_typePKciPyb @10066
    _Z20lto_get_section_nameiPKciP18lto_file_decl_data @10067
    _Z20lto_input_data_blockP15lto_input_blockPvy @10068
    _Z20lto_input_mode_tableP18lto_file_decl_data @10069
    _Z20lto_uncompress_blockP22lto_compression_streamPKcy @10070
    _Z20make_dispatcher_declP9tree_node @10071
    _Z20make_forwarder_blockP15basic_block_defPFbP8edge_defEPFvS0_E @10072
    _Z20make_pass_cleanup_ehPN3gcc7contextE @10073
    _Z20make_pass_cse_sincosPN3gcc7contextE @10074
    _Z20make_pass_expand_ompPN3gcc7contextE @10075
    _Z20make_pass_ipa_devirtPN3gcc7contextE @10076
    _Z20make_pass_ipa_inlinePN3gcc7contextE @10077
    _Z20make_pass_ipa_modrefPN3gcc7contextE @10078
    _Z20make_pass_loop_splitPN3gcc7contextE @10079
    _Z20make_pass_lower_resxPN3gcc7contextE @10080
    _Z20make_pass_rtl_doloopPN3gcc7contextE @10081
    _Z20make_pass_rtl_fwpropPN3gcc7contextE @10082
    _Z20make_pass_scev_cpropPN3gcc7contextE @10083
    _Z20make_pass_stack_regsPN3gcc7contextE @10084
    _Z20make_pass_tail_callsPN3gcc7contextE @10085
    _Z20make_pass_ud_rtl_dcePN3gcc7contextE @10086
    _Z20mark_decl_referencedP9tree_node @10087
    _Z20mark_loop_exit_edgesv @10088
    _Z20mathfn_built_in_type11combined_fn @10089
    _Z20maximal_insn_latencyP8rtx_insn @10090
    _Z20maybe_code_for_cmp_112machine_mode @10091
    _Z20maybe_code_for_leave12machine_mode @10092
    _Z20maybe_code_for_rdssp12machine_mode @10093
    _Z20maybe_code_for_wruss12machine_mode @10094
    _Z20maybe_emit_unop_insn9insn_codeP7rtx_defS1_8rtx_code @10095
    _Z20maybe_gen_add3_carry12machine_modeP7rtx_defS1_S1_S1_S1_ @10096
    _Z20maybe_gen_lwp_llwpcb12machine_modeP7rtx_def @10097
    _Z20maybe_gen_lwp_lwpins12machine_modeP7rtx_defS1_S1_ @10098
    _Z20maybe_gen_lwp_lwpval12machine_modeP7rtx_defS1_S1_ @10099
    _Z20maybe_gen_lwp_slwpcb12machine_modeP7rtx_def @10100
    _Z20maybe_gen_sub3_carry12machine_modeP7rtx_defS1_S1_S1_S1_ @10101
    _Z20maybe_gen_tbm_bextri12machine_modeP7rtx_defS1_S1_S1_ @10102
    _Z20maybe_get_identifierPKc @10103
    _Z20maybe_warn_for_bound8opt_codejP6gimpleP9tree_nodePS3_S3_PK11access_data @10104
    _Z20maybe_warn_for_bound8opt_codejP9tree_nodeS1_PS1_S1_PK11access_data @10105
    _Z20mems_same_for_tbaa_pP7rtx_defS0_ @10106
    _Z20move_fence_to_fencesP10_list_nodeP14flist_tail_def @10107
    _Z20move_loop_invariantsv @10108
    _Z20movement_possibilityP6gimple @10109
    _Z20nonimmediate_operandP7rtx_def12machine_mode @10110
    _Z20norex_memory_operandP7rtx_def12machine_mode @10111
    _Z20notice_global_symbolP9tree_node @10112
    _Z20notice_special_callsP5gcall @10113
    _Z20oacc_fn_attrib_levelP9tree_node @10114
    _Z20oacc_get_default_dimi @10115
    _Z20oacc_get_fn_dim_sizeP9tree_nodei @10116
    _Z20oacc_get_ifn_dim_argPK6gimple @10117
    _Z20offsettable_memref_pP7rtx_def @10118
    _Z20omit_one_operand_locjP9tree_nodeS0_S0_ @10119
    _Z20omp_extract_for_dataP8gomp_forP12omp_for_dataP17omp_for_data_loop @10120
    _Z20optimize_mask_storesP4loop @10121
    _Z20output_387_binary_opP8rtx_insnPP7rtx_def @10122
    _Z20output_cfi_directiveP6_iobufP11dw_cfi_node @10123
    _Z20output_object_blocksv @10124
    _Z20output_quoted_stringP6_iobufPKc @10125
    _Z20pad_type_has_rm_sizeP9tree_node @10126
    _Z20paradoxical_subreg_pPK7rtx_def @10127
    _Z20parse_alignment_optsv @10128
    _Z20parse_plugin_arg_optPKc @10129
    _Z20passes_pass_traverseRKPKcRKP8opt_passPv @10130
    _Z20pop_function_contextv @10131
    _Z20pop_gimplify_contextP6gimple @10132
    _Z20pop_topmost_sequencev @10133
    _Z20post_error_ne_tree_2PKciiP9tree_nodei @10134
    _Z20pp_clear_output_areaP14pretty_printer @10135
    _Z20pp_newline_and_flushP14pretty_printer @10136
    _Z20prepare_call_addressP9tree_nodeP7rtx_defS2_PS2_ii @10137
    _Z20print_isl_constraintP6_iobufP14isl_constraint @10138
    _Z20propagate_tree_valuePP9tree_nodeS0_ @10139
    _Z20pt_solution_includesP11pt_solutionPK9tree_node @10140
    _Z20ptr_difference_constP9tree_nodeS0_P12poly_int_podILj1ExE @10141
    _Z20ptrs_compare_unequalP9tree_nodeS0_ @10142
    _Z20purge_all_dead_edgesv @10143
    _Z20push_struct_functionP9tree_node @10144
    _Z20queue_and_dump_indexP9dump_infoPKcPK9tree_nodei @10145
    _Z20read_modify_subreg_pPK7rtx_def @10146
    _Z20real_insn_for_shadowP8rtx_insn @10147
    _Z20real_issignaling_nanPK10real_value @10148
    _Z20record_dynamic_allocP9tree_node @10149
    _Z20record_hard_reg_setsP7rtx_defPKS_Pv @10150
    _Z20record_hard_reg_usesPP7rtx_defPv @10151
    _Z20record_tm_clone_pairP9tree_nodeS0_ @10152
    _Z20refs_same_for_tbaa_pP9tree_nodeS0_ @10153
    _Z20regrename_do_replaceP7du_headi @10154
    _Z20remap_debug_filenamePKc @10155
    _Z20remap_macro_filenamePKc @10156
    _Z20remove_bb_from_loopsP15basic_block_def @10157
    _Z20remove_unused_localsv @10158
    _Z20reset_target_contextPvb @10159
    _Z20rli_size_unit_so_farP20record_layout_info_s @10160
    _Z20rtl_profile_for_edgeP8edge_def @10161
    _Z20rtx_for_static_chainPK9tree_nodeb @10162
    _Z20sbitmap_vector_allocjj @10163
    _Z20sched_init_insn_luidP8rtx_insn @10164
    _Z20sched_rgn_local_freev @10165
    _Z20sched_rgn_local_initi @10166
    _Z20sched_speculate_insnP8rtx_insnjPP7rtx_def @10167
    _Z20schedule_ebbs_finishv @10168
    _Z20scop_get_dependencesP4scop @10169
    _Z20scratch_reload_class9insn_code @10170
    _Z20sd_add_or_update_depP4_depb @10171
    _Z20selector_fits_mode_p12machine_modeRK16vec_perm_indices @10172
    _Z20set_default_handlersP18cl_option_handlersPFvvE @10173
    _Z20set_edom_supported_pv @10174
    _Z20set_hot_bb_thresholdx @10175
    _Z20set_ifsese_conditionP8ifsese_sP9tree_node @10176
    _Z20sibcall_insn_operandP7rtx_def12machine_mode @10177
    _Z20simplifiable_subregsRK12subreg_shape @10178
    _Z20simplify_replace_rtxP7rtx_defPKS_S0_ @10179
    _Z20simplify_subtractionP7rtx_def @10180
    _Z20speculation_useful_pP11cgraph_edgeb @10181
    _Z20spill_slot_alignment12machine_mode @10182
    _Z20split_critical_edgesb @10183
    _Z20split_loop_exit_edgeP8edge_defb @10184
    _Z20ssa_is_replaceable_pP6gimple @10185
    _Z20stack_regs_mentionedPK7rtx_def @10186
    _Z20statistics_fini_passv @10187
    _Z20stmt_in_inner_loop_pP8vec_infoP14_stmt_vec_info @10188
    _Z20stream_read_tree_refP15lto_input_blockP7data_in @10189
    _Z20streamer_read_stringP7data_inP15lto_input_block @10190
    _Z20strip_invariant_refsPK9tree_node @10191
    _Z20strip_offset_and_addP7rtx_defP12poly_int_podILj1ExE @10192
    _Z20subreg_memory_offset12machine_modeS_8poly_intILj1EyE @10193
    _Z20subreg_memory_offsetPK7rtx_def @10194
    _Z20swap_tree_comparison9tree_code @10195
    _Z20target_handle_optionP11gcc_optionsS0_PK17cl_decoded_optionjijPK18cl_option_handlersP18diagnostic_contextPFvvE @10196
    _Z20target_supports_op_pP9tree_node9tree_code13optab_subtype @10197
    _Z20tls_symbolic_operandP7rtx_def12machine_mode @10198
    _Z20tree_contains_chrecsPK9tree_nodePi @10199
    _Z20tree_ctz_table_indexP9tree_nodePS0_ @10200
    _Z20tree_expr_infinite_pPK9tree_node @10201
    _Z20tree_int_cst_comparePK9tree_nodeS1_ @10202
    _Z20tree_ssa_iv_optimizev @10203
    _Z20tree_swap_operands_pPK9tree_nodeS1_ @10204
    _Z20tree_vec_same_elem_pP9tree_node @10205
    _Z20type_hash_canon_hashP9tree_node @10206
    _Z20types_odr_comparableP9tree_nodeS0_ @10207
    _Z20ubsan_expand_ptr_ifnP20gimple_stmt_iterator @10208
    _Z20update_profiles_withP9tree_node @10209
    _Z20update_stmt_operandsP8functionP6gimple @10210
    _Z20use_anchored_addressP7rtx_def @10211
    _Z20validate_replace_rtxP7rtx_defS0_P8rtx_insn @10212
    _Z20vec_series_lowpart_p12machine_modeS_P7rtx_def @10213
    _Z20vec_setm_mmx_operandP7rtx_def12machine_mode @10214
    _Z20vect_loop_versioningP14_loop_vec_infoP6gimple @10215
    _Z20vect_record_loop_lenP14_loop_vec_infoP8auto_vecI15rgroup_controlsLy0EEjP9tree_nodej @10216
    _Z20verify_gimple_in_cfgP8functionb @10217
    _Z20verify_gimple_in_seqP6gimple @10218
    _Z20voidify_wrapper_exprP9tree_nodeS0_ @10219
    _Z20vsib_address_operandP7rtx_def12machine_mode @10220
    _Z20warning_suppressed_pPK6gimple8opt_code @10221
    _Z20warning_suppressed_pPK9tree_node8opt_code @10222
    _Z21Go_handle_option_autoP11gcc_optionsS0_yPKcxjijPK18cl_option_handlersP18diagnostic_context @10223
    _Z21HWI_COMPUTABLE_MODE_P12machine_mode @10224
    _Z21_fatal_insn_not_foundPK7rtx_defPKciS3_ @10225
    _Z21add_function_usage_toP7rtx_defS0_ @10226
    _Z21add_to_dominance_info13cdi_directionP15basic_block_def @10227
    _Z21aff_combination_constP8aff_treeP9tree_nodeRK8poly_intILj1E16generic_wide_intI22fixed_wide_int_storageILi576EEEE @10228
    _Z21aff_combination_scaleP8aff_treeRK16generic_wide_intI22fixed_wide_int_storageILi576EEE @10229
    _Z21alias_sets_conflict_pii @10230
    _Z21align_dynamic_addressP7rtx_defj @10231
    _Z21ao_ref_alias_ptr_typeP6ao_ref @10232
    _Z21ao_ref_base_alias_setP6ao_ref @10233
    _Z21apply_poly_transformsP4scop @10234
    _Z21arg_int_size_in_bytesPK9tree_node @10235
    _Z21array_at_struct_end_pP9tree_node @10236
    _Z21asan_expand_check_ifnP20gimple_stmt_iteratorb @10237
    _Z21asan_instrument_readsv @10238
    _Z21asan_sanitize_stack_pv @10239
    _Z21assemble_end_functionP9tree_nodePKc @10240
    _Z21assemble_name_resolvePKc @10241
    _Z21assemble_static_spacey @10242
    _Z21associative_tree_code9tree_code @10243
    _Z21attribute_value_equalPK9tree_nodeS1_ @10244
    _Z21autoinc_var_is_used_pP8rtx_insnS0_ @10245
    _Z21av_set_union_and_livePP10_list_nodeS1_P11bitmap_headS3_P8rtx_insn @10246
    _Z21avx_vpermilp_parallelP7rtx_def12machine_mode @10247
    _Z21bitmap_and_compl_intoP11bitmap_headPKS_ @10248
    _Z21bitmap_bit_in_range_pPK17simple_bitmap_defjj @10249
    _Z21bitmap_compl_and_intoP11bitmap_headPKS_ @10250
    _Z21bitmap_elt_clear_fromP11bitmap_headP14bitmap_element @10251
    _Z21bitmap_union_of_predsP17simple_bitmap_defPS0_P15basic_block_def @10252
